
/home/matei/arm_summer_school/atf/build/imx93/release/bl31/bl31.elf:     file format elf64-littleaarch64
/home/matei/arm_summer_school/atf/build/imx93/release/bl31/bl31.elf
architecture: aarch64, flags 0x00000112:
EXEC_P, HAS_SYMS, D_PAGED
start address 0x00000000204e0000

Program Header:
    LOAD off    0x0000000000001000 vaddr 0x00000000204e0000 paddr 0x00000000204e0000 align 2**12
         filesz 0x000000000000b000 memsz 0x000000000000b000 flags r-x
    LOAD off    0x000000000000c000 vaddr 0x00000000204eb000 paddr 0x00000000204eb000 align 2**12
         filesz 0x0000000000000d5c memsz 0x0000000000012000 flags rw-
   STACK off    0x0000000000000000 vaddr 0x0000000000000000 paddr 0x0000000000000000 align 2**4
         filesz 0x0000000000000000 memsz 0x0000000000000000 flags rw-
private flags = 0x0:

Sections:
Idx Name          Size      VMA               LMA               File off  Algn
  0 .ro           0000b000  00000000204e0000  00000000204e0000  00001000  2**11
                  CONTENTS, ALLOC, LOAD, READONLY, CODE
  1 .data         00000d5c  00000000204eb000  00000000204eb000  0000c000  2**3
                  CONTENTS, ALLOC, LOAD, DATA
  2 .stacks       00001600  00000000204ebd80  00000000204ebd80  0000cd5c  2**6
                  ALLOC
  3 .bss          00002fe0  00000000204ed380  00000000204ed380  0000cd5c  2**5
                  ALLOC
  4 .per_cpu      00000600  00000000204f0380  00000000204f0380  0000cd5c  2**6
                  ALLOC
  5 .xlat_table   0000c000  00000000204f1000  00000000204f1000  0000cd5c  2**12
                  ALLOC
  6 .comment      0000002d  0000000000000000  0000000000000000  0000cd5c  2**0
                  CONTENTS, READONLY
  7 .debug_frame  00000950  0000000000000000  0000000000000000  0000cd90  2**3
                  CONTENTS, READONLY, DEBUGGING, OCTETS
SYMBOL TABLE:
00000000204e0000 l    d  .ro	0000000000000000 .ro
00000000204eb000 l    d  .data	0000000000000000 .data
00000000204ebd80 l    d  .stacks	0000000000000000 .stacks
00000000204ed380 l    d  .bss	0000000000000000 .bss
00000000204f0380 l    d  .per_cpu	0000000000000000 .per_cpu
00000000204f1000 l    d  .xlat_table	0000000000000000 .xlat_table
0000000000000000 l    d  .comment	0000000000000000 .comment
0000000000000000 l    d  .debug_frame	0000000000000000 .debug_frame
0000000000000000 l    df *ABS*	0000000000000000 bl31_entrypoint.o
00000000204e0170 l       .ro	0000000000000000 stm
0000000000000000 l    df *ABS*	0000000000000000 bl31_context_mgmt.c
0000000000000000 l    df *ABS*	0000000000000000 bl31_main.c
00000000204e97f8 l     O .ro	0000000000000010 psci_args.0
00000000204eb470 l     O .data	0000000000000004 next_image_type
00000000204ea329 l     O .ro	0000000000000012 build_version_string
00000000204ea33b l     O .ro	000000000000001e build_message
00000000204ed380 l     O .bss	0000000000000008 bl32_init
0000000000000000 l    df *ABS*	0000000000000000 bl31_traps.c
00000000204e040c l     F .ro	0000000000000018 is_tge_enabled
0000000000000000 l    df *ABS*	0000000000000000 interrupt_mgmt.c
00000000204e0768 l     F .ro	0000000000000084 set_scr_el3_from_rm
00000000204ed388 l     O .bss	0000000000000080 intr_type_descs
0000000000000000 l    df *ABS*	0000000000000000 bl_common.c
0000000000000000 l    df *ABS*	0000000000000000 desc_image_load.c
0000000000000000 l    df *ABS*	0000000000000000 runtime_svc.c
0000000000000000 l    df *ABS*	0000000000000000 tf_log.c
00000000204eb474 l     O .data	0000000000000004 max_log_level
0000000000000000 l    df *ABS*	0000000000000000 gic-x00.c
00000000204e0bc8 l     F .ro	0000000000000014 gicr_wait_group_not_in_transit
00000000204e0bdc l     F .ro	0000000000000048 gicv3_redists_need_power_mgmt
00000000204f02f8 l     O .bss	0000000000000001 gic600_errata_wa_2384374
0000000000000000 l    df *ABS*	0000000000000000 gicdv3_helpers.c
0000000000000000 l    df *ABS*	0000000000000000 gicrv3_helpers.c
0000000000000000 l    df *ABS*	0000000000000000 gicv3_helpers.c
0000000000000000 l    df *ABS*	0000000000000000 gicv3_main.c
00000000204e13b0 l     F .ro	000000000000000c gicd_wait_for_pending_write
00000000204e13b0 l     F .ro	000000000000000c gicr_wait_for_upstream_pending_write
00000000204e13bc l     F .ro	000000000000000c gicr_wait_for_pending_write
0000000000000000 l    df *ABS*	0000000000000000 multi_console.c
00000000204eb478 l     O .data	0000000000000004 console_state
0000000000000000 l    df *ABS*	0000000000000000 delay_timer.c
00000000204ed418 l     O .bss	0000000000000008 timer_ops
0000000000000000 l    df *ABS*	0000000000000000 generic_delay_timer.c
00000000204e1e94 l     F .ro	0000000000000024 generic_delay_timeout_init_us
00000000204e1eb8 l     F .ro	0000000000000010 generic_delay_timeout_elapsed
00000000204e1ec8 l     F .ro	000000000000000c generic_delay_get_timer_value
00000000204ed420 l     O .bss	0000000000000020 ops
0000000000000000 l    df *ABS*	0000000000000000 imx_trdc.c
00000000204e1f68 l     F .ro	0000000000000020 trdc_get_mbc_base
00000000204e1f88 l     F .ro	000000000000002c trdc_get_mrc_base
0000000000000000 l    df *ABS*	0000000000000000 errata_common.c
0000000000000000 l    df *ABS*	0000000000000000 errata_report.c
0000000000000000 l    df *ABS*	0000000000000000 context_mgmt.c
0000000000000000 l    df *ABS*	0000000000000000 cpu_data_array.c
0000000000000000 l    df *ABS*	0000000000000000 mpam.c
0000000000000000 l    df *ABS*	0000000000000000 pmuv3.c
0000000000000000 l    df *ABS*	0000000000000000 spe.c
0000000000000000 l    df *ABS*	0000000000000000 sve.c
0000000000000000 l    df *ABS*	0000000000000000 per_cpu.c
0000000000000000 l    df *ABS*	0000000000000000 psci_common.c
00000000204e2e64 l     F .ro	0000000000000034 psci_set_req_local_pwr_state
00000000204f02f9 l     O .bss	0000000000000004 psci_req_local_pwr_states
00000000204e2e98 l     F .ro	0000000000000040 call_cpu_pwr_dwn
0000000000000000 l    df *ABS*	0000000000000000 psci_main.c
00000000204e36a0 l     F .ro	000000000000001c is_valid_mpidr
0000000000000000 l    df *ABS*	0000000000000000 psci_mem_protect.c
0000000000000000 l    df *ABS*	0000000000000000 psci_off.c
0000000000000000 l    df *ABS*	0000000000000000 psci_on.c
0000000000000000 l    df *ABS*	0000000000000000 psci_setup.c
00000000204ed470 l     O .bss	00000000000000b0 warmboot_ep_info
00000000204f03c0 l     O .per_cpu	0000000000000280 psci_ns_context
0000000000000000 l    df *ABS*	0000000000000000 psci_suspend.c
0000000000000000 l    df *ABS*	0000000000000000 psci_system_off.c
0000000000000000 l    df *ABS*	0000000000000000 xlat_tables_arch.c
0000000000000000 l    df *ABS*	0000000000000000 xlat_tables_context.c
00000000204eb000 l     O .data	0000000000000060 tf_xlat_ctx
00000000204ed520 l     O .bss	00000000000002a8 tf_mmap
00000000204f1000 l     O .xlat_table	000000000000c000 tf_xlat_tables
00000000204f0340 l     O .bss	0000000000000020 tf_base_xlat_table
0000000000000000 l    df *ABS*	0000000000000000 xlat_tables_core.c
00000000204e4a08 l     F .ro	00000000000001d0 xlat_tables_map_region
0000000000000000 l    df *ABS*	0000000000000000 xlat_tables_utils.c
0000000000000000 l    df *ABS*	0000000000000000 plat_common.c
0000000000000000 l    df *ABS*	0000000000000000 plat_bl_common.c
0000000000000000 l    df *ABS*	0000000000000000 plat_gicv3.c
00000000204ea359 l     O .ro	0000000000000004 CSWTCH.13
0000000000000000 l    df *ABS*	0000000000000000 plat_log_common.c
00000000204e9808 l     O .ro	0000000000000028 plat_prefix_str
0000000000000000 l    df *ABS*	0000000000000000 plat_psci_common.c
0000000000000000 l    df *ABS*	0000000000000000 imx_common.c
0000000000000000 l    df *ABS*	0000000000000000 imx_sip_handler.c
00000000204ed7e0 l     O .bss	0000000000000058 bl33_image_ep_info.0
0000000000000000 l    df *ABS*	0000000000000000 imx_sip_svc.c
00000000204e51cc l     F .ro	0000000000000008 imx_sip_setup
00000000204e51d4 l     F .ro	00000000000000cc imx_sip_handler
00000000204ea378 l     O .ro	0000000000000020 __svc_desc_imx_sip_svc
0000000000000000 l    df *ABS*	0000000000000000 plat_imx8_gic.c
00000000204e52a0 l     F .ro	0000000000000004 plat_imx_mpidr_to_core_pos
00000000204e9c24 l     O .ro	0000000000000004 g01s_interrupt_props
00000000204ed838 l     O .bss	0000000000000010 rdistif_base_addrs
0000000000000000 l    df *ABS*	0000000000000000 ele_api.c
00000000204f0130 l     O .bss	0000000000000100 soc_info
0000000000000000 l    df *ABS*	0000000000000000 ddr_dvfs.c
00000000204e9c28 l     O .ro	0000000000000150 imx9_fracpll_tbl
00000000204f0234 l     O .bss	0000000000000004 cur_state.1
00000000204f0230 l     O .bss	0000000000000004 cur_state.0
0000000000000000 l    df *ABS*	0000000000000000 dram.c
00000000204e5b40 l     F .ro	0000000000000070 waiting_dvfs
00000000204f0240 l     O .bss	0000000000000004 core_count
00000000204f02fe l     O .bss	0000000000000001 in_progress
00000000204f023c l     O .bss	0000000000000004 num_fsp
00000000204f0238 l     O .bss	0000000000000004 cur_fsp
00000000204f02fd l     O .bss	0000000000000001 in_swffc
0000000000000000 l    df *ABS*	0000000000000000 dram_retention.c
0000000000000000 l    df *ABS*	0000000000000000 imx93_bl31_setup.c
00000000204ed850 l     O .bss	0000000000000028 console.0
00000000204ed878 l     O .bss	0000000000000058 bl33_image_ep_info
00000000204ed8d0 l     O .bss	0000000000000058 bl32_image_ep_info
00000000204e9860 l     O .ro	0000000000000258 imx_mmap
0000000000000000 l    df *ABS*	0000000000000000 imx93_psci.c
00000000204eb7b4 l     O .data	0000000000000001 boot_stage
00000000204eb47c l     O .data	0000000000000188 hsk_config
00000000204e9fd4 l     O .ro	0000000000000020 wakeupmix_irq_mask
00000000204f0300 l     O .bss	0000000000000001 has_wakeup_irq
00000000204f0260 l     O .bss	0000000000000018 clock_root
00000000204e9fb4 l     O .ro	0000000000000020 gpio_ctrl_offset
00000000204f0301 l     O .bss	0000000000000001 gpio_wakeup
00000000204f0248 l     O .bss	0000000000000018 wdog_val
00000000204eb060 l     O .data	0000000000000210 wakeupmix_gpio_ctx
00000000204ed928 l     O .bss	0000000000000008 secure_entrypoint
00000000204e9ab8 l     O .ro	00000000000000b0 imx_plat_psci_ops
0000000000000000 l    df *ABS*	0000000000000000 plat_topology.c
0000000000000000 l    df *ABS*	0000000000000000 pwr_ctrl.c
0000000000000000 l    df *ABS*	0000000000000000 src.c
0000000000000000 l    df *ABS*	0000000000000000 trdc.c
0000000000000000 l    df *ABS*	0000000000000000 arm_arch_svc_setup.c
00000000204e832c l     F .ro	0000000000000250 arm_arch_svc_smc_handler
00000000204ea398 l     O .ro	0000000000000020 __svc_desc_arm_arch_svc
0000000000000000 l    df *ABS*	0000000000000000 std_svc_setup.c
00000000204e857c l     F .ro	00000000000000b8 std_svc_smc_handler
00000000204e8634 l     F .ro	0000000000000024 std_svc_setup
00000000204ea3b8 l     O .ro	0000000000000020 __svc_desc_std_svc
0000000000000000 l    df *ABS*	0000000000000000 crash_reporting.o
0000000000000000 l    df *ABS*	0000000000000000 runtime_exceptions.o
00000000204e87e8 l     F .ro	0000000000000080 reflect_pending_async_ea_to_lower_el
00000000204e865c l       .ro	0000000000000000 smc_handler32
00000000204e8660 l       .ro	0000000000000000 sync_handler64
00000000204e87b0 l     F .ro	0000000000000038 imp_def_el3_handler
00000000204e875c l     F .ro	0000000000000054 handle_interrupt_exception
00000000204e865c l     F .ro	0000000000000100 sync_exception_handler
00000000204e8744 l       .ro	0000000000000000 smc_prohibited
00000000204e86ec l       .ro	0000000000000000 sysreg_handler64
00000000204e8738 l       .ro	0000000000000000 smc_unknown
00000000204e87ac l       .ro	0000000000000000 interrupt_exit
00000000204e87d4 l       .ro	0000000000000000 el3_handler_exit
00000000204e8808 l       .ro	0000000000000000 check_loop_ctr
00000000204e881c l       .ro	0000000000000000 skip_loop_ctr
00000000204e8850 l       .ro	0000000000000000 skip_smc_check
00000000204e884c l       .ro	0000000000000000 subtract_elr_el3
0000000000000000 l    df *ABS*	0000000000000000 debug.o
00000000204ea360 l       .ro	0000000000000000 panic_msg
00000000204e88bc l       .ro	0000000000000000 panic_common
00000000204e88e4 l       .ro	0000000000000000 _panic_handler
0000000000000000 l    df *ABS*	0000000000000000 cache_helpers.o
00000000204e8920 l       .ro	0000000000000000 exit_loop_civac
00000000204e890c l       .ro	0000000000000000 loop_civac
00000000204e8958 l       .ro	0000000000000000 exit_loop_cvac
00000000204e8944 l       .ro	0000000000000000 loop_cvac
00000000204e8990 l       .ro	0000000000000000 exit_loop_ivac
00000000204e897c l       .ro	0000000000000000 loop_ivac
00000000204e8994 l     F .ro	000000000000009c do_dcsw_op
00000000204e8a2c l       .ro	0000000000000000 exit
00000000204e8a30 l       .ro	0000000000000000 dcsw_loop_table
00000000204e89b0 l       .ro	0000000000000000 loop1
00000000204e8a14 l       .ro	0000000000000000 level_done
00000000204e8a30 l       .ro	0000000000000000 loop2_isw
00000000204e8a34 l       .ro	0000000000000000 loop3_isw
00000000204e8a50 l       .ro	0000000000000000 loop2_cisw
00000000204e8a54 l       .ro	0000000000000000 loop3_cisw
00000000204e8a70 l       .ro	0000000000000000 loop2_csw
00000000204e8a74 l       .ro	0000000000000000 loop3_csw
0000000000000000 l    df *ABS*	0000000000000000 misc_helpers.o
00000000204e8aac l     F .ro	00000000000000e8 zeromem_dczva
0000000000000000 l    df *ABS*	0000000000000000 cortex_a55.o
00000000204e9b68 l       .ro	0000000000000000 cortex_a55_errata_list_start
00000000204e8bac l     F .ro	000000000000000c check_erratum_cortex_a55_768277
00000000204e8bb8 l     F .ro	0000000000000024 check_erratum_cortex_a55_778703
00000000204e8bdc l     F .ro	000000000000000c check_erratum_cortex_a55_798797
00000000204e8be8 l     F .ro	0000000000000020 check_erratum_cortex_a55_798953
00000000204e8c08 l     F .ro	000000000000000c check_erratum_cortex_a55_846532
00000000204e8c14 l     F .ro	000000000000000c check_erratum_cortex_a55_903758
00000000204e8c20 l     F .ro	0000000000000028 check_erratum_cortex_a55_936184
00000000204e8c48 l     F .ro	000000000000000c check_erratum_cortex_a55_1221012
00000000204e8c54 l     F .ro	0000000000000008 check_erratum_cortex_a55_1530923
00000000204e9bf8 l       .ro	0000000000000000 cortex_a55_errata_list_end
0000000000000000 l    df *ABS*	0000000000000000 cpu_helpers.o
00000000204e8cb4 l       .ro	0000000000000000 search_def_ptr
0000000000000000 l    df *ABS*	0000000000000000 context.o
00000000204e8dd8 l       .ro	0000000000000000 realm_state
00000000204e8ddc l       .ro	0000000000000000 end
00000000204e8e24 l       .ro	0000000000000000 no_mpam
0000000000000000 l    df *ABS*	0000000000000000 spinlock.o
00000000204e8e68 l       .ro	0000000000000000 l1
00000000204e8e6c l       .ro	0000000000000000 l2
0000000000000000 l    df *ABS*	0000000000000000 per_cpu_asm.o
0000000000000000 l    df *ABS*	0000000000000000 enable_mmu.o
0000000000000000 l    df *ABS*	0000000000000000 crash_console_helpers.o
00000000204eb7b0 l       .data	0000000000000000 crash_console_spinlock
00000000204ebd5b l       .data	0000000000000000 crash_console_triggered
00000000204eb448 l       .data	0000000000000000 crash_console_reg_stash
00000000204e8f1c l       .ro	0000000000000000 skip_spinlock
00000000204e8f38 l       .ro	0000000000000000 init_error
00000000204e8f64 l       .ro	0000000000000000 putc_loop
00000000204e8fb0 l       .ro	0000000000000000 putc_done
00000000204e8fa8 l       .ro	0000000000000000 putc_continue
00000000204e8f9c l       .ro	0000000000000000 putc
00000000204e8fe0 l       .ro	0000000000000000 flush_loop
00000000204e9008 l       .ro	0000000000000000 flush_done
00000000204e9000 l       .ro	0000000000000000 flush_continue
0000000000000000 l    df *ABS*	0000000000000000 platform_helpers.o
0000000000000000 l    df *ABS*	0000000000000000 platform_mp_stack.o
00000000204ebd80 l       .stacks	0000000000000000 platform_normal_stacks
0000000000000006 l       *ABS*	0000000000000000 TZ_COUNT
0000000000000000 l    df *ABS*	0000000000000000 lpuart_console.o
00000000204e909c l       .ro	0000000000000000 register_fail
00000000204e90d8 l       .ro	0000000000000000 putc_error
0000000000000000 l    df *ABS*	0000000000000000 plat_helpers.o
00000000204e9108 l       .ro	0000000000000000 suspend
0000000000000000 l    df *ABS*	0000000000000000 memcpy.c
0000000000000000 l    df *ABS*	0000000000000000 memmove.c
0000000000000000 l    df *ABS*	0000000000000000 printf.c
00000000204e9198 l     F .ro	00000000000000f4 unsigned_num_print.part.0
0000000000000000 l    df *ABS*	0000000000000000 memset.c
00000000204e0ec4 g     F .ro	0000000000000014 gicd_read_nsacr
00000000204e1da4 g     F .ro	0000000000000028 putchar
00000000204e10bc g     F .ro	000000000000001c gicv3_get_spi_limit
00000000204e5bb0 g     F .ro	000000000000045c ddrphy_addr_remap
00000000204e2cb8 g     F .ro	0000000000000054 cm_prepare_el3_exit
00000000204e1398 g     F .ro	0000000000000018 gicv3_get_component_prodid_rev
00000000204e1ce4 g     F .ro	0000000000000018 console_set_scope
00000000204e4f38  w    F .ro	0000000000000008 plat_is_smccc_feature_available
00000000204f0340 g       .bss	0000000000000000 __PMF_TIMESTAMP_START__
00000000204e4f68  w    F .ro	0000000000000034 plat_ic_get_pending_interrupt_type
00000000204e0e18 g     F .ro	0000000000000014 gicd_write_igrpmodr
00000000204e2adc g     F .ro	0000000000000174 cm_el1_sysregs_context_restore
00000000204e642c g     F .ro	0000000000000020 check_dfi_init_complete
00000000204e3a0c g     F .ro	000000000000002c psci_migrate_info_up_cpu
00000000204e5a28 g     F .ro	0000000000000094 dram_hwffc_full_speed
00000000204e2d6c g     F .ro	0000000000000004 mpam_init_el3
00000000204fd000 g       .xlat_table	0000000000000000 __BL31_END__
00000000204e1ca4 g     F .ro	0000000000000034 console_register
00000000204e3740 g     F .ro	0000000000000120 psci_cpu_suspend
00000000204e75f0 g     F .ro	0000000000000068 wdog_restore
00000000204eae00 g     F .ro	0000000000000000 sync_exception_aarch32
00000000204e8aa4 g     F .ro	0000000000000008 zeromem
00000000204e88b0 g     F .ro	0000000000000008 asm_print_newline
00000000204ea410 g       .ro	0000000000000000 __pubsub_psci_suspend_pwrdown_finish_end
00000000204e54f4 g     F .ro	0000000000000128 ddr_pll_init
00000000204e3418 g     F .ro	00000000000000f4 psci_validate_entry_point
00000000204e4e08 g     F .ro	000000000000003c mmap_add_ctx
00000000204e0950 g     F .ro	0000000000000004 print_entry_point_info
00000000204e0238 g     F .ro	0000000000000034 cm_get_context
00000000204e972c g     F .ro	0000000000000054 printf
00000000204ed7c8 g     O .bss	0000000000000018 mmu_cfg_params
00000000204e4f18 g     F .ro	0000000000000004 xlat_tables_print
00000000204e7130 g     F .ro	0000000000000038 nicmix_qos_init
00000000204e33c0 g     F .ro	0000000000000058 psci_release_pwr_domain_locks
00000000204e7cac g     F .ro	000000000000001c plat_core_pos_by_mpidr
00000000204e2ed8 g     F .ro	0000000000000028 psci_validate_power_state
00000000204e2aa8 g     F .ro	0000000000000004 cm_init_percpu_once_regs
00000000204eb000 g       .ro	0000000000000000 __RW_START__
00000000204e209c g     F .ro	000000000000002c trdc_mbc_blk_num
00000000204f1000 g       .xlat_table	0000000000000000 __XLAT_TABLE_START__
00000000204e06b0 g     F .ro	00000000000000b8 inject_undef64
00000000204e9830 g     O .ro	0000000000000030 arm_gic_data
0000000000000300 g       *ABS*	0000000000000000 __PER_CPU_UNIT_SECTION_SIZE__
00000000204e6b34 g     F .ro	0000000000000028 bl31_plat_get_next_image_ep_info
00000000204e0c90 g     F .ro	0000000000000054 gicv3_check_erratas_applies
00000000204e9164 g     F .ro	0000000000000034 memmove
00000000204e3664 g     F .ro	000000000000003c psci_pwrdown_cpu_end_wakeup
00000000204eb620 g     O .data	00000000000000b0 trdc_n_mrc
00000000204f0278 g     O .bss	0000000000000080 rt_svc_descs_indices
00000000204e0e88 g     F .ro	0000000000000014 gicd_write_isenabler
00000000204e7c50 g     F .ro	0000000000000050 plat_setup_psci_ops
00000000204eaa00 g     F .ro	0000000000000000 sync_exception_sp_elx
00000000204e0eb0 g     F .ro	0000000000000014 gicd_write_ispendr
00000000204e480c g     F .ro	000000000000007c setup_mmu_cfg
00000000204e2d0c g     F .ro	0000000000000008 cm_prepare_el3_exit_ns
00000000204ea800 g     F .ro	0000000000000000 sync_exception_sp_el0
00000000204e5360 g     F .ro	0000000000000038 plat_gic_restore
00000000204e15a8 g     F .ro	0000000000000060 gicv3_cpuif_disable
00000000204e38fc g     F .ro	000000000000006c psci_affinity_info
00000000204ebce3 g     O .data	0000000000000078 trdc_a_mbc
00000000204e5018  w    F .ro	0000000000000030 plat_log_get_prefix
00000000204e3968 g     F .ro	0000000000000088 psci_migrate
00000000204e5000 g     F .ro	000000000000000c plat_ic_has_interrupt_type
00000000204e8038 g     F .ro	0000000000000058 trdc_fuse_read
00000000204e63e0 g     F .ro	0000000000000034 dram_pll_init
00000000204e7400 g     F .ro	00000000000000fc gpio_save
00000000204e1050 g     F .ro	000000000000006c gicv3_rdistif_base_addrs_probe
00000000204e74fc g     F .ro	00000000000000b4 gpio_restore
00000000204e2e1c g     F .ro	0000000000000030 per_cpu_by_index_compute
00000000204e8db4 g     F .ro	00000000000000ac el3_exit
00000000204f0980 g       .per_cpu	0000000000000000 __PER_CPU_END__
00000000204e4088 g     F .ro	0000000000000384 psci_setup
00000000204e4898 g     F .ro	000000000000003c init_xlat_tables
00000000204e4f40 g     F .ro	0000000000000028 setup_page_tables
00000000204e4f1c  w    F .ro	0000000000000004 bl31_plat_runtime_setup
00000000204eb000 g       .data	0000000000000000 __DATA_START__
00000000204f0100 g     O .bss	0000000000000008 psci_locks
00000000204e3320 g     F .ro	0000000000000034 psci_find_target_suspend_lvl
00000000204e47ec g     F .ro	0000000000000014 xlat_arch_regime_get_xn_desc
00000000204e0d84 g     F .ro	000000000000001c gicd_set_isenabler
00000000204e4064 g     F .ro	0000000000000024 psci_arch_setup
00000000204e56f4 g     F .ro	000000000000003c ddr_disable_bypass
00000000204e6c44 g     F .ro	00000000000000f4 imx_pwr_domain_on_finish
00000000204e46a4 g     F .ro	000000000000003c psci_system_reset
00000000204e0da0 g     F .ro	0000000000000014 gicd_set_ipriorityr
00000000204e9144 g     F .ro	0000000000000020 memcpy
00000000204e2d98 g     F .ro	000000000000001c pmuv3_init_el3
00000000204e5730 g     F .ro	0000000000000028 ddr_clock_switch
00000000204e3860 g     F .ro	0000000000000094 psci_system_suspend
00000000204eab80 g     F .ro	0000000000000000 serror_sp_elx
00000000204e278c g     F .ro	000000000000007c check_erratum_applies
00000000204e68c8 g     F .ro	000000000000009c dram_exit_retention
00000000204e2038 g     F .ro	0000000000000064 trdc_mda_set_noncpu
00000000204e1414 g     F .ro	0000000000000074 gicv3_distif_init
00000000204ea880 g     F .ro	0000000000000000 irq_sp_el0
00000000204e8aac g     F .ro	00000000000000e8 zero_normalmem
00000000204e30e0 g     F .ro	000000000000005c psci_get_parent_pwr_domain_nodes
00000000204e13c8 g     F .ro	000000000000004c gicv3_driver_init
00000000204f0244 g     O .bss	0000000000000004 dfs_lock
00000000204e4668 g     F .ro	000000000000003c psci_system_off
00000000204e90f4 g     F .ro	0000000000000004 platform_mem_init
00000000204e75b0 g     F .ro	0000000000000040 wdog_save
00000000204eb6d0 g     O .data	0000000000000010 trdc_n_mrc_glbac
00000000204e59c8 g     F .ro	000000000000001c ipg_stop_ack_wait
00000000204ea410 g       .ro	0000000000000000 __pubsub_cm_exited_secure_world_end
00000000204e4888 g     F .ro	0000000000000010 mmap_add
00000000204e0178 g     F .ro	00000000000000c0 bl31_warm_entrypoint
00000000204e7a3c g     F .ro	0000000000000214 imx_pwr_domain_suspend
00000000204e61f4 g     F .ro	0000000000000084 dram_info_init
00000000204e6b5c g     F .ro	000000000000000c plat_get_syscnt_freq2
00000000204e901c  w    F .ro	0000000000000008 plat_panic_handler
00000000204ea378 g       .ro	0000000000000000 __RT_SVC_DESCS_START__
00000000204e6bd8 g     F .ro	0000000000000018 imx_get_sys_suspend_power_state
00000000204e2df8 g     F .ro	0000000000000010 sve_enable_per_world
00000000204ed380 g       .stacks	0000000000000000 __STACKS_END__
00000000204e6dc4 g     F .ro	0000000000000108 peripheral_qchannel_hsk
00000000204e1034 g     F .ro	000000000000001c gicv3_rdistif_mark_core_asleep
00000000204ea410 g       .ro	0000000000000000 __pubsub_psci_suspend_pwrdown_start_end
00000000204f0340 g       .bss	0000000000000000 __PERCPU_BAKERY_LOCK_END__
00000000204e8924 g     F .ro	0000000000000038 clean_dcache_range
00000000204e8d64 g     F .ro	0000000000000050 restore_gp_pmcr_pauth_regs
00000000204e0c28 g     F .ro	0000000000000004 gicv3_distif_post_restore
00000000204e350c g     F .ro	00000000000000fc psci_warmboot_entrypoint
00000000204e2e08 g     F .ro	0000000000000014 sve_disable_per_world
00000000204e0fe8 g     F .ro	000000000000004c gicv3_rdistif_mark_core_awake
00000000204ea410 g       .ro	0000000000000000 __pubsub_cm_exited_normal_world_start
00000000204e9048  w    F .ro	0000000000000010 plat_set_my_stack
00000000204e026c g     F .ro	0000000000000038 cm_set_context_by_index
00000000204ea3d8 g       .ro	0000000000000000 __RT_SVC_DESCS_END__
00000000204e4fb8  w    F .ro	0000000000000048 plat_interrupt_type_to_line
00000000204e8c5c g     F .ro	0000000000000014 cortex_a55_core_pwr_dwn
00000000204eb408 g     O .data	0000000000000040 trdc_mgr_blks
00000000204e8880 g     F .ro	0000000000000030 asm_print_hex
00000000204e6a04 g     F .ro	0000000000000108 bl31_plat_arch_setup
00000000204e2e4c g     F .ro	0000000000000018 per_cpu_cur_compute
00000000204e034c g     F .ro	00000000000000c0 bl31_main
00000000204e6414 g     F .ro	0000000000000018 self_refresh_enter
00000000204f0640 g     O .per_cpu	0000000000000010 psci_cpu_pd_nodes
00000000204e7658 g     F .ro	00000000000000e4 wakeupmix_pwr_down
00000000204e3634 g     F .ro	0000000000000030 psci_pwrdown_cpu_end_terminal
00000000204e8868 g     F .ro	0000000000000018 asm_print_str
00000000204e9024  w    F .ro	0000000000000004 bl31_plat_enable_mmu
00000000204e280c g     F .ro	0000000000000004 cm_init
00000000204e8fc8 g     F .ro	0000000000000054 plat_crash_console_flush
00000000204ea800 g       .ro	0000000000000000 runtime_exceptions
00000000204e7e74 g     F .ro	000000000000005c disable_wdog
00000000204e59e4 g     F .ro	0000000000000044 dram_hwffc_half_speed
00000000204e0ed8 g     F .ro	0000000000000014 gicd_write_nsacr
00000000204e6188 g     F .ro	000000000000006c ddrc_apply_reg_config
00000000204e0eec g     F .ro	0000000000000014 gicr_write_ipriorityr
00000000204ea410 g       .ro	0000000000000000 __pubsub_cm_exited_secure_world_start
00000000204e3608 g     F .ro	0000000000000024 psci_spd_migrate_info
00000000204e6c28 g     F .ro	000000000000001c imx_system_off
00000000204e362c g     F .ro	0000000000000004 psci_print_power_domain_map
00000000204eb000 g       .ro	0000000000000000 __RO_END_UNALIGNED__
00000000204e0000 g       .ro	0000000000000000 RAM_REGION_START
00000000204e5048 g     F .ro	0000000000000028 plat_get_target_pwr_state
00000000204e1cfc g     F .ro	00000000000000a8 console_putc
00000000204e4f30  w    F .ro	0000000000000008 plat_get_soc_name
00000000204e0fb0 g     F .ro	0000000000000038 gicr_set_icfgr
00000000204e180c g     F .ro	00000000000001f4 gicv3_distif_save
00000000204e0dc8 g     F .ro	0000000000000014 gicd_write_icfgr
00000000204e9028  w    F .ro	0000000000000004 plat_handle_el3_ea
00000000204e2f14 g     F .ro	0000000000000074 psci_is_last_on_cpu
00000000204e8efc g     F .ro	0000000000000048 plat_crash_console_init
00000000204eae80 g     F .ro	0000000000000000 irq_aarch32
00000000204e88ec g     F .ro	0000000000000038 flush_dcache_range
00000000204e1e88 g     F .ro	000000000000000c timer_init
00000000204e6964 g     F .ro	00000000000000a0 bl31_early_platform_setup2
00000000204eb7b5 g     O .data	00000000000004b6 trdc_n_mbc
00000000204eb61c g     O .data	0000000000000004 trdc_mgr_num
00000000204e2dec g     F .ro	000000000000000c sve_init_el3
00000000204ea3d8 g       .ro	0000000000000000 __PMF_SVC_DESCS_END__
00000000204ebd60 g       .data	0000000000000000 __RELA_END__
00000000204e7ed0 g     F .ro	0000000000000168 imx_src_handler
00000000204ebd60 g       .data	0000000000000000 __RELA_START__
00000000204fd000 g       .xlat_table	0000000000000000 RAM_REGION_END
00000000204e90e0 g     F .ro	0000000000000004 console_lpuart_flush
00000000204f0650 g       .per_cpu	0000000000000000 __PER_CPU_UNIT_UNALIGNED_END_UNIT__
00000000204e16f0 g     F .ro	000000000000011c gicv3_rdistif_init_restore
00000000204e773c g     F .ro	00000000000000b8 wakeupmix_pwr_up
00000000204e71e0 g     F .ro	00000000000000ec nicmix_pwr_down
00000000204ea980 g     F .ro	0000000000000000 serror_sp_el0
00000000204e8b94 g     F .ro	0000000000000018 cortex_a55_reset_func
00000000204e928c g     F .ro	00000000000004a0 vprintf
00000000204e2724 g     F .ro	0000000000000068 find_erratum_entry
00000000204e0818 g     F .ro	0000000000000094 set_routing_model
00000000204e8658 g     F .ro	0000000000000004 report_unhandled_exception
00000000204e3f80 g     F .ro	00000000000000e4 psci_cpu_on_finish
00000000204e8a90 g     F .ro	0000000000000014 dcsw_op_all
00000000204e38f4 g     F .ro	0000000000000008 psci_cpu_off
00000000204e90f8 g     F .ro	000000000000004c plat_reset_handler
00000000204e5070 g     F .ro	000000000000005c imx_bl31_params_parse
00000000204e8ea4 g     F .ro	0000000000000058 enable_mmu_direct_el3
00000000204e72cc g     F .ro	00000000000000bc nicmix_pwr_up
00000000204e2d58 g     F .ro	0000000000000014 mpam_enable_per_world
00000000204e1488 g     F .ro	0000000000000090 gicv3_rdistif_init
00000000204ea410 g       .ro	0000000000000000 __pubsub_cm_entering_normal_world_end
00000000204e8c70 g     F .ro	0000000000000048 get_cpu_ops_ptr
00000000204e0c6c g     F .ro	0000000000000024 gicv3_apply_errata_wa_2384374
00000000204e0000 g     F .ro	000000000000016c bl31_entrypoint
00000000204e90a8 g     F .ro	0000000000000038 console_lpuart_putc
00000000204e0f00 g     F .ro	0000000000000018 gicr_set_ipriorityr
00000000204e2aac g     F .ro	0000000000000030 cm_init_my_context
00000000204ead80 g     F .ro	0000000000000000 serror_aarch64
00000000204e544c g     F .ro	00000000000000a8 ele_program_bbsm
00000000204e4f9c  w    F .ro	000000000000000c plat_ic_acknowledge_interrupt
00000000204e0f18 g     F .ro	0000000000000028 gicr_clr_igroupr
00000000204e4800 g     F .ro	000000000000000c xlat_arch_current_el
00000000204e1170 g     F .ro	00000000000000ec gicv3_secure_spis_config_props
0000000000000000 g       *ABS*	0000000000000000 __PERCPU_BAKERY_LOCK_SIZE__
00000000204e2dd0 g     F .ro	000000000000001c spe_disable_secure
00000000204f02ff g     O .bss	0000000000000001 restore_all
00000000204e0db4 g     F .ro	0000000000000014 gicd_read_icfgr
00000000204e478c g     F .ro	0000000000000014 xlat_arch_get_pas
00000000204e2318 g     F .ro	00000000000000a4 trdc_mgr_mbc_setup
00000000204e0e2c g     F .ro	0000000000000010 gicd_read_ipriorityr
00000000204e3ce8 g     F .ro	0000000000000124 psci_do_cpu_off
00000000204e6d38 g     F .ro	0000000000000084 imx_pwr_domain_off
00000000204f012c g     O .bss	0000000000000004 psci_caps
00000000204e0424 g     F .ro	0000000000000008 handle_sysreg_trap
00000000204e2810 g     F .ro	00000000000001bc cm_setup_context
00000000204e0000 g       .ro	0000000000000000 __BL31_START__
00000000204eaa80 g     F .ro	0000000000000000 irq_sp_elx
00000000204f0340 g       .bss	0000000000000000 __PMF_PERCPU_TIMESTAMP_END__
00000000204ea900 g     F .ro	0000000000000000 fiq_sp_el0
00000000204ebd5c g       .data	0000000000000000 __DATA_END__
00000000204e8884 g       .ro	0000000000000000 asm_print_hex_bits
00000000204f0340 g       .bss	0000000000000000 __BASE_XLAT_TABLE_START__
00000000204e0d3c g     F .ro	0000000000000024 gicd_set_igrpmodr
00000000204eb710 g     O .data	0000000000000030 trdc_w_mrc
00000000204ea3d8 g       .ro	0000000000000000 __CPU_OPS_START__
00000000204e1e20 g     F .ro	0000000000000068 udelay
00000000204eb760 g     O .data	0000000000000020 trdc_a_mrc
00000000204e2284 g     F .ro	0000000000000094 trdc_mrc_rgn_config
00000000204eb790 g     O .data	0000000000000020 trdc_a_mbc_glbac
00000000204e47a0 g     F .ro	000000000000004c tcr_physical_addr_size_bits
00000000204e125c g     F .ro	0000000000000070 gicv3_ppi_sgi_config_defaults
00000000204e3630 g     F .ro	0000000000000004 psci_pwrdown_cpu_start
00000000204e895c g     F .ro	0000000000000038 inv_dcache_range
00000000204e79a4 g     F .ro	0000000000000098 imx_pwr_domain_on
00000000204e3af4 g     F .ro	000000000000014c psci_smc_handler
00000000204e1f0c g     F .ro	000000000000005c generic_delay_timer_init
00000000204e44b0 g     F .ro	00000000000001b8 psci_cpu_suspend_start
00000000204e2f88 g     F .ro	000000000000003c psci_init_req_local_pwr_states
00000000204ea410 g       .ro	0000000000000000 __pubsub_cm_entering_secure_world_end
00000000204e7168 g     F .ro	0000000000000078 wakeupmix_qos_init
00000000204e8248 g     F .ro	0000000000000078 trdc_w_reinit
00000000204e1ed4 g     F .ro	0000000000000038 generic_delay_timer_init_args
00000000204f0340 g       .bss	0000000000000000 __BAKERY_LOCK_END__
00000000204e3060 g     F .ro	0000000000000080 psci_set_target_local_pwr_states
00000000204e8cb8 g     F .ro	0000000000000010 cpu_get_rev_var
00000000204e7cc8 g     F .ro	00000000000001ac pwr_sys_init
00000000204e3e0c g     F .ro	0000000000000174 psci_cpu_on_start
00000000204e32d4 g     F .ro	000000000000004c psci_find_max_off_lvl
00000000204e491c g     F .ro	00000000000000ec xlat_desc
00000000204e0ce4 g     F .ro	0000000000000034 gicd_set_icfgr
00000000204f0108 g     O .bss	0000000000000020 psci_non_cpu_pd_nodes
00000000204e88b8 g     F .ro	0000000000000004 elx_panic
00000000204f0360 g       .bss	0000000000000000 __BSS_END__
00000000204ea410 g       .ro	0000000000000000 __CPU_OPS_END__
00000000204e266c g     F .ro	00000000000000b8 trdc_try_lockup
00000000204e52b0 g     F .ro	0000000000000040 plat_gic_init
00000000204e0e04 g     F .ro	0000000000000014 gicd_read_igrpmodr
00000000204e2c94 g     F .ro	0000000000000024 cm_set_next_eret_context
00000000204ea410 g       .ro	0000000000000000 __pubsub_cm_entering_secure_world_start
00000000204e0e74 g     F .ro	0000000000000014 gicd_read_isenabler
00000000204e36bc g     F .ro	0000000000000084 psci_cpu_on
00000000204e20c8 g     F .ro	00000000000000a4 trdc_mbc_set_control
00000000204eb604 g     O .data	0000000000000018 fuse_data
00000000204e02d8 g     F .ro	0000000000000074 bl31_prepare_next_image_entry
00000000204e6bf0 g     F .ro	0000000000000038 imx_system_reset
00000000204ebc6b g     O .data	0000000000000078 trdc_w_mbc
00000000204e216c g     F .ro	00000000000000dc trdc_mbc_blk_config
00000000204f0128 g     O .bss	0000000000000004 psci_plat_core_count
00000000204e3a90 g     F .ro	0000000000000064 psci_features
00000000204ea410 g       .ro	0000000000000000 __GOT_END__
00000000204e9780 g     F .ro	0000000000000074 memset
00000000204ea3d8 g       .ro	0000000000000000 __PARSER_LIB_DESCS_END__
00000000204f0340 g       .bss	0000000000000000 __BAKERY_LOCK_START__
00000000204e2fc4 g     F .ro	000000000000009c psci_get_target_local_pwr_states
00000000204e6b7c g     F .ro	000000000000005c imx_validate_power_state
00000000204e2c50 g     F .ro	0000000000000044 cm_write_scr_el3_bit
00000000204f0380 g       .per_cpu	0000000000000000 __PER_CPU_UNIT_START__
00000000204ea410 g       .ro	0000000000000000 __pubsub_cm_exited_normal_world_end
00000000204e53cc g     F .ro	0000000000000080 ele_get_soc_info
00000000204eb750 g     O .data	0000000000000010 trdc_w_mbc_glbac
00000000204ed460 g     O .bss	0000000000000008 psci_plat_pm_ops
00000000204e4f28  w    F .ro	0000000000000008 plat_get_soc_revision
00000000204e2460 g     F .ro	000000000000020c trdc_setup
00000000204ea410 g       .ro	0000000000000000 __pubsub_psci_suspend_pwrdown_start_start
00000000204e7388 g     F .ro	0000000000000078 set_gpio_secure
00000000204e90a0 g     F .ro	0000000000000008 console_lpuart_init
00000000204eb740 g     O .data	0000000000000010 trdc_w_mrc_glbac
00000000204e440c g     F .ro	00000000000000a4 psci_cpu_suspend_to_powerdown_finish
00000000204e4fa8  w    F .ro	0000000000000010 plat_ic_end_of_interrupt
00000000204ea410 g       .ro	0000000000000000 __GOT_START__
00000000204e0f68 g     F .ro	0000000000000028 gicr_clr_igrpmodr
00000000204e02a4 g     F .ro	000000000000000c get_arm_std_svc_args
00000000204ea410 g       .ro	0000000000000000 __pubsub_cm_entering_normal_world_start
0000000000000000 g       *ABS*	0000000000000000 __PERCPU_TIMESTAMP_SIZE__
00000000204e600c g     F .ro	0000000000000078 check_ddrc_idle
00000000204e7004 g     F .ro	000000000000012c imx_set_sys_wakeup
00000000204e2db4 g     F .ro	000000000000001c spe_enable_ns
00000000204e3c40 g     F .ro	0000000000000060 psci_mem_protect
00000000204ea3d8 g       .ro	0000000000000000 __FCONF_POPULATOR_END__
00000000204e6ecc g     F .ro	00000000000000e8 pll_pwr_down
00000000204e2a0c g     F .ro	000000000000009c cm_manage_extensions_per_world
00000000204e678c g     F .ro	00000000000000a4 ddrc_init
00000000204e0914 g     F .ro	000000000000003c get_interrupt_type_handler
00000000204e7ca0 g     F .ro	000000000000000c plat_get_power_domain_tree_desc
00000000204e0e3c g     F .ro	0000000000000010 gicd_write_ipriorityr
00000000204e5758 g     F .ro	0000000000000270 ddr_swffc
00000000204e29cc g     F .ro	0000000000000040 cm_manage_extensions_el3
00000000204ed930 g     O .bss	00000000000027d0 imx_gicv3_ctx
00000000204e3a38 g     F .ro	0000000000000058 psci_node_hw_state
00000000204f0360 g       .bss	0000000000000000 __BASE_XLAT_TABLE_END__
00000000204e6b68 g     F .ro	0000000000000014 imx_validate_ns_entrypoint
00000000204f0380 g       .per_cpu	0000000000000000 __PER_CPU_START__
00000000204e0e60 g     F .ro	0000000000000014 gicd_write_isactiver
00000000204e1dcc g     F .ro	0000000000000054 console_flush
00000000204eab00 g     F .ro	0000000000000000 fiq_sp_elx
00000000204eb000 g       .ro	0000000000000000 __RO_END__
00000000204ed848 g     O .bss	0000000000000008 timing_info
00000000204eac00 g     F .ro	0000000000000000 sync_exception_aarch64
00000000204ead00 g     F .ro	0000000000000000 fiq_aarch64
00000000204e8e88 g     F .ro	000000000000001c per_cpu_base
00000000204e0ddc g     F .ro	0000000000000014 gicd_read_igroupr
00000000204e1cd8 g     F .ro	000000000000000c console_switch_state
00000000204e77f4 g     F .ro	0000000000000198 imx_pwr_domain_suspend_finish
00000000204e513c g     F .ro	0000000000000090 imx_bbsm_handler
00000000204e2808 g     F .ro	0000000000000004 print_errata_status
00000000204e8e80 g     F .ro	0000000000000008 spin_unlock
00000000204e8cc8 g     F .ro	000000000000009c prepare_el3_entry
00000000204ed380 g       .bss	0000000000000000 __BSS_START__
00000000204e0000 g       .ro	0000000000000000 __RO_START__
00000000204e50d8 g     F .ro	0000000000000064 imx_kernel_entry_handler
00000000204e4bd8 g     F .ro	0000000000000230 mmap_add_region_ctx
00000000204ea3d8 g       .ro	0000000000000000 __PMF_SVC_DESCS_START__
00000000204e8f44 g     F .ro	0000000000000084 plat_crash_console_putc
00000000204f0380 g     O .per_cpu	0000000000000040 percpu_data
00000000204e8090 g     F .ro	00000000000001b8 trdc_config
00000000204e0c2c g     F .ro	0000000000000040 gicv3_rdistif_on
00000000204e6830 g     F .ro	0000000000000098 ddrphy_coldreset
00000000204e8e60 g     F .ro	0000000000000020 spin_lock
00000000204e1c78 g     F .ro	000000000000002c console_is_registered
00000000204e1608 g     F .ro	000000000000000c gicv3_get_pending_interrupt_type
00000000204e0f90 g     F .ro	0000000000000020 gicr_set_isenabler
00000000204e644c g     F .ro	000000000000023c dram_enter_retention
00000000204ed440 g     O .bss	0000000000000020 per_world_context
00000000204e532c g     F .ro	0000000000000034 plat_gic_save
00000000204e2f00 g     F .ro	0000000000000014 psci_query_sys_suspend_pwrstate
00000000204e042c g     F .ro	0000000000000284 create_spsr
00000000204eb270 g     O .data	00000000000000c0 fuse_info
00000000204ea35d g     O .ro	0000000000000003 imx_power_domain_tree_desc
00000000204e5318 g     F .ro	0000000000000014 plat_gic_pcpu_init
00000000204e0b34 g     F .ro	0000000000000094 tf_log
00000000204e0f40 g     F .ro	0000000000000028 gicr_set_igrpmodr
00000000204f0680 g       .per_cpu	0000000000000000 __PER_CPU_UNIT_END__
00000000204ea410 g       .ro	0000000000000000 __pubsub_psci_cpu_on_finish_start
00000000204e23bc g     F .ro	00000000000000a4 trdc_mgr_fused_slot_setup
00000000204ea3d8 g       .ro	0000000000000000 __FCONF_POPULATOR_START__
000000000003c000 g       *ABS*	0000000000000000 RAM_REGION_LENGTH
00000000204e07ec g     F .ro	000000000000002c get_scr_el3_from_routing_model
00000000204fd000 g       .xlat_table	0000000000000000 __RW_END__
00000000204eb330 g     O .data	00000000000000d8 trdc_cfg_info
00000000204e6084 g     F .ro	0000000000000104 ddrc_mrs
00000000204e5398 g     F .ro	0000000000000034 imx9_soc_info_handler
00000000204e02b0 g     F .ro	0000000000000028 bl31_warmboot
00000000204e6b0c g     F .ro	0000000000000028 bl31_platform_setup
00000000204ebd80 g       .stacks	0000000000000000 __STACKS_START__
00000000204e798c g     F .ro	0000000000000018 imx_set_cpu_boot_entry
00000000204e1a00 g     F .ro	0000000000000210 gicv3_distif_init_restore
00000000204e31c4 g     F .ro	0000000000000110 psci_do_state_coordination
00000000204e46e0 g     F .ro	00000000000000ac psci_system_reset2
00000000204e48d4 g     F .ro	0000000000000048 enable_mmu_el3
00000000204eaf80 g     F .ro	0000000000000000 serror_aarch32
00000000204e2d70 g     F .ro	0000000000000028 pmuv3_enable
00000000204f0340 g       .bss	0000000000000000 __PMF_TIMESTAMP_END__
00000000204e1c10 g     F .ro	0000000000000068 gicv3_raise_sgi
00000000204e4e44 g     F .ro	00000000000000d0 init_xlat_tables_ctx
00000000204e6dbc g     F .ro	0000000000000004 arm_gicv3_distif_pre_save
00000000204ea410 g       .ro	0000000000000000 __pubsub_psci_suspend_pwrdown_finish_start
00000000204e10d8 g     F .ro	0000000000000098 gicv3_spis_config_defaults
00000000204e0d60 g     F .ro	0000000000000024 gicd_clr_igrpmodr
00000000204eb6e0 g     O .data	0000000000000030 trdc_n_mbc_glbac
00000000204fd000 g       .xlat_table	0000000000000000 __XLAT_TABLE_END__
00000000204e90e4 g     F .ro	0000000000000010 plat_my_core_pos
00000000204e12cc g     F .ro	00000000000000cc gicv3_secure_ppi_sgi_config_props
00000000204e561c g     F .ro	00000000000000d8 ddr_pll_bypass
00000000204e82c0 g     F .ro	000000000000006c trdc_n_reinit
00000000204e0a00 g     F .ro	0000000000000134 runtime_svc_init
00000000204e0e9c g     F .ro	0000000000000014 gicd_read_ispendr
00000000204eac80 g     F .ro	0000000000000000 irq_aarch64
00000000204e39f0 g     F .ro	000000000000001c psci_migrate_info_type
00000000204e2d14 g     F .ro	0000000000000044 cpu_data_init_cpu_ops
00000000204e4f20  w    F .ro	0000000000000008 plat_get_soc_version
00000000204e5abc g     F .ro	0000000000000084 ddr_hwffc
00000000204eb780 g     O .data	0000000000000010 trdc_a_mrc_glbac
00000000204e6fb4 g     F .ro	0000000000000050 s401_request_pwrdown
00000000204e0c24 g     F .ro	0000000000000004 gicv3_distif_pre_save
00000000204e500c  w    F .ro	000000000000000c plat_ic_raise_el3_sgi
00000000204e6688 g     F .ro	0000000000000104 dram_phy_init
00000000204e3ca0 g     F .ro	0000000000000048 psci_mem_chk_range
00000000204e88bc g     F .ro	0000000000000030 el3_panic
00000000204e5304 g     F .ro	0000000000000014 plat_gic_cpuif_disable
00000000204e0d18 g     F .ro	0000000000000024 gicd_clr_igroupr
00000000204e08ac g     F .ro	0000000000000068 register_interrupt_type_handler
00000000204ed408 g     O .bss	0000000000000008 gicv3_driver_data
00000000204e4f14 g     F .ro	0000000000000004 xlat_mmap_print
00000000204e9058 g     F .ro	0000000000000048 console_lpuart_register
00000000204e3354 g     F .ro	000000000000006c psci_acquire_pwr_domain_locks
00000000204e6278 g     F .ro	0000000000000168 dram_dvfs_handler
00000000204e2248 g     F .ro	000000000000003c trdc_mrc_set_control
00000000204ea410 g       .ro	0000000000000000 __pubsub_psci_cpu_on_finish_end
00000000204e0954 g     F .ro	00000000000000ac bl31_params_parse_helper
00000000204ed410 g     O .bss	0000000000000008 console_list
00000000204e313c g     F .ro	0000000000000088 psci_set_pwr_domains_to_run
00000000204e1518 g     F .ro	0000000000000090 gicv3_cpuif_enable
00000000204e6dc0 g     F .ro	0000000000000004 arm_gicv3_distif_post_restore
00000000204e0df0 g     F .ro	0000000000000014 gicd_write_igroupr
00000000204e8658 g       .ro	0000000000000000 report_unhandled_interrupt
00000000204e50cc g     F .ro	000000000000000c imx_buildinfo_handler
00000000204eaf00 g     F .ro	0000000000000000 fiq_aarch32
00000000204f0340 g       .bss	0000000000000000 __PERCPU_BAKERY_LOCK_START__
00000000204e1fb4 g     F .ro	0000000000000084 trdc_mda_set_cpu
00000000204e902c  w    F .ro	000000000000001c plat_get_my_stack
00000000204e0e4c g     F .ro	0000000000000014 gicd_read_isactiver
00000000204e1614 g     F .ro	00000000000000dc gicv3_rdistif_save
00000000204ea3d8 g       .ro	0000000000000000 __PARSER_LIB_DESCS_START__
00000000204ed468 g     O .bss	0000000000000008 psci_spd_pm
00000000204e52a4 g     F .ro	000000000000000c plat_gic_driver_init
00000000204e52f0 g     F .ro	0000000000000014 plat_gic_cpuif_enable



Disassembly of section .ro:

00000000204e0000 <bl31_entrypoint>:
    204e0000:	aa0003f4 	mov	x20, x0
    204e0004:	aa0103f5 	mov	x21, x1
    204e0008:	aa0203f6 	mov	x22, x2
    204e000c:	aa0303f7 	mov	x23, x3
    204e0010:	d2810600 	mov	x0, #0x830                 	// #2096
    204e0014:	f2a618a0 	movk	x0, #0x30c5, lsl #16
    204e0018:	d51e1000 	msr	sctlr_el3, x0
    204e001c:	d5033fdf 	isb
    204e0020:	10053f00 	adr	x0, 204ea800 <sync_exception_sp_el0>
    204e0024:	d51ec000 	msr	vbar_el3, x0
    204e0028:	d5033fdf 	isb
    204e002c:	94002433 	bl	204e90f8 <plat_reset_handler>
    204e0030:	94002310 	bl	204e8c70 <get_cpu_ops_ptr>
    204e0034:	f9400402 	ldr	x2, [x0, #8]
    204e0038:	d63f0040 	blr	x2
    204e003c:	d2820141 	mov	x1, #0x100a                	// #4106
    204e0040:	d53e1000 	mrs	x0, sctlr_el3
    204e0044:	aa010000 	orr	x0, x0, x1
    204e0048:	d51e1000 	msr	sctlr_el3, x0
    204e004c:	d5033fdf 	isb
    204e0050:	94002425 	bl	204e90e4 <plat_my_core_pos>
    204e0054:	9400238d 	bl	204e8e88 <per_cpu_base>
    204e0058:	d51ed040 	msr	tpidr_el3, x0
    204e005c:	d2800600 	mov	x0, #0x30                  	// #48
    204e0060:	d51e1100 	msr	scr_el3, x0
    204e0064:	d2a20000 	mov	x0, #0x10000000            	// #268435456
    204e0068:	d51e1320 	msr	mdcr_el3, x0
    204e006c:	d2a80200 	mov	x0, #0x40100000            	// #1074790400
    204e0070:	d51e1140 	msr	cptr_el3, x0
    204e0074:	d50344ff 	msr	daifclr, #0x4
    204e0078:	d53e132f 	mrs	x15, mdcr_el3
    204e007c:	b27001ef 	orr	x15, x15, #0x10000
    204e0080:	d51e132f 	msr	mdcr_el3, x15
    204e0084:	d53e110f 	mrs	x15, scr_el3
    204e0088:	b27d01ef 	orr	x15, x15, #0x8
    204e008c:	b27701ef 	orr	x15, x15, #0x200
    204e0090:	9257f9ef 	and	x15, x15, #0xfffffeffffffffff
    204e0094:	d51e110f 	msr	scr_el3, x15
    204e0098:	d53b9c0f 	mrs	x15, pmcr_el0
    204e009c:	b27b01ef 	orr	x15, x15, #0x20
    204e00a0:	d51b9c0f 	msr	pmcr_el0, x15
    204e00a4:	d53e114f 	mrs	x15, cptr_el3
    204e00a8:	b27801ef 	orr	x15, x15, #0x100
    204e00ac:	b27401ef 	orr	x15, x15, #0x1000
    204e00b0:	d51e114f 	msr	cptr_el3, x15
    204e00b4:	d5033fdf 	isb
    204e00b8:	9400240f 	bl	204e90f4 <platform_mem_init>
    204e00bc:	f0000040 	adrp	x0, 204eb000 <__RO_END_UNALIGNED__>
    204e00c0:	91000000 	add	x0, x0, #0x0
    204e00c4:	b00000e1 	adrp	x1, 204fd000 <RAM_REGION_END>
    204e00c8:	91000021 	add	x1, x1, #0x0
    204e00cc:	cb000021 	sub	x1, x1, x0
    204e00d0:	94002223 	bl	204e895c <inv_dcache_range>
    204e00d4:	90000080 	adrp	x0, 204f0000 <imx_gicv3_ctx+0x26d0>
    204e00d8:	910e0000 	add	x0, x0, #0x380
    204e00dc:	90000081 	adrp	x1, 204f0000 <imx_gicv3_ctx+0x26d0>
    204e00e0:	91260021 	add	x1, x1, #0x980
    204e00e4:	cb000021 	sub	x1, x1, x0
    204e00e8:	9400226f 	bl	204e8aa4 <zeromem>
    204e00ec:	b0000060 	adrp	x0, 204ed000 <__STACKS_START__+0x1280>
    204e00f0:	910e0000 	add	x0, x0, #0x380
    204e00f4:	90000081 	adrp	x1, 204f0000 <imx_gicv3_ctx+0x26d0>
    204e00f8:	910d8021 	add	x1, x1, #0x360
    204e00fc:	cb000021 	sub	x1, x1, x0
    204e0100:	94002269 	bl	204e8aa4 <zeromem>
    204e0104:	d50040bf 	msr	spsel, #0x0
    204e0108:	940023d0 	bl	204e9048 <plat_set_my_stack>
    204e010c:	aa1403e0 	mov	x0, x20
    204e0110:	aa1503e1 	mov	x1, x21
    204e0114:	aa1603e2 	mov	x2, x22
    204e0118:	aa1703e3 	mov	x3, x23
    204e011c:	9400008c 	bl	204e034c <bl31_main>
    204e0120:	f0000040 	adrp	x0, 204eb000 <__RO_END_UNALIGNED__>
    204e0124:	91000000 	add	x0, x0, #0x0
    204e0128:	f0000041 	adrp	x1, 204eb000 <__RO_END_UNALIGNED__>
    204e012c:	91357021 	add	x1, x1, #0xd5c
    204e0130:	cb000021 	sub	x1, x1, x0
    204e0134:	940021fc 	bl	204e8924 <clean_dcache_range>
    204e0138:	b0000060 	adrp	x0, 204ed000 <__STACKS_START__+0x1280>
    204e013c:	910e0000 	add	x0, x0, #0x380
    204e0140:	90000081 	adrp	x1, 204f0000 <imx_gicv3_ctx+0x26d0>
    204e0144:	910d8021 	add	x1, x1, #0x360
    204e0148:	cb000021 	sub	x1, x1, x0
    204e014c:	940021f6 	bl	204e8924 <clean_dcache_range>
    204e0150:	90000080 	adrp	x0, 204f0000 <imx_gicv3_ctx+0x26d0>
    204e0154:	910e0000 	add	x0, x0, #0x380
    204e0158:	90000081 	adrp	x1, 204f0000 <imx_gicv3_ctx+0x26d0>
    204e015c:	91260021 	add	x1, x1, #0x980
    204e0160:	cb000021 	sub	x1, x1, x0
    204e0164:	940021f0 	bl	204e8924 <clean_dcache_range>
    204e0168:	14002313 	b	204e8db4 <el3_exit>
    204e016c:	d503201f 	nop

00000000204e0170 <stm>:
    204e0170:	5d1b0020 	.word	0x5d1b0020
    204e0174:	00000000 	.word	0x00000000

00000000204e0178 <bl31_warm_entrypoint>:
    204e0178:	d2810600 	mov	x0, #0x830                 	// #2096
    204e017c:	f2a618a0 	movk	x0, #0x30c5, lsl #16
    204e0180:	d51e1000 	msr	sctlr_el3, x0
    204e0184:	d5033fdf 	isb
    204e0188:	100533c0 	adr	x0, 204ea800 <sync_exception_sp_el0>
    204e018c:	d51ec000 	msr	vbar_el3, x0
    204e0190:	d5033fdf 	isb
    204e0194:	940023d9 	bl	204e90f8 <plat_reset_handler>
    204e0198:	940022b6 	bl	204e8c70 <get_cpu_ops_ptr>
    204e019c:	f9400402 	ldr	x2, [x0, #8]
    204e01a0:	d63f0040 	blr	x2
    204e01a4:	d2820141 	mov	x1, #0x100a                	// #4106
    204e01a8:	d53e1000 	mrs	x0, sctlr_el3
    204e01ac:	aa010000 	orr	x0, x0, x1
    204e01b0:	d51e1000 	msr	sctlr_el3, x0
    204e01b4:	d5033fdf 	isb
    204e01b8:	940023cb 	bl	204e90e4 <plat_my_core_pos>
    204e01bc:	94002333 	bl	204e8e88 <per_cpu_base>
    204e01c0:	d51ed040 	msr	tpidr_el3, x0
    204e01c4:	d2800600 	mov	x0, #0x30                  	// #48
    204e01c8:	d51e1100 	msr	scr_el3, x0
    204e01cc:	d2a20000 	mov	x0, #0x10000000            	// #268435456
    204e01d0:	d51e1320 	msr	mdcr_el3, x0
    204e01d4:	d2a80200 	mov	x0, #0x40100000            	// #1074790400
    204e01d8:	d51e1140 	msr	cptr_el3, x0
    204e01dc:	d50344ff 	msr	daifclr, #0x4
    204e01e0:	d53e132f 	mrs	x15, mdcr_el3
    204e01e4:	b27001ef 	orr	x15, x15, #0x10000
    204e01e8:	d51e132f 	msr	mdcr_el3, x15
    204e01ec:	d53e110f 	mrs	x15, scr_el3
    204e01f0:	b27d01ef 	orr	x15, x15, #0x8
    204e01f4:	b27701ef 	orr	x15, x15, #0x200
    204e01f8:	9257f9ef 	and	x15, x15, #0xfffffeffffffffff
    204e01fc:	d51e110f 	msr	scr_el3, x15
    204e0200:	d53b9c0f 	mrs	x15, pmcr_el0
    204e0204:	b27b01ef 	orr	x15, x15, #0x20
    204e0208:	d51b9c0f 	msr	pmcr_el0, x15
    204e020c:	d53e114f 	mrs	x15, cptr_el3
    204e0210:	b27801ef 	orr	x15, x15, #0x100
    204e0214:	b27401ef 	orr	x15, x15, #0x1000
    204e0218:	d51e114f 	msr	cptr_el3, x15
    204e021c:	d5033fdf 	isb
    204e0220:	d50040bf 	msr	spsel, #0x0
    204e0224:	94002389 	bl	204e9048 <plat_set_my_stack>
    204e0228:	aa1f03e0 	mov	x0, xzr
    204e022c:	9400237e 	bl	204e9024 <bl31_plat_enable_mmu>
    204e0230:	94000020 	bl	204e02b0 <bl31_warmboot>
    204e0234:	140022e0 	b	204e8db4 <el3_exit>

00000000204e0238 <cm_get_context>:
    204e0238:	a9be7bfd 	stp	x29, x30, [sp, #-32]!
    204e023c:	910003fd 	mov	x29, sp
    204e0240:	f9000bf3 	str	x19, [sp, #16]
    204e0244:	aa0003f3 	mov	x19, x0
    204e0248:	90000080 	adrp	x0, 204f0000 <imx_gicv3_ctx+0x26d0>
    204e024c:	910e0000 	add	x0, x0, #0x380
    204e0250:	94000aff 	bl	204e2e4c <per_cpu_cur_compute>
    204e0254:	f100027f 	cmp	x19, #0x0
    204e0258:	9a9f07e1 	cset	x1, ne	// ne = any
    204e025c:	f9400bf3 	ldr	x19, [sp, #16]
    204e0260:	f8617800 	ldr	x0, [x0, x1, lsl #3]
    204e0264:	a8c27bfd 	ldp	x29, x30, [sp], #32
    204e0268:	d65f03c0 	ret

00000000204e026c <cm_set_context_by_index>:
    204e026c:	a9be7bfd 	stp	x29, x30, [sp, #-32]!
    204e0270:	910003fd 	mov	x29, sp
    204e0274:	a90153f3 	stp	x19, x20, [sp, #16]
    204e0278:	2a0203f4 	mov	w20, w2
    204e027c:	aa0103f3 	mov	x19, x1
    204e0280:	90000081 	adrp	x1, 204f0000 <imx_gicv3_ctx+0x26d0>
    204e0284:	910e0021 	add	x1, x1, #0x380
    204e0288:	94000ae5 	bl	204e2e1c <per_cpu_by_index_compute>
    204e028c:	7100029f 	cmp	w20, #0x0
    204e0290:	9a9f07e1 	cset	x1, ne	// ne = any
    204e0294:	f8217813 	str	x19, [x0, x1, lsl #3]
    204e0298:	a94153f3 	ldp	x19, x20, [sp, #16]
    204e029c:	a8c27bfd 	ldp	x29, x30, [sp], #32
    204e02a0:	d65f03c0 	ret

00000000204e02a4 <get_arm_std_svc_args>:
    204e02a4:	b0000040 	adrp	x0, 204e9000 <flush_continue>
    204e02a8:	911fe000 	add	x0, x0, #0x7f8
    204e02ac:	d65f03c0 	ret

00000000204e02b0 <bl31_warmboot>:
    204e02b0:	a9be7bfd 	stp	x29, x30, [sp, #-32]!
    204e02b4:	910003fd 	mov	x29, sp
    204e02b8:	f9000bf3 	str	x19, [sp, #16]
    204e02bc:	9400238a 	bl	204e90e4 <plat_my_core_pos>
    204e02c0:	2a0003f3 	mov	w19, w0
    204e02c4:	940009c2 	bl	204e29cc <cm_manage_extensions_el3>
    204e02c8:	2a1303e0 	mov	w0, w19
    204e02cc:	f9400bf3 	ldr	x19, [sp, #16]
    204e02d0:	a8c27bfd 	ldp	x29, x30, [sp], #32
    204e02d4:	14000c8e 	b	204e350c <psci_warmboot_entrypoint>

00000000204e02d8 <bl31_prepare_next_image_entry>:
    204e02d8:	a9be7bfd 	stp	x29, x30, [sp, #-32]!
    204e02dc:	d5380400 	mrs	x0, id_aa64pfr0_el1
    204e02e0:	910003fd 	mov	x29, sp
    204e02e4:	927c0c00 	and	x0, x0, #0xf0
    204e02e8:	a90153f3 	stp	x19, x20, [sp, #16]
    204e02ec:	f100401f 	cmp	x0, #0x10
    204e02f0:	540000c1 	b.ne	204e0308 <bl31_prepare_next_image_entry+0x30>  // b.any
    204e02f4:	d0000040 	adrp	x0, 204ea000 <wakeupmix_irq_mask+0x2c>
    204e02f8:	91009000 	add	x0, x0, #0x24
    204e02fc:	9400020e 	bl	204e0b34 <tf_log>
    204e0300:	940006b3 	bl	204e1dcc <console_flush>
    204e0304:	9400216e 	bl	204e88bc <el3_panic>
    204e0308:	f0000040 	adrp	x0, 204eb000 <__RO_END_UNALIGNED__>
    204e030c:	b9447013 	ldr	w19, [x0, #1136]
    204e0310:	2a1303e0 	mov	w0, w19
    204e0314:	94001a08 	bl	204e6b34 <bl31_plat_get_next_image_ep_info>
    204e0318:	aa0003f4 	mov	x20, x0
    204e031c:	9400018d 	bl	204e0950 <print_entry_point_info>
    204e0320:	aa1403e0 	mov	x0, x20
    204e0324:	940009e2 	bl	204e2aac <cm_init_my_context>
    204e0328:	7100067f 	cmp	w19, #0x1
    204e032c:	54000081 	b.ne	204e033c <bl31_prepare_next_image_entry+0x64>  // b.any
    204e0330:	a94153f3 	ldp	x19, x20, [sp, #16]
    204e0334:	a8c27bfd 	ldp	x29, x30, [sp], #32
    204e0338:	14000a75 	b	204e2d0c <cm_prepare_el3_exit_ns>
    204e033c:	2a1303e0 	mov	w0, w19
    204e0340:	a94153f3 	ldp	x19, x20, [sp, #16]
    204e0344:	a8c27bfd 	ldp	x29, x30, [sp], #32
    204e0348:	14000a5c 	b	204e2cb8 <cm_prepare_el3_exit>

00000000204e034c <bl31_main>:
    204e034c:	a9bc7bfd 	stp	x29, x30, [sp, #-64]!
    204e0350:	910003fd 	mov	x29, sp
    204e0354:	a90153f3 	stp	x19, x20, [sp, #16]
    204e0358:	aa0003f4 	mov	x20, x0
    204e035c:	a9025bf5 	stp	x21, x22, [sp, #32]
    204e0360:	aa0103f5 	mov	x21, x1
    204e0364:	aa0203f6 	mov	x22, x2
    204e0368:	f9001bf7 	str	x23, [sp, #48]
    204e036c:	aa0303f7 	mov	x23, x3
    204e0370:	9400235d 	bl	204e90e4 <plat_my_core_pos>
    204e0374:	2a0003f3 	mov	w19, w0
    204e0378:	aa1703e3 	mov	x3, x23
    204e037c:	aa1603e2 	mov	x2, x22
    204e0380:	aa1503e1 	mov	x1, x21
    204e0384:	aa1403e0 	mov	x0, x20
    204e0388:	94001977 	bl	204e6964 <bl31_early_platform_setup2>
    204e038c:	9400199e 	bl	204e6a04 <bl31_plat_arch_setup>
    204e0390:	2a1303e0 	mov	w0, w19
    204e0394:	d0000053 	adrp	x19, 204ea000 <wakeupmix_irq_mask+0x2c>
    204e0398:	9400098d 	bl	204e29cc <cm_manage_extensions_el3>
    204e039c:	9101d273 	add	x19, x19, #0x74
    204e03a0:	9400099b 	bl	204e2a0c <cm_manage_extensions_per_world>
    204e03a4:	aa1303e0 	mov	x0, x19
    204e03a8:	d0000041 	adrp	x1, 204ea000 <wakeupmix_irq_mask+0x2c>
    204e03ac:	910ca421 	add	x1, x1, #0x329
    204e03b0:	940001e1 	bl	204e0b34 <tf_log>
    204e03b4:	aa1303e0 	mov	x0, x19
    204e03b8:	d0000041 	adrp	x1, 204ea000 <wakeupmix_irq_mask+0x2c>
    204e03bc:	910cec21 	add	x1, x1, #0x33b
    204e03c0:	b0000073 	adrp	x19, 204ed000 <__STACKS_START__+0x1280>
    204e03c4:	940001dc 	bl	204e0b34 <tf_log>
    204e03c8:	940019d1 	bl	204e6b0c <bl31_platform_setup>
    204e03cc:	94000910 	bl	204e280c <cm_init>
    204e03d0:	9400018c 	bl	204e0a00 <runtime_svc_init>
    204e03d4:	f941c260 	ldr	x0, [x19, #896]
    204e03d8:	b4000080 	cbz	x0, 204e03e8 <bl31_main+0x9c>
    204e03dc:	9400067c 	bl	204e1dcc <console_flush>
    204e03e0:	f941c260 	ldr	x0, [x19, #896]
    204e03e4:	d63f0000 	blr	x0
    204e03e8:	97ffffbc 	bl	204e02d8 <bl31_prepare_next_image_entry>
    204e03ec:	940012cc 	bl	204e4f1c <bl31_plat_runtime_setup>
    204e03f0:	94000677 	bl	204e1dcc <console_flush>
    204e03f4:	a94153f3 	ldp	x19, x20, [sp, #16]
    204e03f8:	52800040 	mov	w0, #0x2                   	// #2
    204e03fc:	a9425bf5 	ldp	x21, x22, [sp, #32]
    204e0400:	f9401bf7 	ldr	x23, [sp, #48]
    204e0404:	a8c47bfd 	ldp	x29, x30, [sp], #64
    204e0408:	14000634 	b	204e1cd8 <console_switch_state>

00000000204e040c <is_tge_enabled>:
    204e040c:	d53c1100 	mrs	x0, hcr_el2
    204e0410:	d5380721 	mrs	x1, id_aa64mmfr1_el1
    204e0414:	531b6c00 	ubfx	w0, w0, #27, #1
    204e0418:	72180c3f 	tst	w1, #0xf00
    204e041c:	1a9f1000 	csel	w0, w0, wzr, ne	// ne = any
    204e0420:	d65f03c0 	ret

00000000204e0424 <handle_sysreg_trap>:
    204e0424:	12800000 	mov	w0, #0xffffffff            	// #-1
    204e0428:	d65f03c0 	ret

00000000204e042c <create_spsr>:
    204e042c:	aa0003e2 	mov	x2, x0
    204e0430:	2a0103e4 	mov	w4, w1
    204e0434:	7100083f 	cmp	w1, #0x2
    204e0438:	54000b21 	b.ne	204e059c <create_spsr+0x170>  // b.any
    204e043c:	d53c1005 	mrs	x5, sctlr_el2
    204e0440:	d2800121 	mov	x1, #0x9                   	// #9
    204e0444:	92760440 	and	x0, x2, #0xc00
    204e0448:	12818006 	mov	w6, #0xfffff3ff            	// #-3073
    204e044c:	aa010000 	orr	x0, x0, x1
    204e0450:	b27a0c03 	orr	x3, x0, #0x3c0
    204e0454:	8a060000 	and	x0, x0, x6
    204e0458:	b27a0c00 	orr	x0, x0, #0x3c0
    204e045c:	d5380421 	mrs	x1, id_aa64pfr1_el1
    204e0460:	f2400c3f 	tst	x1, #0xf
    204e0464:	9a831000 	csel	x0, x0, x3, ne	// ne = any
    204e0468:	92740043 	and	x3, x2, #0x1000
    204e046c:	aa000063 	orr	x3, x3, x0
    204e0470:	721c0c3f 	tst	w1, #0xf0
    204e0474:	540000a0 	b.eq	204e0488 <create_spsr+0x5c>  // b.none
    204e0478:	b2740060 	orr	x0, x3, #0x1000
    204e047c:	f25400bf 	tst	x5, #0x100000000000
    204e0480:	9273f863 	and	x3, x3, #0xffffffffffffefff
    204e0484:	9a800063 	csel	x3, x3, x0, eq	// eq = none
    204e0488:	92730040 	and	x0, x2, #0x2000
    204e048c:	aa030000 	orr	x0, x0, x3
    204e0490:	d5380421 	mrs	x1, id_aa64pfr1_el1
    204e0494:	f25c0c3f 	tst	x1, #0xf000000000
    204e0498:	540000a0 	b.eq	204e04ac <create_spsr+0x80>  // b.none
    204e049c:	9272f801 	and	x1, x0, #0xffffffffffffdfff
    204e04a0:	f24200bf 	tst	x5, #0x4000000000000000
    204e04a4:	b2730000 	orr	x0, x0, #0x2000
    204e04a8:	9a810000 	csel	x0, x0, x1, eq	// eq = none
    204e04ac:	926a0043 	and	x3, x2, #0x400000
    204e04b0:	aa000063 	orr	x3, x3, x0
    204e04b4:	d5380720 	mrs	x0, id_aa64mmfr1_el1
    204e04b8:	720c0c1f 	tst	w0, #0xf00000
    204e04bc:	540000a0 	b.eq	204e04d0 <create_spsr+0xa4>  // b.none
    204e04c0:	7100049f 	cmp	w4, #0x1
    204e04c4:	54000721 	b.ne	204e05a8 <create_spsr+0x17c>  // b.any
    204e04c8:	37b80045 	tbnz	w5, #23, 204e04d0 <create_spsr+0xa4>
    204e04cc:	b26a0063 	orr	x3, x3, #0x400000
    204e04d0:	92690041 	and	x1, x2, #0x800000
    204e04d4:	aa030021 	orr	x1, x1, x3
    204e04d8:	d5380740 	mrs	x0, id_aa64mmfr2_el1
    204e04dc:	721c0c1f 	tst	w0, #0xf0
    204e04e0:	54000040 	b.eq	204e04e8 <create_spsr+0xbc>  // b.none
    204e04e4:	9268f821 	and	x1, x1, #0xffffffffff7fffff
    204e04e8:	92680440 	and	x0, x2, #0x3000000
    204e04ec:	aa010000 	orr	x0, x0, x1
    204e04f0:	d5380421 	mrs	x1, id_aa64pfr1_el1
    204e04f4:	d348fc21 	lsr	x1, x1, #8
    204e04f8:	f27f083f 	tst	x1, #0xe
    204e04fc:	54000040 	b.eq	204e0504 <create_spsr+0xd8>  // b.none
    204e0500:	b2670000 	orr	x0, x0, #0x2000000
    204e0504:	92641041 	and	x1, x2, #0x1f0000000
    204e0508:	aa000021 	orr	x1, x1, x0
    204e050c:	d5380520 	mrs	x0, id_aa64dfr1_el1
    204e0510:	f2500c1f 	tst	x0, #0xf000000000000
    204e0514:	54000040 	b.eq	204e051c <create_spsr+0xf0>  // b.none
    204e0518:	b2600021 	orr	x1, x1, #0x100000000
    204e051c:	925f0040 	and	x0, x2, #0x200000000
    204e0520:	aa010000 	orr	x0, x0, x1
    204e0524:	d5380501 	mrs	x1, id_aa64dfr0_el1
    204e0528:	72080c3f 	tst	w1, #0xf000000
    204e052c:	54000040 	b.eq	204e0534 <create_spsr+0x108>  // b.none
    204e0530:	925ef800 	and	x0, x0, #0xfffffffdffffffff
    204e0534:	925e0041 	and	x1, x2, #0x400000000
    204e0538:	aa000021 	orr	x1, x1, x0
    204e053c:	d5380420 	mrs	x0, id_aa64pfr1_el1
    204e0540:	f2540c1f 	tst	x0, #0xf00000000000
    204e0544:	540000e0 	b.eq	204e0560 <create_spsr+0x134>  // b.none
    204e0548:	7100089f 	cmp	w4, #0x2
    204e054c:	54000ac1 	b.ne	204e06a4 <create_spsr+0x278>  // b.any
    204e0550:	d53c2500 	mrs	x0, gcscr_el2
    204e0554:	d3648c00 	lsl	x0, x0, #28
    204e0558:	925e0000 	and	x0, x0, #0x400000000
    204e055c:	aa000021 	orr	x1, x1, x0
    204e0560:	925d0040 	and	x0, x2, #0x800000000
    204e0564:	aa010000 	orr	x0, x0, x1
    204e0568:	d5380621 	mrs	x1, id_aa64isar1_el1
    204e056c:	53082c22 	ubfx	w2, w1, #8, #4
    204e0570:	7100185f 	cmp	w2, #0x6
    204e0574:	54000100 	b.eq	204e0594 <create_spsr+0x168>  // b.none
    204e0578:	53041c21 	ubfx	w1, w1, #4, #4
    204e057c:	7100183f 	cmp	w1, #0x6
    204e0580:	540000a0 	b.eq	204e0594 <create_spsr+0x168>  // b.none
    204e0584:	d5380641 	mrs	x1, id_aa64isar2_el1
    204e0588:	530c3c21 	ubfx	w1, w1, #12, #4
    204e058c:	7100183f 	cmp	w1, #0x6
    204e0590:	540008e1 	b.ne	204e06ac <create_spsr+0x280>  // b.any
    204e0594:	925cf800 	and	x0, x0, #0xfffffff7ffffffff
    204e0598:	d65f03c0 	ret
    204e059c:	d5381005 	mrs	x5, sctlr_el1
    204e05a0:	d28000a1 	mov	x1, #0x5                   	// #5
    204e05a4:	17ffffa8 	b	204e0444 <create_spsr+0x18>
    204e05a8:	7100089f 	cmp	w4, #0x2
    204e05ac:	54fff921 	b.ne	204e04d0 <create_spsr+0xa4>  // b.any
    204e05b0:	a9bf7bfd 	stp	x29, x30, [sp, #-16]!
    204e05b4:	910003fd 	mov	x29, sp
    204e05b8:	97ffff95 	bl	204e040c <is_tge_enabled>
    204e05bc:	36000040 	tbz	w0, #0, 204e05c4 <create_spsr+0x198>
    204e05c0:	36b806a5 	tbz	w5, #23, 204e0694 <create_spsr+0x268>
    204e05c4:	92690041 	and	x1, x2, #0x800000
    204e05c8:	aa030021 	orr	x1, x1, x3
    204e05cc:	d5380740 	mrs	x0, id_aa64mmfr2_el1
    204e05d0:	721c0c1f 	tst	w0, #0xf0
    204e05d4:	54000040 	b.eq	204e05dc <create_spsr+0x1b0>  // b.none
    204e05d8:	9268f821 	and	x1, x1, #0xffffffffff7fffff
    204e05dc:	92680440 	and	x0, x2, #0x3000000
    204e05e0:	aa010000 	orr	x0, x0, x1
    204e05e4:	d5380421 	mrs	x1, id_aa64pfr1_el1
    204e05e8:	d348fc21 	lsr	x1, x1, #8
    204e05ec:	f27f083f 	tst	x1, #0xe
    204e05f0:	54000040 	b.eq	204e05f8 <create_spsr+0x1cc>  // b.none
    204e05f4:	b2670000 	orr	x0, x0, #0x2000000
    204e05f8:	92641041 	and	x1, x2, #0x1f0000000
    204e05fc:	aa000021 	orr	x1, x1, x0
    204e0600:	d5380520 	mrs	x0, id_aa64dfr1_el1
    204e0604:	f2500c1f 	tst	x0, #0xf000000000000
    204e0608:	54000040 	b.eq	204e0610 <create_spsr+0x1e4>  // b.none
    204e060c:	b2600021 	orr	x1, x1, #0x100000000
    204e0610:	925f0040 	and	x0, x2, #0x200000000
    204e0614:	aa010000 	orr	x0, x0, x1
    204e0618:	d5380501 	mrs	x1, id_aa64dfr0_el1
    204e061c:	72080c3f 	tst	w1, #0xf000000
    204e0620:	54000040 	b.eq	204e0628 <create_spsr+0x1fc>  // b.none
    204e0624:	925ef800 	and	x0, x0, #0xfffffffdffffffff
    204e0628:	925e0041 	and	x1, x2, #0x400000000
    204e062c:	aa000021 	orr	x1, x1, x0
    204e0630:	d5380420 	mrs	x0, id_aa64pfr1_el1
    204e0634:	f2540c1f 	tst	x0, #0xf00000000000
    204e0638:	540000e0 	b.eq	204e0654 <create_spsr+0x228>  // b.none
    204e063c:	7100089f 	cmp	w4, #0x2
    204e0640:	540002e1 	b.ne	204e069c <create_spsr+0x270>  // b.any
    204e0644:	d53c2500 	mrs	x0, gcscr_el2
    204e0648:	d3648c00 	lsl	x0, x0, #28
    204e064c:	925e0000 	and	x0, x0, #0x400000000
    204e0650:	aa000021 	orr	x1, x1, x0
    204e0654:	925d0040 	and	x0, x2, #0x800000000
    204e0658:	aa010000 	orr	x0, x0, x1
    204e065c:	d5380621 	mrs	x1, id_aa64isar1_el1
    204e0660:	53082c22 	ubfx	w2, w1, #8, #4
    204e0664:	7100185f 	cmp	w2, #0x6
    204e0668:	54000100 	b.eq	204e0688 <create_spsr+0x25c>  // b.none
    204e066c:	53041c21 	ubfx	w1, w1, #4, #4
    204e0670:	7100183f 	cmp	w1, #0x6
    204e0674:	540000a0 	b.eq	204e0688 <create_spsr+0x25c>  // b.none
    204e0678:	d5380641 	mrs	x1, id_aa64isar2_el1
    204e067c:	530c3c21 	ubfx	w1, w1, #12, #4
    204e0680:	7100183f 	cmp	w1, #0x6
    204e0684:	54000041 	b.ne	204e068c <create_spsr+0x260>  // b.any
    204e0688:	925cf800 	and	x0, x0, #0xfffffff7ffffffff
    204e068c:	a8c17bfd 	ldp	x29, x30, [sp], #16
    204e0690:	d65f03c0 	ret
    204e0694:	b26a0063 	orr	x3, x3, #0x400000
    204e0698:	17ffffcb 	b	204e05c4 <create_spsr+0x198>
    204e069c:	d5382500 	mrs	x0, gcscr_el1
    204e06a0:	17ffffea 	b	204e0648 <create_spsr+0x21c>
    204e06a4:	d5382500 	mrs	x0, gcscr_el1
    204e06a8:	17ffffab 	b	204e0554 <create_spsr+0x128>
    204e06ac:	d65f03c0 	ret

00000000204e06b0 <inject_undef64>:
    204e06b0:	91040008 	add	x8, x0, #0x100
    204e06b4:	a9bf7bfd 	stp	x29, x30, [sp, #-16]!
    204e06b8:	910003fd 	mov	x29, sp
    204e06bc:	a9411502 	ldp	x2, x5, [x8, #16]
    204e06c0:	f9408003 	ldr	x3, [x0, #256]
    204e06c4:	53020c44 	ubfx	w4, w2, #2, #2
    204e06c8:	371802a2 	tbnz	w2, #3, 204e071c <inject_undef64+0x6c>
    204e06cc:	97ffff50 	bl	204e040c <is_tge_enabled>
    204e06d0:	36000440 	tbz	w0, #0, 204e0758 <inject_undef64+0xa8>
    204e06d4:	92404860 	and	x0, x3, #0x7ffff
    204e06d8:	926eb800 	and	x0, x0, #0xfffffffffffc0001
    204e06dc:	b40003e0 	cbz	x0, 204e0758 <inject_undef64+0xa8>
    204e06e0:	d51c4025 	msr	elr_el2, x5
    204e06e4:	d53cc007 	mrs	x7, vbar_el2
    204e06e8:	7100089f 	cmp	w4, #0x2
    204e06ec:	54000321 	b.ne	204e0750 <inject_undef64+0xa0>  // b.any
    204e06f0:	36000042 	tbz	w2, #0, 204e06f8 <inject_undef64+0x48>
    204e06f4:	910800e7 	add	x7, x7, #0x200
    204e06f8:	d2a04000 	mov	x0, #0x2000000             	// #33554432
    204e06fc:	d51c5200 	msr	esr_el2, x0
    204e0700:	d51c4002 	msr	spsr_el2, x2
    204e0704:	52800041 	mov	w1, #0x2                   	// #2
    204e0708:	aa0203e0 	mov	x0, x2
    204e070c:	97ffff48 	bl	204e042c <create_spsr>
    204e0710:	a9011d00 	stp	x0, x7, [x8, #16]
    204e0714:	a8c17bfd 	ldp	x29, x30, [sp], #16
    204e0718:	d65f03c0 	ret
    204e071c:	7100089f 	cmp	w4, #0x2
    204e0720:	54fffe00 	b.eq	204e06e0 <inject_undef64+0x30>  // b.none
    204e0724:	2a0403e1 	mov	w1, w4
    204e0728:	d5184025 	msr	elr_el1, x5
    204e072c:	d538c007 	mrs	x7, vbar_el1
    204e0730:	6b01009f 	cmp	w4, w1
    204e0734:	54000161 	b.ne	204e0760 <inject_undef64+0xb0>  // b.any
    204e0738:	36000042 	tbz	w2, #0, 204e0740 <inject_undef64+0x90>
    204e073c:	910800e7 	add	x7, x7, #0x200
    204e0740:	d2a04000 	mov	x0, #0x2000000             	// #33554432
    204e0744:	d5185200 	msr	esr_el1, x0
    204e0748:	d5184002 	msr	spsr_el1, x2
    204e074c:	17ffffef 	b	204e0708 <inject_undef64+0x58>
    204e0750:	911000e7 	add	x7, x7, #0x400
    204e0754:	17ffffe9 	b	204e06f8 <inject_undef64+0x48>
    204e0758:	52800021 	mov	w1, #0x1                   	// #1
    204e075c:	17fffff3 	b	204e0728 <inject_undef64+0x78>
    204e0760:	911000e7 	add	x7, x7, #0x400
    204e0764:	17fffff7 	b	204e0740 <inject_undef64+0x90>

00000000204e0768 <set_scr_el3_from_rm>:
    204e0768:	a9bd7bfd 	stp	x29, x30, [sp, #-48]!
    204e076c:	1ac22421 	lsr	w1, w1, w2
    204e0770:	910003fd 	mov	x29, sp
    204e0774:	a90153f3 	stp	x19, x20, [sp, #16]
    204e0778:	2a0003f3 	mov	w19, w0
    204e077c:	2a0203f4 	mov	w20, w2
    204e0780:	d37e7e73 	ubfiz	x19, x19, #2, #32
    204e0784:	a9025bf5 	stp	x21, x22, [sp, #32]
    204e0788:	8b344273 	add	x19, x19, w20, uxtw
    204e078c:	12000035 	and	w21, w1, #0x1
    204e0790:	2a0203e1 	mov	w1, w2
    204e0794:	94001209 	bl	204e4fb8 <plat_interrupt_type_to_line>
    204e0798:	2a0003f6 	mov	w22, w0
    204e079c:	b0000060 	adrp	x0, 204ed000 <__STACKS_START__+0x1280>
    204e07a0:	910e2000 	add	x0, x0, #0x388
    204e07a4:	8b130c13 	add	x19, x0, x19, lsl #3
    204e07a8:	2a1503e0 	mov	w0, w21
    204e07ac:	9ad62000 	lsl	x0, x0, x22
    204e07b0:	f9000660 	str	x0, [x19, #8]
    204e07b4:	2a1403e0 	mov	w0, w20
    204e07b8:	97fffea0 	bl	204e0238 <cm_get_context>
    204e07bc:	b4000100 	cbz	x0, 204e07dc <set_scr_el3_from_rm+0x74>
    204e07c0:	2a1503e2 	mov	w2, w21
    204e07c4:	2a1603e1 	mov	w1, w22
    204e07c8:	a9425bf5 	ldp	x21, x22, [sp, #32]
    204e07cc:	2a1403e0 	mov	w0, w20
    204e07d0:	a94153f3 	ldp	x19, x20, [sp, #16]
    204e07d4:	a8c37bfd 	ldp	x29, x30, [sp], #48
    204e07d8:	1400091e 	b	204e2c50 <cm_write_scr_el3_bit>
    204e07dc:	a94153f3 	ldp	x19, x20, [sp, #16]
    204e07e0:	a9425bf5 	ldp	x21, x22, [sp, #32]
    204e07e4:	a8c37bfd 	ldp	x29, x30, [sp], #48
    204e07e8:	d65f03c0 	ret

00000000204e07ec <get_scr_el3_from_routing_model>:
    204e07ec:	b0000061 	adrp	x1, 204ed000 <__STACKS_START__+0x1280>
    204e07f0:	910e2021 	add	x1, x1, #0x388
    204e07f4:	8b000c22 	add	x2, x1, x0, lsl #3
    204e07f8:	8b000c23 	add	x3, x1, x0, lsl #3
    204e07fc:	8b000c20 	add	x0, x1, x0, lsl #3
    204e0800:	f9400463 	ldr	x3, [x3, #8]
    204e0804:	f9402442 	ldr	x2, [x2, #72]
    204e0808:	f9401400 	ldr	x0, [x0, #40]
    204e080c:	aa030042 	orr	x2, x2, x3
    204e0810:	aa000040 	orr	x0, x2, x0
    204e0814:	d65f03c0 	ret

00000000204e0818 <set_routing_model>:
    204e0818:	a9be7bfd 	stp	x29, x30, [sp, #-32]!
    204e081c:	910003fd 	mov	x29, sp
    204e0820:	a90153f3 	stp	x19, x20, [sp, #16]
    204e0824:	2a0003f3 	mov	w19, w0
    204e0828:	2a0103f4 	mov	w20, w1
    204e082c:	940011f5 	bl	204e5000 <plat_ic_has_interrupt_type>
    204e0830:	36000340 	tbz	w0, #0, 204e0898 <set_routing_model+0x80>
    204e0834:	12000680 	and	w0, w20, #0x3
    204e0838:	350002b3 	cbnz	w19, 204e088c <set_routing_model+0x74>
    204e083c:	51000800 	sub	w0, w0, #0x2
    204e0840:	7100041f 	cmp	w0, #0x1
    204e0844:	540002a8 	b.hi	204e0898 <set_routing_model+0x80>  // b.pmore
    204e0848:	d37b7e61 	ubfiz	x1, x19, #5, #32
    204e084c:	b0000060 	adrp	x0, 204ed000 <__STACKS_START__+0x1280>
    204e0850:	910e2000 	add	x0, x0, #0x388
    204e0854:	52800002 	mov	w2, #0x0                   	// #0
    204e0858:	8b010000 	add	x0, x0, x1
    204e085c:	2a1403e1 	mov	w1, w20
    204e0860:	b9001814 	str	w20, [x0, #24]
    204e0864:	2a1303e0 	mov	w0, w19
    204e0868:	97ffffc0 	bl	204e0768 <set_scr_el3_from_rm>
    204e086c:	2a1303e0 	mov	w0, w19
    204e0870:	2a1403e1 	mov	w1, w20
    204e0874:	52800022 	mov	w2, #0x1                   	// #1
    204e0878:	97ffffbc 	bl	204e0768 <set_scr_el3_from_rm>
    204e087c:	52800000 	mov	w0, #0x0                   	// #0
    204e0880:	a94153f3 	ldp	x19, x20, [sp, #16]
    204e0884:	a8c27bfd 	ldp	x29, x30, [sp], #32
    204e0888:	d65f03c0 	ret
    204e088c:	71000a7f 	cmp	w19, #0x2
    204e0890:	54000081 	b.ne	204e08a0 <set_routing_model+0x88>  // b.any
    204e0894:	360ffdb4 	tbz	w20, #1, 204e0848 <set_routing_model+0x30>
    204e0898:	128002a0 	mov	w0, #0xffffffea            	// #-22
    204e089c:	17fffff9 	b	204e0880 <set_routing_model+0x68>
    204e08a0:	7100067f 	cmp	w19, #0x1
    204e08a4:	54fffcc0 	b.eq	204e083c <set_routing_model+0x24>  // b.none
    204e08a8:	17fffffc 	b	204e0898 <set_routing_model+0x80>

00000000204e08ac <register_interrupt_type_handler>:
    204e08ac:	a9bd7bfd 	stp	x29, x30, [sp, #-48]!
    204e08b0:	910003fd 	mov	x29, sp
    204e08b4:	a90153f3 	stp	x19, x20, [sp, #16]
    204e08b8:	f90013f5 	str	x21, [sp, #32]
    204e08bc:	aa0103f5 	mov	x21, x1
    204e08c0:	b4000221 	cbz	x1, 204e0904 <register_interrupt_type_handler+0x58>
    204e08c4:	2a0203e1 	mov	w1, w2
    204e08c8:	71000c5f 	cmp	w2, #0x3
    204e08cc:	540001c8 	b.hi	204e0904 <register_interrupt_type_handler+0x58>  // b.pmore
    204e08d0:	2a0003f3 	mov	w19, w0
    204e08d4:	b0000074 	adrp	x20, 204ed000 <__STACKS_START__+0x1280>
    204e08d8:	910e2294 	add	x20, x20, #0x388
    204e08dc:	d37b7e73 	ubfiz	x19, x19, #5, #32
    204e08e0:	f8736a82 	ldr	x2, [x20, x19]
    204e08e4:	b5000142 	cbnz	x2, 204e090c <register_interrupt_type_handler+0x60>
    204e08e8:	97ffffcc 	bl	204e0818 <set_routing_model>
    204e08ec:	35000040 	cbnz	w0, 204e08f4 <register_interrupt_type_handler+0x48>
    204e08f0:	f8336a95 	str	x21, [x20, x19]
    204e08f4:	a94153f3 	ldp	x19, x20, [sp, #16]
    204e08f8:	f94013f5 	ldr	x21, [sp, #32]
    204e08fc:	a8c37bfd 	ldp	x29, x30, [sp], #48
    204e0900:	d65f03c0 	ret
    204e0904:	128002a0 	mov	w0, #0xffffffea            	// #-22
    204e0908:	17fffffb 	b	204e08f4 <register_interrupt_type_handler+0x48>
    204e090c:	12800480 	mov	w0, #0xffffffdb            	// #-37
    204e0910:	17fffff9 	b	204e08f4 <register_interrupt_type_handler+0x48>

00000000204e0914 <get_interrupt_type_handler>:
    204e0914:	a9be7bfd 	stp	x29, x30, [sp, #-32]!
    204e0918:	910003fd 	mov	x29, sp
    204e091c:	f9000bf3 	str	x19, [sp, #16]
    204e0920:	2a0003f3 	mov	w19, w0
    204e0924:	940011b7 	bl	204e5000 <plat_ic_has_interrupt_type>
    204e0928:	36000100 	tbz	w0, #0, 204e0948 <get_interrupt_type_handler+0x34>
    204e092c:	d37b7e73 	ubfiz	x19, x19, #5, #32
    204e0930:	b0000060 	adrp	x0, 204ed000 <__STACKS_START__+0x1280>
    204e0934:	910e2000 	add	x0, x0, #0x388
    204e0938:	f8736800 	ldr	x0, [x0, x19]
    204e093c:	f9400bf3 	ldr	x19, [sp, #16]
    204e0940:	a8c27bfd 	ldp	x29, x30, [sp], #32
    204e0944:	d65f03c0 	ret
    204e0948:	d2800000 	mov	x0, #0x0                   	// #0
    204e094c:	17fffffc 	b	204e093c <get_interrupt_type_handler+0x28>

00000000204e0950 <print_entry_point_info>:
    204e0950:	d65f03c0 	ret

00000000204e0954 <bl31_params_parse_helper>:
    204e0954:	a9bd7bfd 	stp	x29, x30, [sp, #-48]!
    204e0958:	910003fd 	mov	x29, sp
    204e095c:	a90153f3 	stp	x19, x20, [sp, #16]
    204e0960:	aa0003f3 	mov	x19, x0
    204e0964:	aa0103f4 	mov	x20, x1
    204e0968:	f90013f5 	str	x21, [sp, #32]
    204e096c:	aa0203f5 	mov	x21, x2
    204e0970:	39400400 	ldrb	w0, [x0, #1]
    204e0974:	7100041f 	cmp	w0, #0x1
    204e0978:	540001e1 	b.ne	204e09b4 <bl31_params_parse_helper+0x60>  // b.any
    204e097c:	b40000a1 	cbz	x1, 204e0990 <bl31_params_parse_helper+0x3c>
    204e0980:	aa0103e0 	mov	x0, x1
    204e0984:	d2800b02 	mov	x2, #0x58                  	// #88
    204e0988:	f9400a61 	ldr	x1, [x19, #16]
    204e098c:	940021ee 	bl	204e9144 <memcpy>
    204e0990:	b40000b5 	cbz	x21, 204e09a4 <bl31_params_parse_helper+0x50>
    204e0994:	f9401261 	ldr	x1, [x19, #32]
    204e0998:	aa1503e0 	mov	x0, x21
    204e099c:	d2800b02 	mov	x2, #0x58                  	// #88
    204e09a0:	940021e9 	bl	204e9144 <memcpy>
    204e09a4:	a94153f3 	ldp	x19, x20, [sp, #16]
    204e09a8:	f94013f5 	ldr	x21, [sp, #32]
    204e09ac:	a8c37bfd 	ldp	x29, x30, [sp], #48
    204e09b0:	d65f03c0 	ret
    204e09b4:	f9400673 	ldr	x19, [x19, #8]
    204e09b8:	b4ffff73 	cbz	x19, 204e09a4 <bl31_params_parse_helper+0x50>
    204e09bc:	b9400260 	ldr	w0, [x19]
    204e09c0:	7100101f 	cmp	w0, #0x4
    204e09c4:	54000101 	b.ne	204e09e4 <bl31_params_parse_helper+0x90>  // b.any
    204e09c8:	b40000b4 	cbz	x20, 204e09dc <bl31_params_parse_helper+0x88>
    204e09cc:	f9400a61 	ldr	x1, [x19, #16]
    204e09d0:	aa1403e0 	mov	x0, x20
    204e09d4:	d2800b02 	mov	x2, #0x58                  	// #88
    204e09d8:	940021db 	bl	204e9144 <memcpy>
    204e09dc:	f9400e73 	ldr	x19, [x19, #24]
    204e09e0:	17fffff6 	b	204e09b8 <bl31_params_parse_helper+0x64>
    204e09e4:	7100141f 	cmp	w0, #0x5
    204e09e8:	54ffffa1 	b.ne	204e09dc <bl31_params_parse_helper+0x88>  // b.any
    204e09ec:	b4ffff95 	cbz	x21, 204e09dc <bl31_params_parse_helper+0x88>
    204e09f0:	f9400a61 	ldr	x1, [x19, #16]
    204e09f4:	aa1503e0 	mov	x0, x21
    204e09f8:	d2800b02 	mov	x2, #0x58                  	// #88
    204e09fc:	17fffff7 	b	204e09d8 <bl31_params_parse_helper+0x84>

00000000204e0a00 <runtime_svc_init>:
    204e0a00:	a9bb7bfd 	stp	x29, x30, [sp, #-80]!
    204e0a04:	910003fd 	mov	x29, sp
    204e0a08:	a90153f3 	stp	x19, x20, [sp, #16]
    204e0a0c:	d0000054 	adrp	x20, 204ea000 <wakeupmix_irq_mask+0x2c>
    204e0a10:	910f6294 	add	x20, x20, #0x3d8
    204e0a14:	a9025bf5 	stp	x21, x22, [sp, #32]
    204e0a18:	d0000055 	adrp	x21, 204ea000 <wakeupmix_irq_mask+0x2c>
    204e0a1c:	910de2b5 	add	x21, x21, #0x378
    204e0a20:	cb150294 	sub	x20, x20, x21
    204e0a24:	a90363f7 	stp	x23, x24, [sp, #48]
    204e0a28:	f90023f9 	str	x25, [sp, #64]
    204e0a2c:	f1007e9f 	cmp	x20, #0x1f
    204e0a30:	54000569 	b.ls	204e0adc <runtime_svc_init+0xdc>  // b.plast
    204e0a34:	d0000057 	adrp	x23, 204ea000 <wakeupmix_irq_mask+0x2c>
    204e0a38:	d345fe94 	lsr	x20, x20, #5
    204e0a3c:	91029ef7 	add	x23, x23, #0xa7
    204e0a40:	52800018 	mov	w24, #0x0                   	// #0
    204e0a44:	d2800013 	mov	x19, #0x0                   	// #0
    204e0a48:	90000096 	adrp	x22, 204f0000 <imx_gicv3_ctx+0x26d0>
    204e0a4c:	9109e2d6 	add	x22, x22, #0x278
    204e0a50:	d2801002 	mov	x2, #0x80                  	// #128
    204e0a54:	aa1603e0 	mov	x0, x22
    204e0a58:	12800001 	mov	w1, #0xffffffff            	// #-1
    204e0a5c:	94002349 	bl	204e9780 <memset>
    204e0a60:	d37bea79 	lsl	x25, x19, #5
    204e0a64:	8b1316b3 	add	x19, x21, x19, lsl #5
    204e0a68:	38796aa1 	ldrb	w1, [x21, x25]
    204e0a6c:	39400660 	ldrb	w0, [x19, #1]
    204e0a70:	6b00003f 	cmp	w1, w0
    204e0a74:	54000148 	b.hi	204e0a9c <runtime_svc_init+0x9c>  // b.pmore
    204e0a78:	7100fc1f 	cmp	w0, #0x3f
    204e0a7c:	54000108 	b.hi	204e0a9c <runtime_svc_init+0x9c>  // b.pmore
    204e0a80:	39400a60 	ldrb	w0, [x19, #2]
    204e0a84:	7100041f 	cmp	w0, #0x1
    204e0a88:	540000a8 	b.hi	204e0a9c <runtime_svc_init+0x9c>  // b.pmore
    204e0a8c:	f9400a60 	ldr	x0, [x19, #16]
    204e0a90:	b5000120 	cbnz	x0, 204e0ab4 <runtime_svc_init+0xb4>
    204e0a94:	f9400e60 	ldr	x0, [x19, #24]
    204e0a98:	b50002e0 	cbnz	x0, 204e0af4 <runtime_svc_init+0xf4>
    204e0a9c:	aa1303e1 	mov	x1, x19
    204e0aa0:	d0000040 	adrp	x0, 204ea000 <wakeupmix_irq_mask+0x2c>
    204e0aa4:	9101fc00 	add	x0, x0, #0x7f
    204e0aa8:	94000023 	bl	204e0b34 <tf_log>
    204e0aac:	940004c8 	bl	204e1dcc <console_flush>
    204e0ab0:	94001f83 	bl	204e88bc <el3_panic>
    204e0ab4:	d63f0000 	blr	x0
    204e0ab8:	340001e0 	cbz	w0, 204e0af4 <runtime_svc_init+0xf4>
    204e0abc:	f9400661 	ldr	x1, [x19, #8]
    204e0ac0:	aa1703e0 	mov	x0, x23
    204e0ac4:	9400001c 	bl	204e0b34 <tf_log>
    204e0ac8:	11000700 	add	w0, w24, #0x1
    204e0acc:	12001c18 	and	w24, w0, #0xff
    204e0ad0:	92401c13 	and	x19, x0, #0xff
    204e0ad4:	eb20029f 	cmp	x20, w0, uxtb
    204e0ad8:	54fffc48 	b.hi	204e0a60 <runtime_svc_init+0x60>  // b.pmore
    204e0adc:	a94153f3 	ldp	x19, x20, [sp, #16]
    204e0ae0:	a9425bf5 	ldp	x21, x22, [sp, #32]
    204e0ae4:	a94363f7 	ldp	x23, x24, [sp, #48]
    204e0ae8:	f94023f9 	ldr	x25, [sp, #64]
    204e0aec:	a8c57bfd 	ldp	x29, x30, [sp], #80
    204e0af0:	d65f03c0 	ret
    204e0af4:	39400a63 	ldrb	w3, [x19, #2]
    204e0af8:	38796aa1 	ldrb	w1, [x21, x25]
    204e0afc:	39400662 	ldrb	w2, [x19, #1]
    204e0b00:	531a0063 	ubfiz	w3, w3, #6, #1
    204e0b04:	12001421 	and	w1, w1, #0x3f
    204e0b08:	2a030020 	orr	w0, w1, w3
    204e0b0c:	12001442 	and	w2, w2, #0x3f
    204e0b10:	2a0003e1 	mov	w1, w0
    204e0b14:	2a030042 	orr	w2, w2, w3
    204e0b18:	8b0002c0 	add	x0, x22, x0
    204e0b1c:	6b02003f 	cmp	w1, w2
    204e0b20:	54fffd48 	b.hi	204e0ac8 <runtime_svc_init+0xc8>  // b.pmore
    204e0b24:	11000421 	add	w1, w1, #0x1
    204e0b28:	38001418 	strb	w24, [x0], #1
    204e0b2c:	12001c21 	and	w1, w1, #0xff
    204e0b30:	17fffffb 	b	204e0b1c <runtime_svc_init+0x11c>

00000000204e0b34 <tf_log>:
    204e0b34:	a9b67bfd 	stp	x29, x30, [sp, #-160]!
    204e0b38:	910003fd 	mov	x29, sp
    204e0b3c:	a90153f3 	stp	x19, x20, [sp, #16]
    204e0b40:	aa0003f4 	mov	x20, x0
    204e0b44:	a9068be1 	stp	x1, x2, [sp, #104]
    204e0b48:	f0000041 	adrp	x1, 204eb000 <__RO_END_UNALIGNED__>
    204e0b4c:	a90793e3 	stp	x3, x4, [sp, #120]
    204e0b50:	b9447421 	ldr	w1, [x1, #1140]
    204e0b54:	a9089be5 	stp	x5, x6, [sp, #136]
    204e0b58:	f9004fe7 	str	x7, [sp, #152]
    204e0b5c:	39400000 	ldrb	w0, [x0]
    204e0b60:	6b00003f 	cmp	w1, w0
    204e0b64:	54000263 	b.cc	204e0bb0 <tf_log+0x7c>  // b.lo, b.ul, b.last
    204e0b68:	9400112c 	bl	204e5018 <plat_log_get_prefix>
    204e0b6c:	aa0003f3 	mov	x19, x0
    204e0b70:	39400260 	ldrb	w0, [x19]
    204e0b74:	35000240 	cbnz	w0, 204e0bbc <tf_log+0x88>
    204e0b78:	910283e0 	add	x0, sp, #0xa0
    204e0b7c:	a90403e0 	stp	x0, x0, [sp, #64]
    204e0b80:	910183e0 	add	x0, sp, #0x60
    204e0b84:	f9002be0 	str	x0, [sp, #80]
    204e0b88:	128006e0 	mov	w0, #0xffffffc8            	// #-56
    204e0b8c:	b9005be0 	str	w0, [sp, #88]
    204e0b90:	b9005fff 	str	wzr, [sp, #92]
    204e0b94:	a94407e0 	ldp	x0, x1, [sp, #64]
    204e0b98:	a90207e0 	stp	x0, x1, [sp, #32]
    204e0b9c:	a94507e0 	ldp	x0, x1, [sp, #80]
    204e0ba0:	a90307e0 	stp	x0, x1, [sp, #48]
    204e0ba4:	910083e1 	add	x1, sp, #0x20
    204e0ba8:	91000680 	add	x0, x20, #0x1
    204e0bac:	940021b8 	bl	204e928c <vprintf>
    204e0bb0:	a94153f3 	ldp	x19, x20, [sp, #16]
    204e0bb4:	a8ca7bfd 	ldp	x29, x30, [sp], #160
    204e0bb8:	d65f03c0 	ret
    204e0bbc:	91000673 	add	x19, x19, #0x1
    204e0bc0:	94000479 	bl	204e1da4 <putchar>
    204e0bc4:	17ffffeb 	b	204e0b70 <tf_log+0x3c>

00000000204e0bc8 <gicr_wait_group_not_in_transit>:
    204e0bc8:	b9402401 	ldr	w1, [x0, #36]
    204e0bcc:	53037c22 	lsr	w2, w1, #3
    204e0bd0:	4a410841 	eor	w1, w2, w1, lsr #2
    204e0bd4:	3707ffa1 	tbnz	w1, #0, 204e0bc8 <gicr_wait_group_not_in_transit>
    204e0bd8:	d65f03c0 	ret

00000000204e0bdc <gicv3_redists_need_power_mgmt>:
    204e0bdc:	b9400400 	ldr	w0, [x0, #4]
    204e0be0:	52808761 	mov	w1, #0x43b                 	// #1083
    204e0be4:	72a04001 	movk	w1, #0x200, lsl #16
    204e0be8:	12074802 	and	w2, w0, #0xfe000fff
    204e0bec:	6b01005f 	cmp	w2, w1
    204e0bf0:	54000160 	b.eq	204e0c1c <gicv3_redists_need_power_mgmt+0x40>  // b.none
    204e0bf4:	52808761 	mov	w1, #0x43b                 	// #1083
    204e0bf8:	12084c00 	and	w0, w0, #0xff000fff
    204e0bfc:	72a08001 	movk	w1, #0x400, lsl #16
    204e0c00:	6b01001f 	cmp	w0, w1
    204e0c04:	540000c0 	b.eq	204e0c1c <gicv3_redists_need_power_mgmt+0x40>  // b.none
    204e0c08:	52808761 	mov	w1, #0x43b                 	// #1083
    204e0c0c:	72a0e001 	movk	w1, #0x700, lsl #16
    204e0c10:	6b01001f 	cmp	w0, w1
    204e0c14:	1a9f17e0 	cset	w0, eq	// eq = none
    204e0c18:	d65f03c0 	ret
    204e0c1c:	52800020 	mov	w0, #0x1                   	// #1
    204e0c20:	17fffffe 	b	204e0c18 <gicv3_redists_need_power_mgmt+0x3c>

00000000204e0c24 <gicv3_distif_pre_save>:
    204e0c24:	14001866 	b	204e6dbc <arm_gicv3_distif_pre_save>

00000000204e0c28 <gicv3_distif_post_restore>:
    204e0c28:	14001866 	b	204e6dc0 <arm_gicv3_distif_post_restore>

00000000204e0c2c <gicv3_rdistif_on>:
    204e0c2c:	a9bf7bfd 	stp	x29, x30, [sp, #-16]!
    204e0c30:	b0000061 	adrp	x1, 204ed000 <__STACKS_START__+0x1280>
    204e0c34:	910003fd 	mov	x29, sp
    204e0c38:	f9420421 	ldr	x1, [x1, #1032]
    204e0c3c:	f9401021 	ldr	x1, [x1, #32]
    204e0c40:	f8605823 	ldr	x3, [x1, w0, uxtw #3]
    204e0c44:	aa0303e0 	mov	x0, x3
    204e0c48:	97ffffe5 	bl	204e0bdc <gicv3_redists_need_power_mgmt>
    204e0c4c:	360000c0 	tbz	w0, #0, 204e0c64 <gicv3_rdistif_on+0x38>
    204e0c50:	aa0303e0 	mov	x0, x3
    204e0c54:	97ffffdd 	bl	204e0bc8 <gicr_wait_group_not_in_transit>
    204e0c58:	b900247f 	str	wzr, [x3, #36]
    204e0c5c:	b9402460 	ldr	w0, [x3, #36]
    204e0c60:	17fffffb 	b	204e0c4c <gicv3_rdistif_on+0x20>
    204e0c64:	a8c17bfd 	ldp	x29, x30, [sp], #16
    204e0c68:	d65f03c0 	ret

00000000204e0c6c <gicv3_apply_errata_wa_2384374>:
    204e0c6c:	90000081 	adrp	x1, 204f0000 <imx_gicv3_ctx+0x26d0>
    204e0c70:	394be021 	ldrb	w1, [x1, #760]
    204e0c74:	360000c1 	tbz	w1, #0, 204e0c8c <gicv3_apply_errata_wa_2384374+0x20>
    204e0c78:	b9400001 	ldr	w1, [x0]
    204e0c7c:	32080822 	orr	w2, w1, #0x7000000
    204e0c80:	b9000002 	str	w2, [x0]
    204e0c84:	12057021 	and	w1, w1, #0xf8ffffff
    204e0c88:	b9000001 	str	w1, [x0]
    204e0c8c:	d65f03c0 	ret

00000000204e0c90 <gicv3_check_erratas_applies>:
    204e0c90:	a9be7bfd 	stp	x29, x30, [sp, #-32]!
    204e0c94:	910003fd 	mov	x29, sp
    204e0c98:	910073e1 	add	x1, sp, #0x1c
    204e0c9c:	91006fe2 	add	x2, sp, #0x1b
    204e0ca0:	940001be 	bl	204e1398 <gicv3_get_component_prodid_rev>
    204e0ca4:	b9401fe1 	ldr	w1, [sp, #28]
    204e0ca8:	51000820 	sub	w0, w1, #0x2
    204e0cac:	7100041f 	cmp	w0, #0x1
    204e0cb0:	54000128 	b.hi	204e0cd4 <gicv3_check_erratas_applies+0x44>  // b.pmore
    204e0cb4:	39406fe0 	ldrb	w0, [sp, #27]
    204e0cb8:	7100083f 	cmp	w1, #0x2
    204e0cbc:	54000101 	b.ne	204e0cdc <gicv3_check_erratas_applies+0x4c>  // b.any
    204e0cc0:	71005c1f 	cmp	w0, #0x17
    204e0cc4:	54000088 	b.hi	204e0cd4 <gicv3_check_erratas_applies+0x44>  // b.pmore
    204e0cc8:	90000080 	adrp	x0, 204f0000 <imx_gicv3_ctx+0x26d0>
    204e0ccc:	52800021 	mov	w1, #0x1                   	// #1
    204e0cd0:	390be001 	strb	w1, [x0, #760]
    204e0cd4:	a8c27bfd 	ldp	x29, x30, [sp], #32
    204e0cd8:	d65f03c0 	ret
    204e0cdc:	7100101f 	cmp	w0, #0x4
    204e0ce0:	17fffff9 	b	204e0cc4 <gicv3_check_erratas_applies+0x34>

00000000204e0ce4 <gicd_set_icfgr>:
    204e0ce4:	531f0c24 	ubfiz	w4, w1, #1, #4
    204e0ce8:	53047c21 	lsr	w1, w1, #4
    204e0cec:	91300000 	add	x0, x0, #0xc00
    204e0cf0:	12000442 	and	w2, w2, #0x3
    204e0cf4:	d37ef421 	lsl	x1, x1, #2
    204e0cf8:	52800063 	mov	w3, #0x3                   	// #3
    204e0cfc:	1ac42063 	lsl	w3, w3, w4
    204e0d00:	1ac42042 	lsl	w2, w2, w4
    204e0d04:	b8606825 	ldr	w5, [x1, x0]
    204e0d08:	0a2300a3 	bic	w3, w5, w3
    204e0d0c:	2a020063 	orr	w3, w3, w2
    204e0d10:	b8206823 	str	w3, [x1, x0]
    204e0d14:	d65f03c0 	ret

00000000204e0d18 <gicd_clr_igroupr>:
    204e0d18:	53057c23 	lsr	w3, w1, #5
    204e0d1c:	91020000 	add	x0, x0, #0x80
    204e0d20:	52800022 	mov	w2, #0x1                   	// #1
    204e0d24:	d37ef463 	lsl	x3, x3, #2
    204e0d28:	1ac12041 	lsl	w1, w2, w1
    204e0d2c:	b8606864 	ldr	w4, [x3, x0]
    204e0d30:	0a210081 	bic	w1, w4, w1
    204e0d34:	b8206861 	str	w1, [x3, x0]
    204e0d38:	d65f03c0 	ret

00000000204e0d3c <gicd_set_igrpmodr>:
    204e0d3c:	53057c23 	lsr	w3, w1, #5
    204e0d40:	91340000 	add	x0, x0, #0xd00
    204e0d44:	52800022 	mov	w2, #0x1                   	// #1
    204e0d48:	d37ef463 	lsl	x3, x3, #2
    204e0d4c:	1ac12041 	lsl	w1, w2, w1
    204e0d50:	b8606864 	ldr	w4, [x3, x0]
    204e0d54:	2a040021 	orr	w1, w1, w4
    204e0d58:	b8206861 	str	w1, [x3, x0]
    204e0d5c:	d65f03c0 	ret

00000000204e0d60 <gicd_clr_igrpmodr>:
    204e0d60:	53057c23 	lsr	w3, w1, #5
    204e0d64:	91340000 	add	x0, x0, #0xd00
    204e0d68:	52800022 	mov	w2, #0x1                   	// #1
    204e0d6c:	d37ef463 	lsl	x3, x3, #2
    204e0d70:	1ac12041 	lsl	w1, w2, w1
    204e0d74:	b8606864 	ldr	w4, [x3, x0]
    204e0d78:	0a210081 	bic	w1, w4, w1
    204e0d7c:	b8206861 	str	w1, [x3, x0]
    204e0d80:	d65f03c0 	ret

00000000204e0d84 <gicd_set_isenabler>:
    204e0d84:	52800022 	mov	w2, #0x1                   	// #1
    204e0d88:	91040000 	add	x0, x0, #0x100
    204e0d8c:	1ac12042 	lsl	w2, w2, w1
    204e0d90:	53057c21 	lsr	w1, w1, #5
    204e0d94:	d37ef421 	lsl	x1, x1, #2
    204e0d98:	b8206822 	str	w2, [x1, x0]
    204e0d9c:	d65f03c0 	ret

00000000204e0da0 <gicd_set_ipriorityr>:
    204e0da0:	91100000 	add	x0, x0, #0x400
    204e0da4:	2a0103e1 	mov	w1, w1
    204e0da8:	12001c42 	and	w2, w2, #0xff
    204e0dac:	38216802 	strb	w2, [x0, x1]
    204e0db0:	d65f03c0 	ret

00000000204e0db4 <gicd_read_icfgr>:
    204e0db4:	53047c21 	lsr	w1, w1, #4
    204e0db8:	91300000 	add	x0, x0, #0xc00
    204e0dbc:	d37ef421 	lsl	x1, x1, #2
    204e0dc0:	b8606820 	ldr	w0, [x1, x0]
    204e0dc4:	d65f03c0 	ret

00000000204e0dc8 <gicd_write_icfgr>:
    204e0dc8:	53047c21 	lsr	w1, w1, #4
    204e0dcc:	91300000 	add	x0, x0, #0xc00
    204e0dd0:	d37ef421 	lsl	x1, x1, #2
    204e0dd4:	b8206822 	str	w2, [x1, x0]
    204e0dd8:	d65f03c0 	ret

00000000204e0ddc <gicd_read_igroupr>:
    204e0ddc:	53057c21 	lsr	w1, w1, #5
    204e0de0:	91020000 	add	x0, x0, #0x80
    204e0de4:	d37ef421 	lsl	x1, x1, #2
    204e0de8:	b8606820 	ldr	w0, [x1, x0]
    204e0dec:	d65f03c0 	ret

00000000204e0df0 <gicd_write_igroupr>:
    204e0df0:	53057c21 	lsr	w1, w1, #5
    204e0df4:	91020000 	add	x0, x0, #0x80
    204e0df8:	d37ef421 	lsl	x1, x1, #2
    204e0dfc:	b8206822 	str	w2, [x1, x0]
    204e0e00:	d65f03c0 	ret

00000000204e0e04 <gicd_read_igrpmodr>:
    204e0e04:	53057c21 	lsr	w1, w1, #5
    204e0e08:	91340000 	add	x0, x0, #0xd00
    204e0e0c:	d37ef421 	lsl	x1, x1, #2
    204e0e10:	b8606820 	ldr	w0, [x1, x0]
    204e0e14:	d65f03c0 	ret

00000000204e0e18 <gicd_write_igrpmodr>:
    204e0e18:	53057c21 	lsr	w1, w1, #5
    204e0e1c:	91340000 	add	x0, x0, #0xd00
    204e0e20:	d37ef421 	lsl	x1, x1, #2
    204e0e24:	b8206822 	str	w2, [x1, x0]
    204e0e28:	d65f03c0 	ret

00000000204e0e2c <gicd_read_ipriorityr>:
    204e0e2c:	927e7421 	and	x1, x1, #0xfffffffc
    204e0e30:	91100000 	add	x0, x0, #0x400
    204e0e34:	b8606820 	ldr	w0, [x1, x0]
    204e0e38:	d65f03c0 	ret

00000000204e0e3c <gicd_write_ipriorityr>:
    204e0e3c:	927e7421 	and	x1, x1, #0xfffffffc
    204e0e40:	91100000 	add	x0, x0, #0x400
    204e0e44:	b8206822 	str	w2, [x1, x0]
    204e0e48:	d65f03c0 	ret

00000000204e0e4c <gicd_read_isactiver>:
    204e0e4c:	53057c21 	lsr	w1, w1, #5
    204e0e50:	910c0000 	add	x0, x0, #0x300
    204e0e54:	d37ef421 	lsl	x1, x1, #2
    204e0e58:	b8606820 	ldr	w0, [x1, x0]
    204e0e5c:	d65f03c0 	ret

00000000204e0e60 <gicd_write_isactiver>:
    204e0e60:	53057c21 	lsr	w1, w1, #5
    204e0e64:	910c0000 	add	x0, x0, #0x300
    204e0e68:	d37ef421 	lsl	x1, x1, #2
    204e0e6c:	b8206822 	str	w2, [x1, x0]
    204e0e70:	d65f03c0 	ret

00000000204e0e74 <gicd_read_isenabler>:
    204e0e74:	53057c21 	lsr	w1, w1, #5
    204e0e78:	91040000 	add	x0, x0, #0x100
    204e0e7c:	d37ef421 	lsl	x1, x1, #2
    204e0e80:	b8606820 	ldr	w0, [x1, x0]
    204e0e84:	d65f03c0 	ret

00000000204e0e88 <gicd_write_isenabler>:
    204e0e88:	53057c21 	lsr	w1, w1, #5
    204e0e8c:	91040000 	add	x0, x0, #0x100
    204e0e90:	d37ef421 	lsl	x1, x1, #2
    204e0e94:	b8206822 	str	w2, [x1, x0]
    204e0e98:	d65f03c0 	ret

00000000204e0e9c <gicd_read_ispendr>:
    204e0e9c:	53057c21 	lsr	w1, w1, #5
    204e0ea0:	91080000 	add	x0, x0, #0x200
    204e0ea4:	d37ef421 	lsl	x1, x1, #2
    204e0ea8:	b8606820 	ldr	w0, [x1, x0]
    204e0eac:	d65f03c0 	ret

00000000204e0eb0 <gicd_write_ispendr>:
    204e0eb0:	53057c21 	lsr	w1, w1, #5
    204e0eb4:	91080000 	add	x0, x0, #0x200
    204e0eb8:	d37ef421 	lsl	x1, x1, #2
    204e0ebc:	b8206822 	str	w2, [x1, x0]
    204e0ec0:	d65f03c0 	ret

00000000204e0ec4 <gicd_read_nsacr>:
    204e0ec4:	53047c21 	lsr	w1, w1, #4
    204e0ec8:	91380000 	add	x0, x0, #0xe00
    204e0ecc:	d37ef421 	lsl	x1, x1, #2
    204e0ed0:	b8606820 	ldr	w0, [x1, x0]
    204e0ed4:	d65f03c0 	ret

00000000204e0ed8 <gicd_write_nsacr>:
    204e0ed8:	53047c21 	lsr	w1, w1, #4
    204e0edc:	91380000 	add	x0, x0, #0xe00
    204e0ee0:	d37ef421 	lsl	x1, x1, #2
    204e0ee4:	b8206822 	str	w2, [x1, x0]
    204e0ee8:	d65f03c0 	ret

00000000204e0eec <gicr_write_ipriorityr>:
    204e0eec:	91404000 	add	x0, x0, #0x10, lsl #12
    204e0ef0:	927e7421 	and	x1, x1, #0xfffffffc
    204e0ef4:	91100000 	add	x0, x0, #0x400
    204e0ef8:	b8206822 	str	w2, [x1, x0]
    204e0efc:	d65f03c0 	ret

00000000204e0f00 <gicr_set_ipriorityr>:
    204e0f00:	91404000 	add	x0, x0, #0x10, lsl #12
    204e0f04:	2a0103e1 	mov	w1, w1
    204e0f08:	91100000 	add	x0, x0, #0x400
    204e0f0c:	12001c42 	and	w2, w2, #0xff
    204e0f10:	38216802 	strb	w2, [x0, x1]
    204e0f14:	d65f03c0 	ret

00000000204e0f18 <gicr_clr_igroupr>:
    204e0f18:	53057c23 	lsr	w3, w1, #5
    204e0f1c:	91404000 	add	x0, x0, #0x10, lsl #12
    204e0f20:	91020000 	add	x0, x0, #0x80
    204e0f24:	52800022 	mov	w2, #0x1                   	// #1
    204e0f28:	d37ef463 	lsl	x3, x3, #2
    204e0f2c:	1ac12041 	lsl	w1, w2, w1
    204e0f30:	b8606864 	ldr	w4, [x3, x0]
    204e0f34:	0a210081 	bic	w1, w4, w1
    204e0f38:	b8206861 	str	w1, [x3, x0]
    204e0f3c:	d65f03c0 	ret

00000000204e0f40 <gicr_set_igrpmodr>:
    204e0f40:	53057c23 	lsr	w3, w1, #5
    204e0f44:	91404000 	add	x0, x0, #0x10, lsl #12
    204e0f48:	91340000 	add	x0, x0, #0xd00
    204e0f4c:	52800022 	mov	w2, #0x1                   	// #1
    204e0f50:	d37ef463 	lsl	x3, x3, #2
    204e0f54:	1ac12041 	lsl	w1, w2, w1
    204e0f58:	b8606864 	ldr	w4, [x3, x0]
    204e0f5c:	2a040021 	orr	w1, w1, w4
    204e0f60:	b8206861 	str	w1, [x3, x0]
    204e0f64:	d65f03c0 	ret

00000000204e0f68 <gicr_clr_igrpmodr>:
    204e0f68:	53057c23 	lsr	w3, w1, #5
    204e0f6c:	91404000 	add	x0, x0, #0x10, lsl #12
    204e0f70:	91340000 	add	x0, x0, #0xd00
    204e0f74:	52800022 	mov	w2, #0x1                   	// #1
    204e0f78:	d37ef463 	lsl	x3, x3, #2
    204e0f7c:	1ac12041 	lsl	w1, w2, w1
    204e0f80:	b8606864 	ldr	w4, [x3, x0]
    204e0f84:	0a210081 	bic	w1, w4, w1
    204e0f88:	b8206861 	str	w1, [x3, x0]
    204e0f8c:	d65f03c0 	ret

00000000204e0f90 <gicr_set_isenabler>:
    204e0f90:	52800022 	mov	w2, #0x1                   	// #1
    204e0f94:	91404000 	add	x0, x0, #0x10, lsl #12
    204e0f98:	1ac12042 	lsl	w2, w2, w1
    204e0f9c:	53057c21 	lsr	w1, w1, #5
    204e0fa0:	91040000 	add	x0, x0, #0x100
    204e0fa4:	d37ef421 	lsl	x1, x1, #2
    204e0fa8:	b8206822 	str	w2, [x1, x0]
    204e0fac:	d65f03c0 	ret

00000000204e0fb0 <gicr_set_icfgr>:
    204e0fb0:	531f0c24 	ubfiz	w4, w1, #1, #4
    204e0fb4:	53047c21 	lsr	w1, w1, #4
    204e0fb8:	91404000 	add	x0, x0, #0x10, lsl #12
    204e0fbc:	12000442 	and	w2, w2, #0x3
    204e0fc0:	d37ef421 	lsl	x1, x1, #2
    204e0fc4:	91300000 	add	x0, x0, #0xc00
    204e0fc8:	52800063 	mov	w3, #0x3                   	// #3
    204e0fcc:	1ac42042 	lsl	w2, w2, w4
    204e0fd0:	1ac42063 	lsl	w3, w3, w4
    204e0fd4:	b8606825 	ldr	w5, [x1, x0]
    204e0fd8:	0a2300a3 	bic	w3, w5, w3
    204e0fdc:	2a020063 	orr	w3, w3, w2
    204e0fe0:	b8206823 	str	w3, [x1, x0]
    204e0fe4:	d65f03c0 	ret

00000000204e0fe8 <gicv3_rdistif_mark_core_awake>:
    204e0fe8:	b9401402 	ldr	w2, [x0, #20]
    204e0fec:	91005001 	add	x1, x0, #0x14
    204e0ff0:	36080202 	tbz	w2, #1, 204e1030 <gicv3_rdistif_mark_core_awake+0x48>
    204e0ff4:	37100062 	tbnz	w2, #2, 204e1000 <gicv3_rdistif_mark_core_awake+0x18>
    204e0ff8:	b9400022 	ldr	w2, [x1]
    204e0ffc:	17fffffe 	b	204e0ff4 <gicv3_rdistif_mark_core_awake+0xc>
    204e1000:	b9401402 	ldr	w2, [x0, #20]
    204e1004:	36f800c2 	tbz	w2, #31, 204e101c <gicv3_rdistif_mark_core_awake+0x34>
    204e1008:	b9401402 	ldr	w2, [x0, #20]
    204e100c:	121f7842 	and	w2, w2, #0xfffffffe
    204e1010:	b9001402 	str	w2, [x0, #20]
    204e1014:	b9400022 	ldr	w2, [x1]
    204e1018:	37ffffe2 	tbnz	w2, #31, 204e1014 <gicv3_rdistif_mark_core_awake+0x2c>
    204e101c:	b9401402 	ldr	w2, [x0, #20]
    204e1020:	121e7842 	and	w2, w2, #0xfffffffd
    204e1024:	b9001402 	str	w2, [x0, #20]
    204e1028:	b9400020 	ldr	w0, [x1]
    204e102c:	3717ffe0 	tbnz	w0, #2, 204e1028 <gicv3_rdistif_mark_core_awake+0x40>
    204e1030:	d65f03c0 	ret

00000000204e1034 <gicv3_rdistif_mark_core_asleep>:
    204e1034:	b9401401 	ldr	w1, [x0, #20]
    204e1038:	91005002 	add	x2, x0, #0x14
    204e103c:	321f0021 	orr	w1, w1, #0x2
    204e1040:	b9001401 	str	w1, [x0, #20]
    204e1044:	b9400040 	ldr	w0, [x2]
    204e1048:	3617ffe0 	tbz	w0, #2, 204e1044 <gicv3_rdistif_mark_core_asleep+0x10>
    204e104c:	d65f03c0 	ret

00000000204e1050 <gicv3_rdistif_base_addrs_probe>:
    204e1050:	a9bc7bfd 	stp	x29, x30, [sp, #-64]!
    204e1054:	910003fd 	mov	x29, sp
    204e1058:	a90153f3 	stp	x19, x20, [sp, #16]
    204e105c:	aa0203f3 	mov	x19, x2
    204e1060:	a9025bf5 	stp	x21, x22, [sp, #32]
    204e1064:	aa0003f6 	mov	x22, x0
    204e1068:	aa0303f5 	mov	x21, x3
    204e106c:	f9001bf7 	str	x23, [sp, #48]
    204e1070:	2a0103f7 	mov	w23, w1
    204e1074:	f9400674 	ldr	x20, [x19, #8]
    204e1078:	b40001f5 	cbz	x21, 204e10b4 <gicv3_rdistif_base_addrs_probe+0x64>
    204e107c:	d360de81 	ubfx	x1, x20, #32, #24
    204e1080:	d378fe80 	lsr	x0, x20, #56
    204e1084:	aa008020 	orr	x0, x1, x0, lsl #32
    204e1088:	d63f02a0 	blr	x21
    204e108c:	6b17001f 	cmp	w0, w23
    204e1090:	54000042 	b.cs	204e1098 <gicv3_rdistif_base_addrs_probe+0x48>  // b.hs, b.nlast
    204e1094:	f8205ad3 	str	x19, [x22, w0, uxtw #3]
    204e1098:	91408273 	add	x19, x19, #0x20, lsl #12
    204e109c:	3627fed4 	tbz	w20, #4, 204e1074 <gicv3_rdistif_base_addrs_probe+0x24>
    204e10a0:	a94153f3 	ldp	x19, x20, [sp, #16]
    204e10a4:	a9425bf5 	ldp	x21, x22, [sp, #32]
    204e10a8:	f9401bf7 	ldr	x23, [sp, #48]
    204e10ac:	a8c47bfd 	ldp	x29, x30, [sp], #64
    204e10b0:	d65f03c0 	ret
    204e10b4:	53085e80 	ubfx	w0, w20, #8, #16
    204e10b8:	17fffff5 	b	204e108c <gicv3_rdistif_base_addrs_probe+0x3c>

00000000204e10bc <gicv3_get_spi_limit>:
    204e10bc:	b9400400 	ldr	w0, [x0, #4]
    204e10c0:	52807f81 	mov	w1, #0x3fc                 	// #1020
    204e10c4:	531b1000 	ubfiz	w0, w0, #5, #5
    204e10c8:	11008000 	add	w0, w0, #0x20
    204e10cc:	710ff01f 	cmp	w0, #0x3fc
    204e10d0:	1a819000 	csel	w0, w0, w1, ls	// ls = plast
    204e10d4:	d65f03c0 	ret

00000000204e10d8 <gicv3_spis_config_defaults>:
    204e10d8:	a9bd7bfd 	stp	x29, x30, [sp, #-48]!
    204e10dc:	910003fd 	mov	x29, sp
    204e10e0:	a90153f3 	stp	x19, x20, [sp, #16]
    204e10e4:	aa0003f4 	mov	x20, x0
    204e10e8:	f90013f5 	str	x21, [sp, #32]
    204e10ec:	97fffff4 	bl	204e10bc <gicv3_get_spi_limit>
    204e10f0:	2a0003f3 	mov	w19, w0
    204e10f4:	52800415 	mov	w21, #0x20                  	// #32
    204e10f8:	6b1302bf 	cmp	w21, w19
    204e10fc:	54000163 	b.cc	204e1128 <gicv3_spis_config_defaults+0x50>  // b.lo, b.ul, b.last
    204e1100:	52800415 	mov	w21, #0x20                  	// #32
    204e1104:	6b1302bf 	cmp	w21, w19
    204e1108:	540001c3 	b.cc	204e1140 <gicv3_spis_config_defaults+0x68>  // b.lo, b.ul, b.last
    204e110c:	52800415 	mov	w21, #0x20                  	// #32
    204e1110:	6b1302bf 	cmp	w21, w19
    204e1114:	54000223 	b.cc	204e1158 <gicv3_spis_config_defaults+0x80>  // b.lo, b.ul, b.last
    204e1118:	a94153f3 	ldp	x19, x20, [sp, #16]
    204e111c:	f94013f5 	ldr	x21, [sp, #32]
    204e1120:	a8c37bfd 	ldp	x29, x30, [sp], #48
    204e1124:	d65f03c0 	ret
    204e1128:	2a1503e1 	mov	w1, w21
    204e112c:	aa1403e0 	mov	x0, x20
    204e1130:	12800002 	mov	w2, #0xffffffff            	// #-1
    204e1134:	110082b5 	add	w21, w21, #0x20
    204e1138:	97ffff2e 	bl	204e0df0 <gicd_write_igroupr>
    204e113c:	17ffffef 	b	204e10f8 <gicv3_spis_config_defaults+0x20>
    204e1140:	2a1503e1 	mov	w1, w21
    204e1144:	aa1403e0 	mov	x0, x20
    204e1148:	3201c3e2 	mov	w2, #0x80808080            	// #-2139062144
    204e114c:	110012b5 	add	w21, w21, #0x4
    204e1150:	97ffff3b 	bl	204e0e3c <gicd_write_ipriorityr>
    204e1154:	17ffffec 	b	204e1104 <gicv3_spis_config_defaults+0x2c>
    204e1158:	2a1503e1 	mov	w1, w21
    204e115c:	aa1403e0 	mov	x0, x20
    204e1160:	52800002 	mov	w2, #0x0                   	// #0
    204e1164:	110042b5 	add	w21, w21, #0x10
    204e1168:	97ffff18 	bl	204e0dc8 <gicd_write_icfgr>
    204e116c:	17ffffe9 	b	204e1110 <gicv3_spis_config_defaults+0x38>

00000000204e1170 <gicv3_secure_spis_config_props>:
    204e1170:	a9bb7bfd 	stp	x29, x30, [sp, #-80]!
    204e1174:	910003fd 	mov	x29, sp
    204e1178:	a90153f3 	stp	x19, x20, [sp, #16]
    204e117c:	aa0103f3 	mov	x19, x1
    204e1180:	a9025bf5 	stp	x21, x22, [sp, #32]
    204e1184:	aa0003f5 	mov	x21, x0
    204e1188:	52800016 	mov	w22, #0x0                   	// #0
    204e118c:	a90363f7 	stp	x23, x24, [sp, #48]
    204e1190:	b2409ff8 	mov	x24, #0xffffffffff          	// #1099511627775
    204e1194:	8b224837 	add	x23, x1, w2, uxtw #2
    204e1198:	f90023f9 	str	x25, [sp, #64]
    204e119c:	91401819 	add	x25, x0, #0x6, lsl #12
    204e11a0:	f2a01ff8 	movk	x24, #0xff, lsl #16
    204e11a4:	eb17027f 	cmp	x19, x23
    204e11a8:	54000101 	b.ne	204e11c8 <gicv3_secure_spis_config_props+0x58>  // b.any
    204e11ac:	a94153f3 	ldp	x19, x20, [sp, #16]
    204e11b0:	2a1603e0 	mov	w0, w22
    204e11b4:	a9425bf5 	ldp	x21, x22, [sp, #32]
    204e11b8:	a94363f7 	ldp	x23, x24, [sp, #48]
    204e11bc:	f94023f9 	ldr	x25, [sp, #64]
    204e11c0:	a8c57bfd 	ldp	x29, x30, [sp], #80
    204e11c4:	d65f03c0 	ret
    204e11c8:	b9400274 	ldr	w20, [x19]
    204e11cc:	12003294 	and	w20, w20, #0x1fff
    204e11d0:	51008280 	sub	w0, w20, #0x20
    204e11d4:	710f6c1f 	cmp	w0, #0x3db
    204e11d8:	54000388 	b.hi	204e1248 <gicv3_secure_spis_config_props+0xd8>  // b.pmore
    204e11dc:	2a1403e1 	mov	w1, w20
    204e11e0:	aa1503e0 	mov	x0, x21
    204e11e4:	97fffecd 	bl	204e0d18 <gicd_clr_igroupr>
    204e11e8:	b9400260 	ldr	w0, [x19]
    204e11ec:	2a1403e1 	mov	w1, w20
    204e11f0:	720b041f 	tst	w0, #0x600000
    204e11f4:	aa1503e0 	mov	x0, x21
    204e11f8:	540002c1 	b.ne	204e1250 <gicv3_secure_spis_config_props+0xe0>  // b.any
    204e11fc:	321e02d6 	orr	w22, w22, #0x4
    204e1200:	97fffecf 	bl	204e0d3c <gicd_set_igrpmodr>
    204e1204:	b9400262 	ldr	w2, [x19]
    204e1208:	2a1403e1 	mov	w1, w20
    204e120c:	aa1503e0 	mov	x0, x21
    204e1210:	d3576042 	ubfx	x2, x2, #23, #2
    204e1214:	97fffeb4 	bl	204e0ce4 <gicd_set_icfgr>
    204e1218:	b9400262 	ldr	w2, [x19]
    204e121c:	2a1403e1 	mov	w1, w20
    204e1220:	aa1503e0 	mov	x0, x21
    204e1224:	d34d5042 	ubfx	x2, x2, #13, #8
    204e1228:	97fffede 	bl	204e0da0 <gicd_set_ipriorityr>
    204e122c:	d53800a0 	mrs	x0, mpidr_el1
    204e1230:	d37d3281 	ubfiz	x1, x20, #3, #13
    204e1234:	8a180000 	and	x0, x0, x24
    204e1238:	f8216b20 	str	x0, [x25, x1]
    204e123c:	2a1403e1 	mov	w1, w20
    204e1240:	aa1503e0 	mov	x0, x21
    204e1244:	97fffed0 	bl	204e0d84 <gicd_set_isenabler>
    204e1248:	91001273 	add	x19, x19, #0x4
    204e124c:	17ffffd6 	b	204e11a4 <gicv3_secure_spis_config_props+0x34>
    204e1250:	320002d6 	orr	w22, w22, #0x1
    204e1254:	97fffec3 	bl	204e0d60 <gicd_clr_igrpmodr>
    204e1258:	17ffffeb 	b	204e1204 <gicv3_secure_spis_config_props+0x94>

00000000204e125c <gicv3_ppi_sgi_config_defaults>:
    204e125c:	a9be7bfd 	stp	x29, x30, [sp, #-32]!
    204e1260:	12800001 	mov	w1, #0xffffffff            	// #-1
    204e1264:	910003fd 	mov	x29, sp
    204e1268:	a90153f3 	stp	x19, x20, [sp, #16]
    204e126c:	aa0003f3 	mov	x19, x0
    204e1270:	d2803000 	mov	x0, #0x180                 	// #384
    204e1274:	f2a00020 	movk	x0, #0x1, lsl #16
    204e1278:	b8206a61 	str	w1, [x19, x0]
    204e127c:	b9400260 	ldr	w0, [x19]
    204e1280:	121d0014 	and	w20, w0, #0x8
    204e1284:	371fffc0 	tbnz	w0, #3, 204e127c <gicv3_ppi_sgi_config_defaults+0x20>
    204e1288:	d2801000 	mov	x0, #0x80                  	// #128
    204e128c:	12800001 	mov	w1, #0xffffffff            	// #-1
    204e1290:	f2a00020 	movk	x0, #0x1, lsl #16
    204e1294:	b8206a61 	str	w1, [x19, x0]
    204e1298:	2a1403e1 	mov	w1, w20
    204e129c:	aa1303e0 	mov	x0, x19
    204e12a0:	3201c3e2 	mov	w2, #0x80808080            	// #-2139062144
    204e12a4:	11001294 	add	w20, w20, #0x4
    204e12a8:	97ffff11 	bl	204e0eec <gicr_write_ipriorityr>
    204e12ac:	7100829f 	cmp	w20, #0x20
    204e12b0:	54ffff41 	b.ne	204e1298 <gicv3_ppi_sgi_config_defaults+0x3c>  // b.any
    204e12b4:	d2818080 	mov	x0, #0xc04                 	// #3076
    204e12b8:	f2a00020 	movk	x0, #0x1, lsl #16
    204e12bc:	b8206a7f 	str	wzr, [x19, x0]
    204e12c0:	a94153f3 	ldp	x19, x20, [sp, #16]
    204e12c4:	a8c27bfd 	ldp	x29, x30, [sp], #32
    204e12c8:	d65f03c0 	ret

00000000204e12cc <gicv3_secure_ppi_sgi_config_props>:
    204e12cc:	a9bc7bfd 	stp	x29, x30, [sp, #-64]!
    204e12d0:	910003fd 	mov	x29, sp
    204e12d4:	a90153f3 	stp	x19, x20, [sp, #16]
    204e12d8:	aa0103f3 	mov	x19, x1
    204e12dc:	a9025bf5 	stp	x21, x22, [sp, #32]
    204e12e0:	aa0003f5 	mov	x21, x0
    204e12e4:	52800016 	mov	w22, #0x0                   	// #0
    204e12e8:	f9001bf7 	str	x23, [sp, #48]
    204e12ec:	8b224837 	add	x23, x1, w2, uxtw #2
    204e12f0:	eb17027f 	cmp	x19, x23
    204e12f4:	540000e1 	b.ne	204e1310 <gicv3_secure_ppi_sgi_config_props+0x44>  // b.any
    204e12f8:	a94153f3 	ldp	x19, x20, [sp, #16]
    204e12fc:	2a1603e0 	mov	w0, w22
    204e1300:	a9425bf5 	ldp	x21, x22, [sp, #32]
    204e1304:	f9401bf7 	ldr	x23, [sp, #48]
    204e1308:	a8c47bfd 	ldp	x29, x30, [sp], #64
    204e130c:	d65f03c0 	ret
    204e1310:	b9400274 	ldr	w20, [x19]
    204e1314:	12003294 	and	w20, w20, #0x1fff
    204e1318:	71007e9f 	cmp	w20, #0x1f
    204e131c:	54000348 	b.hi	204e1384 <gicv3_secure_ppi_sgi_config_props+0xb8>  // b.pmore
    204e1320:	2a1403e1 	mov	w1, w20
    204e1324:	aa1503e0 	mov	x0, x21
    204e1328:	97fffefc 	bl	204e0f18 <gicr_clr_igroupr>
    204e132c:	b9400260 	ldr	w0, [x19]
    204e1330:	2a1403e1 	mov	w1, w20
    204e1334:	720b041f 	tst	w0, #0x600000
    204e1338:	aa1503e0 	mov	x0, x21
    204e133c:	54000281 	b.ne	204e138c <gicv3_secure_ppi_sgi_config_props+0xc0>  // b.any
    204e1340:	321e02d6 	orr	w22, w22, #0x4
    204e1344:	97fffeff 	bl	204e0f40 <gicr_set_igrpmodr>
    204e1348:	b9400262 	ldr	w2, [x19]
    204e134c:	2a1403e1 	mov	w1, w20
    204e1350:	aa1503e0 	mov	x0, x21
    204e1354:	d34d5042 	ubfx	x2, x2, #13, #8
    204e1358:	97fffeea 	bl	204e0f00 <gicr_set_ipriorityr>
    204e135c:	71003e9f 	cmp	w20, #0xf
    204e1360:	540000c9 	b.ls	204e1378 <gicv3_secure_ppi_sgi_config_props+0xac>  // b.plast
    204e1364:	b9400262 	ldr	w2, [x19]
    204e1368:	2a1403e1 	mov	w1, w20
    204e136c:	aa1503e0 	mov	x0, x21
    204e1370:	d3576042 	ubfx	x2, x2, #23, #2
    204e1374:	97ffff0f 	bl	204e0fb0 <gicr_set_icfgr>
    204e1378:	2a1403e1 	mov	w1, w20
    204e137c:	aa1503e0 	mov	x0, x21
    204e1380:	97ffff04 	bl	204e0f90 <gicr_set_isenabler>
    204e1384:	91001273 	add	x19, x19, #0x4
    204e1388:	17ffffda 	b	204e12f0 <gicv3_secure_ppi_sgi_config_props+0x24>
    204e138c:	320002d6 	orr	w22, w22, #0x1
    204e1390:	97fffef6 	bl	204e0f68 <gicr_clr_igrpmodr>
    204e1394:	17ffffed 	b	204e1348 <gicv3_secure_ppi_sgi_config_props+0x7c>

00000000204e1398 <gicv3_get_component_prodid_rev>:
    204e1398:	b9400800 	ldr	w0, [x0, #8]
    204e139c:	53187c03 	lsr	w3, w0, #24
    204e13a0:	b9000023 	str	w3, [x1]
    204e13a4:	530c7c00 	lsr	w0, w0, #12
    204e13a8:	39000040 	strb	w0, [x2]
    204e13ac:	d65f03c0 	ret

00000000204e13b0 <gicd_wait_for_pending_write>:
    204e13b0:	b9400001 	ldr	w1, [x0]
    204e13b4:	37ffffe1 	tbnz	w1, #31, 204e13b0 <gicd_wait_for_pending_write>
    204e13b8:	d65f03c0 	ret

00000000204e13bc <gicr_wait_for_pending_write>:
    204e13bc:	b9400001 	ldr	w1, [x0]
    204e13c0:	371fffe1 	tbnz	w1, #3, 204e13bc <gicr_wait_for_pending_write>
    204e13c4:	d65f03c0 	ret

00000000204e13c8 <gicv3_driver_init>:
    204e13c8:	a9be7bfd 	stp	x29, x30, [sp, #-32]!
    204e13cc:	d29ffd01 	mov	x1, #0xffe8                	// #65512
    204e13d0:	910003fd 	mov	x29, sp
    204e13d4:	f9000bf3 	str	x19, [sp, #16]
    204e13d8:	aa0003f3 	mov	x19, x0
    204e13dc:	f9400000 	ldr	x0, [x0]
    204e13e0:	f9400662 	ldr	x2, [x19, #8]
    204e13e4:	b8616801 	ldr	w1, [x0, x1]
    204e13e8:	b9400000 	ldr	w0, [x0]
    204e13ec:	b4000082 	cbz	x2, 204e13fc <gicv3_driver_init+0x34>
    204e13f0:	a9420e60 	ldp	x0, x3, [x19, #32]
    204e13f4:	b9401e61 	ldr	w1, [x19, #28]
    204e13f8:	97ffff16 	bl	204e1050 <gicv3_rdistif_base_addrs_probe>
    204e13fc:	90000060 	adrp	x0, 204ed000 <__STACKS_START__+0x1280>
    204e1400:	f9020413 	str	x19, [x0, #1032]
    204e1404:	f9400260 	ldr	x0, [x19]
    204e1408:	f9400bf3 	ldr	x19, [sp, #16]
    204e140c:	a8c27bfd 	ldp	x29, x30, [sp], #32
    204e1410:	17fffe20 	b	204e0c90 <gicv3_check_erratas_applies>

00000000204e1414 <gicv3_distif_init>:
    204e1414:	a9be7bfd 	stp	x29, x30, [sp, #-32]!
    204e1418:	910003fd 	mov	x29, sp
    204e141c:	f9000bf3 	str	x19, [sp, #16]
    204e1420:	90000073 	adrp	x19, 204ed000 <__STACKS_START__+0x1280>
    204e1424:	f9420660 	ldr	x0, [x19, #1032]
    204e1428:	f9400000 	ldr	x0, [x0]
    204e142c:	b9400001 	ldr	w1, [x0]
    204e1430:	121d7021 	and	w1, w1, #0xfffffff8
    204e1434:	b9000001 	str	w1, [x0]
    204e1438:	97ffffde 	bl	204e13b0 <gicd_wait_for_pending_write>
    204e143c:	b9400001 	ldr	w1, [x0]
    204e1440:	321c0421 	orr	w1, w1, #0x30
    204e1444:	b9000001 	str	w1, [x0]
    204e1448:	97ffffda 	bl	204e13b0 <gicd_wait_for_pending_write>
    204e144c:	97ffff23 	bl	204e10d8 <gicv3_spis_config_defaults>
    204e1450:	f9420660 	ldr	x0, [x19, #1032]
    204e1454:	f9400801 	ldr	x1, [x0, #16]
    204e1458:	b9401802 	ldr	w2, [x0, #24]
    204e145c:	f9400000 	ldr	x0, [x0]
    204e1460:	97ffff44 	bl	204e1170 <gicv3_secure_spis_config_props>
    204e1464:	f9420661 	ldr	x1, [x19, #1032]
    204e1468:	f9400bf3 	ldr	x19, [sp, #16]
    204e146c:	f9400021 	ldr	x1, [x1]
    204e1470:	b9400022 	ldr	w2, [x1]
    204e1474:	2a020000 	orr	w0, w0, w2
    204e1478:	b9000020 	str	w0, [x1]
    204e147c:	aa0103e0 	mov	x0, x1
    204e1480:	a8c27bfd 	ldp	x29, x30, [sp], #32
    204e1484:	17ffffcb 	b	204e13b0 <gicd_wait_for_pending_write>

00000000204e1488 <gicv3_rdistif_init>:
    204e1488:	a9bd7bfd 	stp	x29, x30, [sp, #-48]!
    204e148c:	910003fd 	mov	x29, sp
    204e1490:	a90153f3 	stp	x19, x20, [sp, #16]
    204e1494:	90000073 	adrp	x19, 204ed000 <__STACKS_START__+0x1280>
    204e1498:	2a0003f4 	mov	w20, w0
    204e149c:	f9420661 	ldr	x1, [x19, #1032]
    204e14a0:	f9400021 	ldr	x1, [x1]
    204e14a4:	f90013f5 	str	x21, [sp, #32]
    204e14a8:	b9400035 	ldr	w21, [x1]
    204e14ac:	97fffde0 	bl	204e0c2c <gicv3_rdistif_on>
    204e14b0:	f9420660 	ldr	x0, [x19, #1032]
    204e14b4:	f9401000 	ldr	x0, [x0, #32]
    204e14b8:	f8745814 	ldr	x20, [x0, w20, uxtw #3]
    204e14bc:	aa1403e0 	mov	x0, x20
    204e14c0:	97ffff67 	bl	204e125c <gicv3_ppi_sgi_config_defaults>
    204e14c4:	f9420660 	ldr	x0, [x19, #1032]
    204e14c8:	f9400801 	ldr	x1, [x0, #16]
    204e14cc:	b9401802 	ldr	w2, [x0, #24]
    204e14d0:	aa1403e0 	mov	x0, x20
    204e14d4:	97ffff7e 	bl	204e12cc <gicv3_secure_ppi_sgi_config_props>
    204e14d8:	6a35001f 	bics	wzr, w0, w21
    204e14dc:	54000160 	b.eq	204e1508 <gicv3_rdistif_init+0x80>  // b.none
    204e14e0:	2a0003e1 	mov	w1, w0
    204e14e4:	f9420660 	ldr	x0, [x19, #1032]
    204e14e8:	a94153f3 	ldp	x19, x20, [sp, #16]
    204e14ec:	f9400000 	ldr	x0, [x0]
    204e14f0:	f94013f5 	ldr	x21, [sp, #32]
    204e14f4:	b9400002 	ldr	w2, [x0]
    204e14f8:	2a020021 	orr	w1, w1, w2
    204e14fc:	b9000001 	str	w1, [x0]
    204e1500:	a8c37bfd 	ldp	x29, x30, [sp], #48
    204e1504:	17ffffab 	b	204e13b0 <gicd_wait_for_pending_write>
    204e1508:	a94153f3 	ldp	x19, x20, [sp, #16]
    204e150c:	f94013f5 	ldr	x21, [sp, #32]
    204e1510:	a8c37bfd 	ldp	x29, x30, [sp], #48
    204e1514:	d65f03c0 	ret

00000000204e1518 <gicv3_cpuif_enable>:
    204e1518:	a9bf7bfd 	stp	x29, x30, [sp, #-16]!
    204e151c:	90000061 	adrp	x1, 204ed000 <__STACKS_START__+0x1280>
    204e1520:	910003fd 	mov	x29, sp
    204e1524:	f9420421 	ldr	x1, [x1, #1032]
    204e1528:	f9401021 	ldr	x1, [x1, #32]
    204e152c:	f8605820 	ldr	x0, [x1, w0, uxtw #3]
    204e1530:	97fffeae 	bl	204e0fe8 <gicv3_rdistif_mark_core_awake>
    204e1534:	d53ecca0 	mrs	x0, icc_sre_el3
    204e1538:	b2400c00 	orr	x0, x0, #0xf
    204e153c:	d51ecca0 	msr	icc_sre_el3, x0
    204e1540:	d53e1100 	mrs	x0, scr_el3
    204e1544:	b2400001 	orr	x1, x0, #0x1
    204e1548:	d51e1101 	msr	scr_el3, x1
    204e154c:	d5033fdf 	isb
    204e1550:	d53cc9a1 	mrs	x1, icc_sre_el2
    204e1554:	b2400c21 	orr	x1, x1, #0xf
    204e1558:	d51cc9a1 	msr	icc_sre_el2, x1
    204e155c:	d2800021 	mov	x1, #0x1                   	// #1
    204e1560:	d518cca1 	msr	icc_sre_el1, x1
    204e1564:	d5033fdf 	isb
    204e1568:	927ff802 	and	x2, x0, #0xfffffffffffffffe
    204e156c:	d51e1102 	msr	scr_el3, x2
    204e1570:	d5033fdf 	isb
    204e1574:	d518cca1 	msr	icc_sre_el1, x1
    204e1578:	d5033fdf 	isb
    204e157c:	d2801fe2 	mov	x2, #0xff                  	// #255
    204e1580:	d5184602 	msr	icc_pmr_el1, x2
    204e1584:	d518ccc1 	msr	icc_igrpen0_el1, x1
    204e1588:	d53ecce1 	mrs	x1, icc_igrpen1_el3
    204e158c:	b27f0021 	orr	x1, x1, #0x2
    204e1590:	d51ecce1 	msr	icc_igrpen1_el3, x1
    204e1594:	d51e1100 	msr	scr_el3, x0
    204e1598:	d5033fdf 	isb
    204e159c:	d5033f9f 	dsb	sy
    204e15a0:	a8c17bfd 	ldp	x29, x30, [sp], #16
    204e15a4:	d65f03c0 	ret

00000000204e15a8 <gicv3_cpuif_disable>:
    204e15a8:	a9be7bfd 	stp	x29, x30, [sp, #-32]!
    204e15ac:	910003fd 	mov	x29, sp
    204e15b0:	f9000bf3 	str	x19, [sp, #16]
    204e15b4:	d53ecca1 	mrs	x1, icc_sre_el3
    204e15b8:	b27f0421 	orr	x1, x1, #0x6
    204e15bc:	d51ecca1 	msr	icc_sre_el3, x1
    204e15c0:	d538ccc1 	mrs	x1, icc_igrpen0_el1
    204e15c4:	927f7821 	and	x1, x1, #0xfffffffe
    204e15c8:	d518ccc1 	msr	icc_igrpen0_el1, x1
    204e15cc:	d53ecce1 	mrs	x1, icc_igrpen1_el3
    204e15d0:	927e7421 	and	x1, x1, #0xfffffffc
    204e15d4:	d51ecce1 	msr	icc_igrpen1_el3, x1
    204e15d8:	d5033fdf 	isb
    204e15dc:	d5033f9f 	dsb	sy
    204e15e0:	90000061 	adrp	x1, 204ed000 <__STACKS_START__+0x1280>
    204e15e4:	f9420421 	ldr	x1, [x1, #1032]
    204e15e8:	f9401021 	ldr	x1, [x1, #32]
    204e15ec:	f8605833 	ldr	x19, [x1, w0, uxtw #3]
    204e15f0:	aa1303e0 	mov	x0, x19
    204e15f4:	97fffd9e 	bl	204e0c6c <gicv3_apply_errata_wa_2384374>
    204e15f8:	aa1303e0 	mov	x0, x19
    204e15fc:	f9400bf3 	ldr	x19, [sp, #16]
    204e1600:	a8c27bfd 	ldp	x29, x30, [sp], #32
    204e1604:	17fffe8c 	b	204e1034 <gicv3_rdistif_mark_core_asleep>

00000000204e1608 <gicv3_get_pending_interrupt_type>:
    204e1608:	d538c840 	mrs	x0, icc_hppir0_el1
    204e160c:	12005c00 	and	w0, w0, #0xffffff
    204e1610:	d65f03c0 	ret

00000000204e1614 <gicv3_rdistif_save>:
    204e1614:	a9bf7bfd 	stp	x29, x30, [sp, #-16]!
    204e1618:	2a0003e3 	mov	w3, w0
    204e161c:	90000060 	adrp	x0, 204ed000 <__STACKS_START__+0x1280>
    204e1620:	910003fd 	mov	x29, sp
    204e1624:	f9420400 	ldr	x0, [x0, #1032]
    204e1628:	aa0103e2 	mov	x2, x1
    204e162c:	f9401000 	ldr	x0, [x0, #32]
    204e1630:	f8635800 	ldr	x0, [x0, w3, uxtw #3]
    204e1634:	97ffff62 	bl	204e13bc <gicr_wait_for_pending_write>
    204e1638:	b9400001 	ldr	w1, [x0]
    204e163c:	b9001041 	str	w1, [x2, #16]
    204e1640:	f9403801 	ldr	x1, [x0, #112]
    204e1644:	f9000041 	str	x1, [x2]
    204e1648:	f9403c01 	ldr	x1, [x0, #120]
    204e164c:	f9000441 	str	x1, [x2, #8]
    204e1650:	d2801001 	mov	x1, #0x80                  	// #128
    204e1654:	f2a00021 	movk	x1, #0x1, lsl #16
    204e1658:	b8616804 	ldr	w4, [x0, x1]
    204e165c:	91020021 	add	x1, x1, #0x80
    204e1660:	b9001444 	str	w4, [x2, #20]
    204e1664:	b8616804 	ldr	w4, [x0, x1]
    204e1668:	b9001844 	str	w4, [x2, #24]
    204e166c:	91040024 	add	x4, x1, #0x100
    204e1670:	b8646804 	ldr	w4, [x0, x4]
    204e1674:	b9001c44 	str	w4, [x2, #28]
    204e1678:	91080024 	add	x4, x1, #0x200
    204e167c:	b8646804 	ldr	w4, [x0, x4]
    204e1680:	b9002044 	str	w4, [x2, #32]
    204e1684:	91300024 	add	x4, x1, #0xc00
    204e1688:	b8646804 	ldr	w4, [x0, x4]
    204e168c:	b9004c44 	str	w4, [x2, #76]
    204e1690:	912c0024 	add	x4, x1, #0xb00
    204e1694:	b8646804 	ldr	w4, [x0, x4]
    204e1698:	b9004444 	str	w4, [x2, #68]
    204e169c:	912c1024 	add	x4, x1, #0xb04
    204e16a0:	91340021 	add	x1, x1, #0xd00
    204e16a4:	b8646804 	ldr	w4, [x0, x4]
    204e16a8:	b9004844 	str	w4, [x2, #72]
    204e16ac:	91404004 	add	x4, x0, #0x10, lsl #12
    204e16b0:	91108084 	add	x4, x4, #0x420
    204e16b4:	b8616801 	ldr	w1, [x0, x1]
    204e16b8:	b9005041 	str	w1, [x2, #80]
    204e16bc:	cb000042 	sub	x2, x2, x0
    204e16c0:	91404001 	add	x1, x0, #0x10, lsl #12
    204e16c4:	d1404042 	sub	x2, x2, #0x10, lsl #12
    204e16c8:	91100021 	add	x1, x1, #0x400
    204e16cc:	d10f7042 	sub	x2, x2, #0x3dc
    204e16d0:	b9400020 	ldr	w0, [x1]
    204e16d4:	b8216840 	str	w0, [x2, x1]
    204e16d8:	91001021 	add	x1, x1, #0x4
    204e16dc:	eb04003f 	cmp	x1, x4
    204e16e0:	54ffff81 	b.ne	204e16d0 <gicv3_rdistif_save+0xbc>  // b.any
    204e16e4:	a8c17bfd 	ldp	x29, x30, [sp], #16
    204e16e8:	2a0303e0 	mov	w0, w3
    204e16ec:	17fffd4e 	b	204e0c24 <gicv3_distif_pre_save>

00000000204e16f0 <gicv3_rdistif_init_restore>:
    204e16f0:	a9bd7bfd 	stp	x29, x30, [sp, #-48]!
    204e16f4:	910003fd 	mov	x29, sp
    204e16f8:	a90153f3 	stp	x19, x20, [sp, #16]
    204e16fc:	aa0103f4 	mov	x20, x1
    204e1700:	90000061 	adrp	x1, 204ed000 <__STACKS_START__+0x1280>
    204e1704:	f9420421 	ldr	x1, [x1, #1032]
    204e1708:	f9401021 	ldr	x1, [x1, #32]
    204e170c:	f90013f5 	str	x21, [sp, #32]
    204e1710:	2a0003f5 	mov	w21, w0
    204e1714:	f8755833 	ldr	x19, [x1, w21, uxtw #3]
    204e1718:	97fffd45 	bl	204e0c2c <gicv3_rdistif_on>
    204e171c:	2a1503e0 	mov	w0, w21
    204e1720:	97fffd42 	bl	204e0c28 <gicv3_distif_post_restore>
    204e1724:	d2803002 	mov	x2, #0x180                 	// #384
    204e1728:	12800000 	mov	w0, #0xffffffff            	// #-1
    204e172c:	f2a00022 	movk	x2, #0x1, lsl #16
    204e1730:	b8226a60 	str	w0, [x19, x2]
    204e1734:	aa1303e0 	mov	x0, x19
    204e1738:	d1040042 	sub	x2, x2, #0x100
    204e173c:	97ffff20 	bl	204e13bc <gicr_wait_for_pending_write>
    204e1740:	b9401281 	ldr	w1, [x20, #16]
    204e1744:	121f7821 	and	w1, w1, #0xfffffffe
    204e1748:	b9000261 	str	w1, [x19]
    204e174c:	97ffff1c 	bl	204e13bc <gicr_wait_for_pending_write>
    204e1750:	f9400280 	ldr	x0, [x20]
    204e1754:	f9003a60 	str	x0, [x19, #112]
    204e1758:	cb130281 	sub	x1, x20, x19
    204e175c:	f9400680 	ldr	x0, [x20, #8]
    204e1760:	f9003e60 	str	x0, [x19, #120]
    204e1764:	b9401680 	ldr	w0, [x20, #20]
    204e1768:	d1404021 	sub	x1, x1, #0x10, lsl #12
    204e176c:	b8226a60 	str	w0, [x19, x2]
    204e1770:	91320042 	add	x2, x2, #0xc80
    204e1774:	d10f7021 	sub	x1, x1, #0x3dc
    204e1778:	b9404e80 	ldr	w0, [x20, #76]
    204e177c:	b8226a60 	str	w0, [x19, x2]
    204e1780:	91404260 	add	x0, x19, #0x10, lsl #12
    204e1784:	91404262 	add	x2, x19, #0x10, lsl #12
    204e1788:	91100000 	add	x0, x0, #0x400
    204e178c:	91108042 	add	x2, x2, #0x420
    204e1790:	b8606823 	ldr	w3, [x1, x0]
    204e1794:	b8004403 	str	w3, [x0], #4
    204e1798:	eb02001f 	cmp	x0, x2
    204e179c:	54ffffa1 	b.ne	204e1790 <gicv3_rdistif_init_restore+0xa0>  // b.any
    204e17a0:	d2818002 	mov	x2, #0xc00                 	// #3072
    204e17a4:	b9404680 	ldr	w0, [x20, #68]
    204e17a8:	f2a00022 	movk	x2, #0x1, lsl #16
    204e17ac:	b8226a60 	str	w0, [x19, x2]
    204e17b0:	91001042 	add	x2, x2, #0x4
    204e17b4:	b9404a80 	ldr	w0, [x20, #72]
    204e17b8:	b8226a60 	str	w0, [x19, x2]
    204e17bc:	9107f040 	add	x0, x2, #0x1fc
    204e17c0:	b9405281 	ldr	w1, [x20, #80]
    204e17c4:	b8206a61 	str	w1, [x19, x0]
    204e17c8:	d1281040 	sub	x0, x2, #0xa04
    204e17cc:	b9401e81 	ldr	w1, [x20, #28]
    204e17d0:	b8206a61 	str	w1, [x19, x0]
    204e17d4:	d1241040 	sub	x0, x2, #0x904
    204e17d8:	d12c1042 	sub	x2, x2, #0xb04
    204e17dc:	b9402281 	ldr	w1, [x20, #32]
    204e17e0:	b8206a61 	str	w1, [x19, x0]
    204e17e4:	aa1303e0 	mov	x0, x19
    204e17e8:	97fffef2 	bl	204e13b0 <gicd_wait_for_pending_write>
    204e17ec:	b9401a81 	ldr	w1, [x20, #24]
    204e17f0:	b8226a61 	str	w1, [x19, x2]
    204e17f4:	f94013f5 	ldr	x21, [sp, #32]
    204e17f8:	b9401281 	ldr	w1, [x20, #16]
    204e17fc:	a94153f3 	ldp	x19, x20, [sp, #16]
    204e1800:	b9000001 	str	w1, [x0]
    204e1804:	a8c37bfd 	ldp	x29, x30, [sp], #48
    204e1808:	17fffeed 	b	204e13bc <gicr_wait_for_pending_write>

00000000204e180c <gicv3_distif_save>:
    204e180c:	a9bd7bfd 	stp	x29, x30, [sp, #-48]!
    204e1810:	910003fd 	mov	x29, sp
    204e1814:	a90153f3 	stp	x19, x20, [sp, #16]
    204e1818:	aa0003f4 	mov	x20, x0
    204e181c:	90000060 	adrp	x0, 204ed000 <__STACKS_START__+0x1280>
    204e1820:	a9025bf5 	stp	x21, x22, [sp, #32]
    204e1824:	52800416 	mov	w22, #0x20                  	// #32
    204e1828:	f9420400 	ldr	x0, [x0, #1032]
    204e182c:	f9400013 	ldr	x19, [x0]
    204e1830:	aa1303e0 	mov	x0, x19
    204e1834:	97fffe22 	bl	204e10bc <gicv3_get_spi_limit>
    204e1838:	2a0003f5 	mov	w21, w0
    204e183c:	aa1303e0 	mov	x0, x19
    204e1840:	97fffedc 	bl	204e13b0 <gicd_wait_for_pending_write>
    204e1844:	b9400260 	ldr	w0, [x19]
    204e1848:	b91ee280 	str	w0, [x20, #7904]
    204e184c:	6b1502df 	cmp	w22, w21
    204e1850:	54000403 	b.cc	204e18d0 <gicv3_distif_save+0xc4>  // b.lo, b.ul, b.last
    204e1854:	52800416 	mov	w22, #0x20                  	// #32
    204e1858:	6b1502df 	cmp	w22, w21
    204e185c:	540004c3 	b.cc	204e18f4 <gicv3_distif_save+0xe8>  // b.lo, b.ul, b.last
    204e1860:	52800416 	mov	w22, #0x20                  	// #32
    204e1864:	6b1502df 	cmp	w22, w21
    204e1868:	54000583 	b.cc	204e1918 <gicv3_distif_save+0x10c>  // b.lo, b.ul, b.last
    204e186c:	52800416 	mov	w22, #0x20                  	// #32
    204e1870:	6b1502df 	cmp	w22, w21
    204e1874:	54000643 	b.cc	204e193c <gicv3_distif_save+0x130>  // b.lo, b.ul, b.last
    204e1878:	52800416 	mov	w22, #0x20                  	// #32
    204e187c:	6b1502df 	cmp	w22, w21
    204e1880:	54000703 	b.cc	204e1960 <gicv3_distif_save+0x154>  // b.lo, b.ul, b.last
    204e1884:	52800416 	mov	w22, #0x20                  	// #32
    204e1888:	6b1502df 	cmp	w22, w21
    204e188c:	540007c3 	b.cc	204e1984 <gicv3_distif_save+0x178>  // b.lo, b.ul, b.last
    204e1890:	52800416 	mov	w22, #0x20                  	// #32
    204e1894:	6b1502df 	cmp	w22, w21
    204e1898:	54000883 	b.cc	204e19a8 <gicv3_distif_save+0x19c>  // b.lo, b.ul, b.last
    204e189c:	52800416 	mov	w22, #0x20                  	// #32
    204e18a0:	6b1502df 	cmp	w22, w21
    204e18a4:	54000943 	b.cc	204e19cc <gicv3_distif_save+0x1c0>  // b.lo, b.ul, b.last
    204e18a8:	d28c2000 	mov	x0, #0x6100                	// #24832
    204e18ac:	8b000273 	add	x19, x19, x0
    204e18b0:	d2800000 	mov	x0, #0x0                   	// #0
    204e18b4:	11008001 	add	w1, w0, #0x20
    204e18b8:	6b0102bf 	cmp	w21, w1
    204e18bc:	540009a8 	b.hi	204e19f0 <gicv3_distif_save+0x1e4>  // b.pmore
    204e18c0:	a94153f3 	ldp	x19, x20, [sp, #16]
    204e18c4:	a9425bf5 	ldp	x21, x22, [sp, #32]
    204e18c8:	a8c37bfd 	ldp	x29, x30, [sp], #48
    204e18cc:	d65f03c0 	ret
    204e18d0:	2a1603e1 	mov	w1, w22
    204e18d4:	aa1303e0 	mov	x0, x19
    204e18d8:	97fffd41 	bl	204e0ddc <gicd_read_igroupr>
    204e18dc:	510082c1 	sub	w1, w22, #0x20
    204e18e0:	110082d6 	add	w22, w22, #0x20
    204e18e4:	53057c21 	lsr	w1, w1, #5
    204e18e8:	8b010a81 	add	x1, x20, x1, lsl #2
    204e18ec:	b91ee420 	str	w0, [x1, #7908]
    204e18f0:	17ffffd7 	b	204e184c <gicv3_distif_save+0x40>
    204e18f4:	2a1603e1 	mov	w1, w22
    204e18f8:	aa1303e0 	mov	x0, x19
    204e18fc:	97fffd5e 	bl	204e0e74 <gicd_read_isenabler>
    204e1900:	510082c1 	sub	w1, w22, #0x20
    204e1904:	110082d6 	add	w22, w22, #0x20
    204e1908:	53057c21 	lsr	w1, w1, #5
    204e190c:	911f6021 	add	x1, x1, #0x7d8
    204e1910:	b8217a80 	str	w0, [x20, x1, lsl #2]
    204e1914:	17ffffd1 	b	204e1858 <gicv3_distif_save+0x4c>
    204e1918:	2a1603e1 	mov	w1, w22
    204e191c:	aa1303e0 	mov	x0, x19
    204e1920:	97fffd5f 	bl	204e0e9c <gicd_read_ispendr>
    204e1924:	510082c1 	sub	w1, w22, #0x20
    204e1928:	110082d6 	add	w22, w22, #0x20
    204e192c:	53057c21 	lsr	w1, w1, #5
    204e1930:	8b010a81 	add	x1, x20, x1, lsl #2
    204e1934:	b91fdc20 	str	w0, [x1, #8156]
    204e1938:	17ffffcb 	b	204e1864 <gicv3_distif_save+0x58>
    204e193c:	2a1603e1 	mov	w1, w22
    204e1940:	aa1303e0 	mov	x0, x19
    204e1944:	97fffd42 	bl	204e0e4c <gicd_read_isactiver>
    204e1948:	510082c1 	sub	w1, w22, #0x20
    204e194c:	110082d6 	add	w22, w22, #0x20
    204e1950:	53057c21 	lsr	w1, w1, #5
    204e1954:	8b010a81 	add	x1, x20, x1, lsl #2
    204e1958:	b9205820 	str	w0, [x1, #8280]
    204e195c:	17ffffc5 	b	204e1870 <gicv3_distif_save+0x64>
    204e1960:	2a1603e1 	mov	w1, w22
    204e1964:	aa1303e0 	mov	x0, x19
    204e1968:	97fffd31 	bl	204e0e2c <gicd_read_ipriorityr>
    204e196c:	510082c1 	sub	w1, w22, #0x20
    204e1970:	110012d6 	add	w22, w22, #0x4
    204e1974:	927e7421 	and	x1, x1, #0xfffffffc
    204e1978:	8b010281 	add	x1, x20, x1
    204e197c:	b920d420 	str	w0, [x1, #8404]
    204e1980:	17ffffbf 	b	204e187c <gicv3_distif_save+0x70>
    204e1984:	2a1603e1 	mov	w1, w22
    204e1988:	aa1303e0 	mov	x0, x19
    204e198c:	97fffd0a 	bl	204e0db4 <gicd_read_icfgr>
    204e1990:	510082c1 	sub	w1, w22, #0x20
    204e1994:	110042d6 	add	w22, w22, #0x10
    204e1998:	53047c21 	lsr	w1, w1, #4
    204e199c:	9124b021 	add	x1, x1, #0x92c
    204e19a0:	b8217a80 	str	w0, [x20, x1, lsl #2]
    204e19a4:	17ffffb9 	b	204e1888 <gicv3_distif_save+0x7c>
    204e19a8:	2a1603e1 	mov	w1, w22
    204e19ac:	aa1303e0 	mov	x0, x19
    204e19b0:	97fffd15 	bl	204e0e04 <gicd_read_igrpmodr>
    204e19b4:	510082c1 	sub	w1, w22, #0x20
    204e19b8:	110082d6 	add	w22, w22, #0x20
    204e19bc:	53057c21 	lsr	w1, w1, #5
    204e19c0:	8b010a81 	add	x1, x20, x1, lsl #2
    204e19c4:	b925a820 	str	w0, [x1, #9640]
    204e19c8:	17ffffb3 	b	204e1894 <gicv3_distif_save+0x88>
    204e19cc:	2a1603e1 	mov	w1, w22
    204e19d0:	aa1303e0 	mov	x0, x19
    204e19d4:	97fffd3c 	bl	204e0ec4 <gicd_read_nsacr>
    204e19d8:	510082c1 	sub	w1, w22, #0x20
    204e19dc:	110042d6 	add	w22, w22, #0x10
    204e19e0:	53047c21 	lsr	w1, w1, #4
    204e19e4:	8b010a81 	add	x1, x20, x1, lsl #2
    204e19e8:	b9262420 	str	w0, [x1, #9764]
    204e19ec:	17ffffad 	b	204e18a0 <gicv3_distif_save+0x94>
    204e19f0:	f8408661 	ldr	x1, [x19], #8
    204e19f4:	f8207a81 	str	x1, [x20, x0, lsl #3]
    204e19f8:	91000400 	add	x0, x0, #0x1
    204e19fc:	17ffffae 	b	204e18b4 <gicv3_distif_save+0xa8>

00000000204e1a00 <gicv3_distif_init_restore>:
    204e1a00:	a9bd7bfd 	stp	x29, x30, [sp, #-48]!
    204e1a04:	910003fd 	mov	x29, sp
    204e1a08:	a90153f3 	stp	x19, x20, [sp, #16]
    204e1a0c:	aa0003f4 	mov	x20, x0
    204e1a10:	90000060 	adrp	x0, 204ed000 <__STACKS_START__+0x1280>
    204e1a14:	a9025bf5 	stp	x21, x22, [sp, #32]
    204e1a18:	52800416 	mov	w22, #0x20                  	// #32
    204e1a1c:	f9420400 	ldr	x0, [x0, #1032]
    204e1a20:	f9400013 	ldr	x19, [x0]
    204e1a24:	b9400260 	ldr	w0, [x19]
    204e1a28:	121d7000 	and	w0, w0, #0xfffffff8
    204e1a2c:	b9000260 	str	w0, [x19]
    204e1a30:	aa1303e0 	mov	x0, x19
    204e1a34:	97fffe5f 	bl	204e13b0 <gicd_wait_for_pending_write>
    204e1a38:	b9400261 	ldr	w1, [x19]
    204e1a3c:	321c0421 	orr	w1, w1, #0x30
    204e1a40:	b9000261 	str	w1, [x19]
    204e1a44:	97fffe5b 	bl	204e13b0 <gicd_wait_for_pending_write>
    204e1a48:	97fffd9d 	bl	204e10bc <gicv3_get_spi_limit>
    204e1a4c:	2a0003f5 	mov	w21, w0
    204e1a50:	6b1502df 	cmp	w22, w21
    204e1a54:	54000463 	b.cc	204e1ae0 <gicv3_distif_init_restore+0xe0>  // b.lo, b.ul, b.last
    204e1a58:	52800416 	mov	w22, #0x20                  	// #32
    204e1a5c:	6b1502df 	cmp	w22, w21
    204e1a60:	54000523 	b.cc	204e1b04 <gicv3_distif_init_restore+0x104>  // b.lo, b.ul, b.last
    204e1a64:	52800416 	mov	w22, #0x20                  	// #32
    204e1a68:	6b1502df 	cmp	w22, w21
    204e1a6c:	540005e3 	b.cc	204e1b28 <gicv3_distif_init_restore+0x128>  // b.lo, b.ul, b.last
    204e1a70:	52800416 	mov	w22, #0x20                  	// #32
    204e1a74:	6b1502df 	cmp	w22, w21
    204e1a78:	540006a3 	b.cc	204e1b4c <gicv3_distif_init_restore+0x14c>  // b.lo, b.ul, b.last
    204e1a7c:	52800416 	mov	w22, #0x20                  	// #32
    204e1a80:	6b1502df 	cmp	w22, w21
    204e1a84:	54000763 	b.cc	204e1b70 <gicv3_distif_init_restore+0x170>  // b.lo, b.ul, b.last
    204e1a88:	d28c2000 	mov	x0, #0x6100                	// #24832
    204e1a8c:	8b000261 	add	x1, x19, x0
    204e1a90:	d2800000 	mov	x0, #0x0                   	// #0
    204e1a94:	11008002 	add	w2, w0, #0x20
    204e1a98:	6b0202bf 	cmp	w21, w2
    204e1a9c:	540007c8 	b.hi	204e1b94 <gicv3_distif_init_restore+0x194>  // b.pmore
    204e1aa0:	52800416 	mov	w22, #0x20                  	// #32
    204e1aa4:	6b1502df 	cmp	w22, w21
    204e1aa8:	540007e3 	b.cc	204e1ba4 <gicv3_distif_init_restore+0x1a4>  // b.lo, b.ul, b.last
    204e1aac:	52800416 	mov	w22, #0x20                  	// #32
    204e1ab0:	6b1502df 	cmp	w22, w21
    204e1ab4:	540008a3 	b.cc	204e1bc8 <gicv3_distif_init_restore+0x1c8>  // b.lo, b.ul, b.last
    204e1ab8:	52800416 	mov	w22, #0x20                  	// #32
    204e1abc:	6b1502df 	cmp	w22, w21
    204e1ac0:	54000963 	b.cc	204e1bec <gicv3_distif_init_restore+0x1ec>  // b.lo, b.ul, b.last
    204e1ac4:	b95ee280 	ldr	w0, [x20, #7904]
    204e1ac8:	a9425bf5 	ldp	x21, x22, [sp, #32]
    204e1acc:	b9000260 	str	w0, [x19]
    204e1ad0:	aa1303e0 	mov	x0, x19
    204e1ad4:	a94153f3 	ldp	x19, x20, [sp, #16]
    204e1ad8:	a8c37bfd 	ldp	x29, x30, [sp], #48
    204e1adc:	17fffe35 	b	204e13b0 <gicd_wait_for_pending_write>
    204e1ae0:	510082c0 	sub	w0, w22, #0x20
    204e1ae4:	2a1603e1 	mov	w1, w22
    204e1ae8:	110082d6 	add	w22, w22, #0x20
    204e1aec:	53057c00 	lsr	w0, w0, #5
    204e1af0:	8b000a80 	add	x0, x20, x0, lsl #2
    204e1af4:	b95ee402 	ldr	w2, [x0, #7908]
    204e1af8:	aa1303e0 	mov	x0, x19
    204e1afc:	97fffcbd 	bl	204e0df0 <gicd_write_igroupr>
    204e1b00:	17ffffd4 	b	204e1a50 <gicv3_distif_init_restore+0x50>
    204e1b04:	510082c0 	sub	w0, w22, #0x20
    204e1b08:	2a1603e1 	mov	w1, w22
    204e1b0c:	927e7400 	and	x0, x0, #0xfffffffc
    204e1b10:	110012d6 	add	w22, w22, #0x4
    204e1b14:	8b000280 	add	x0, x20, x0
    204e1b18:	b960d402 	ldr	w2, [x0, #8404]
    204e1b1c:	aa1303e0 	mov	x0, x19
    204e1b20:	97fffcc7 	bl	204e0e3c <gicd_write_ipriorityr>
    204e1b24:	17ffffce 	b	204e1a5c <gicv3_distif_init_restore+0x5c>
    204e1b28:	510082c0 	sub	w0, w22, #0x20
    204e1b2c:	2a1603e1 	mov	w1, w22
    204e1b30:	110042d6 	add	w22, w22, #0x10
    204e1b34:	53047c00 	lsr	w0, w0, #4
    204e1b38:	9124b000 	add	x0, x0, #0x92c
    204e1b3c:	b8607a82 	ldr	w2, [x20, x0, lsl #2]
    204e1b40:	aa1303e0 	mov	x0, x19
    204e1b44:	97fffca1 	bl	204e0dc8 <gicd_write_icfgr>
    204e1b48:	17ffffc8 	b	204e1a68 <gicv3_distif_init_restore+0x68>
    204e1b4c:	510082c0 	sub	w0, w22, #0x20
    204e1b50:	2a1603e1 	mov	w1, w22
    204e1b54:	110082d6 	add	w22, w22, #0x20
    204e1b58:	53057c00 	lsr	w0, w0, #5
    204e1b5c:	8b000a80 	add	x0, x20, x0, lsl #2
    204e1b60:	b965a802 	ldr	w2, [x0, #9640]
    204e1b64:	aa1303e0 	mov	x0, x19
    204e1b68:	97fffcac 	bl	204e0e18 <gicd_write_igrpmodr>
    204e1b6c:	17ffffc2 	b	204e1a74 <gicv3_distif_init_restore+0x74>
    204e1b70:	510082c0 	sub	w0, w22, #0x20
    204e1b74:	2a1603e1 	mov	w1, w22
    204e1b78:	110042d6 	add	w22, w22, #0x10
    204e1b7c:	53047c00 	lsr	w0, w0, #4
    204e1b80:	8b000a80 	add	x0, x20, x0, lsl #2
    204e1b84:	b9662402 	ldr	w2, [x0, #9764]
    204e1b88:	aa1303e0 	mov	x0, x19
    204e1b8c:	97fffcd3 	bl	204e0ed8 <gicd_write_nsacr>
    204e1b90:	17ffffbc 	b	204e1a80 <gicv3_distif_init_restore+0x80>
    204e1b94:	f8607a82 	ldr	x2, [x20, x0, lsl #3]
    204e1b98:	91000400 	add	x0, x0, #0x1
    204e1b9c:	f8008422 	str	x2, [x1], #8
    204e1ba0:	17ffffbd 	b	204e1a94 <gicv3_distif_init_restore+0x94>
    204e1ba4:	510082c0 	sub	w0, w22, #0x20
    204e1ba8:	2a1603e1 	mov	w1, w22
    204e1bac:	110082d6 	add	w22, w22, #0x20
    204e1bb0:	53057c00 	lsr	w0, w0, #5
    204e1bb4:	911f6000 	add	x0, x0, #0x7d8
    204e1bb8:	b8607a82 	ldr	w2, [x20, x0, lsl #2]
    204e1bbc:	aa1303e0 	mov	x0, x19
    204e1bc0:	97fffcb2 	bl	204e0e88 <gicd_write_isenabler>
    204e1bc4:	17ffffb8 	b	204e1aa4 <gicv3_distif_init_restore+0xa4>
    204e1bc8:	510082c0 	sub	w0, w22, #0x20
    204e1bcc:	2a1603e1 	mov	w1, w22
    204e1bd0:	110082d6 	add	w22, w22, #0x20
    204e1bd4:	53057c00 	lsr	w0, w0, #5
    204e1bd8:	8b000a80 	add	x0, x20, x0, lsl #2
    204e1bdc:	b95fdc02 	ldr	w2, [x0, #8156]
    204e1be0:	aa1303e0 	mov	x0, x19
    204e1be4:	97fffcb3 	bl	204e0eb0 <gicd_write_ispendr>
    204e1be8:	17ffffb2 	b	204e1ab0 <gicv3_distif_init_restore+0xb0>
    204e1bec:	510082c0 	sub	w0, w22, #0x20
    204e1bf0:	2a1603e1 	mov	w1, w22
    204e1bf4:	110082d6 	add	w22, w22, #0x20
    204e1bf8:	53057c00 	lsr	w0, w0, #5
    204e1bfc:	8b000a80 	add	x0, x20, x0, lsl #2
    204e1c00:	b9605802 	ldr	w2, [x0, #8280]
    204e1c04:	aa1303e0 	mov	x0, x19
    204e1c08:	97fffc96 	bl	204e0e60 <gicd_write_isactiver>
    204e1c0c:	17ffffac 	b	204e1abc <gicv3_distif_init_restore+0xbc>

00000000204e1c10 <gicv3_raise_sgi>:
    204e1c10:	d3483c43 	ubfx	x3, x2, #8, #8
    204e1c14:	52800024 	mov	w4, #0x1                   	// #1
    204e1c18:	1ac22084 	lsl	w4, w4, w2
    204e1c1c:	92403c84 	and	x4, x4, #0xffff
    204e1c20:	aa034083 	orr	x3, x4, x3, lsl #16
    204e1c24:	d3609c44 	ubfx	x4, x2, #32, #8
    204e1c28:	d3505c42 	ubfx	x2, x2, #16, #8
    204e1c2c:	d3680c00 	ubfiz	x0, x0, #24, #4
    204e1c30:	d3607c42 	lsl	x2, x2, #32
    204e1c34:	aa04c042 	orr	x2, x2, x4, lsl #48
    204e1c38:	aa020062 	orr	x2, x3, x2
    204e1c3c:	aa000040 	orr	x0, x2, x0
    204e1c40:	d5033a9f 	dsb	ishst
    204e1c44:	7100043f 	cmp	w1, #0x1
    204e1c48:	54000100 	b.eq	204e1c68 <gicv3_raise_sgi+0x58>  // b.none
    204e1c4c:	7100083f 	cmp	w1, #0x2
    204e1c50:	54000080 	b.eq	204e1c60 <gicv3_raise_sgi+0x50>  // b.none
    204e1c54:	340000e1 	cbz	w1, 204e1c70 <gicv3_raise_sgi+0x60>
    204e1c58:	d5033fdf 	isb
    204e1c5c:	d65f03c0 	ret
    204e1c60:	d518cbe0 	msr	icc_sgi0r_el1, x0
    204e1c64:	17fffffd 	b	204e1c58 <gicv3_raise_sgi+0x48>
    204e1c68:	d518cbc0 	msr	icc_asgi1r_el1, x0
    204e1c6c:	17fffffb 	b	204e1c58 <gicv3_raise_sgi+0x48>
    204e1c70:	d518cba0 	msr	icc_sgi1r_el1, x0
    204e1c74:	17fffff9 	b	204e1c58 <gicv3_raise_sgi+0x48>

00000000204e1c78 <console_is_registered>:
    204e1c78:	90000061 	adrp	x1, 204ed000 <__STACKS_START__+0x1280>
    204e1c7c:	f9420821 	ldr	x1, [x1, #1040]
    204e1c80:	b5000061 	cbnz	x1, 204e1c8c <console_is_registered+0x14>
    204e1c84:	52800000 	mov	w0, #0x0                   	// #0
    204e1c88:	d65f03c0 	ret
    204e1c8c:	eb00003f 	cmp	x1, x0
    204e1c90:	54000060 	b.eq	204e1c9c <console_is_registered+0x24>  // b.none
    204e1c94:	f9400021 	ldr	x1, [x1]
    204e1c98:	17fffffa 	b	204e1c80 <console_is_registered+0x8>
    204e1c9c:	52800020 	mov	w0, #0x1                   	// #1
    204e1ca0:	17fffffa 	b	204e1c88 <console_is_registered+0x10>

00000000204e1ca4 <console_register>:
    204e1ca4:	a9bf7bfd 	stp	x29, x30, [sp, #-16]!
    204e1ca8:	aa0003e2 	mov	x2, x0
    204e1cac:	910003fd 	mov	x29, sp
    204e1cb0:	97fffff2 	bl	204e1c78 <console_is_registered>
    204e1cb4:	7100041f 	cmp	w0, #0x1
    204e1cb8:	540000a0 	b.eq	204e1ccc <console_register+0x28>  // b.none
    204e1cbc:	90000060 	adrp	x0, 204ed000 <__STACKS_START__+0x1280>
    204e1cc0:	f9420801 	ldr	x1, [x0, #1040]
    204e1cc4:	f9000041 	str	x1, [x2]
    204e1cc8:	f9020802 	str	x2, [x0, #1040]
    204e1ccc:	52800020 	mov	w0, #0x1                   	// #1
    204e1cd0:	a8c17bfd 	ldp	x29, x30, [sp], #16
    204e1cd4:	d65f03c0 	ret

00000000204e1cd8 <console_switch_state>:
    204e1cd8:	d0000041 	adrp	x1, 204eb000 <__RO_END_UNALIGNED__>
    204e1cdc:	b9047820 	str	w0, [x1, #1144]
    204e1ce0:	d65f03c0 	ret

00000000204e1ce4 <console_set_scope>:
    204e1ce4:	f9400402 	ldr	x2, [x0, #8]
    204e1ce8:	2a0103e1 	mov	w1, w1
    204e1cec:	9278dc42 	and	x2, x2, #0xffffffffffffff00
    204e1cf0:	aa010042 	orr	x2, x2, x1
    204e1cf4:	f9000402 	str	x2, [x0, #8]
    204e1cf8:	d65f03c0 	ret

00000000204e1cfc <console_putc>:
    204e1cfc:	a9bd7bfd 	stp	x29, x30, [sp, #-48]!
    204e1d00:	910003fd 	mov	x29, sp
    204e1d04:	a9025bf5 	stp	x21, x22, [sp, #32]
    204e1d08:	2a0003f5 	mov	w21, w0
    204e1d0c:	90000060 	adrp	x0, 204ed000 <__STACKS_START__+0x1280>
    204e1d10:	a90153f3 	stp	x19, x20, [sp, #16]
    204e1d14:	d0000056 	adrp	x22, 204eb000 <__RO_END_UNALIGNED__>
    204e1d18:	9111e2d6 	add	x22, x22, #0x478
    204e1d1c:	f9420813 	ldr	x19, [x0, #1040]
    204e1d20:	12800ff4 	mov	w20, #0xffffff80            	// #-128
    204e1d24:	b50000d3 	cbnz	x19, 204e1d3c <console_putc+0x40>
    204e1d28:	a9425bf5 	ldp	x21, x22, [sp, #32]
    204e1d2c:	2a1403e0 	mov	w0, w20
    204e1d30:	a94153f3 	ldp	x19, x20, [sp, #16]
    204e1d34:	a8c37bfd 	ldp	x29, x30, [sp], #48
    204e1d38:	d65f03c0 	ret
    204e1d3c:	f9400660 	ldr	x0, [x19, #8]
    204e1d40:	b94002c1 	ldr	w1, [x22]
    204e1d44:	ea00003f 	tst	x1, x0
    204e1d48:	54000060 	b.eq	204e1d54 <console_putc+0x58>  // b.none
    204e1d4c:	f9400a62 	ldr	x2, [x19, #16]
    204e1d50:	b50000a2 	cbnz	x2, 204e1d64 <console_putc+0x68>
    204e1d54:	2a1403e0 	mov	w0, w20
    204e1d58:	f9400273 	ldr	x19, [x19]
    204e1d5c:	2a0003f4 	mov	w20, w0
    204e1d60:	17fffff1 	b	204e1d24 <console_putc+0x28>
    204e1d64:	71002abf 	cmp	w21, #0xa
    204e1d68:	54000120 	b.eq	204e1d8c <console_putc+0x90>  // b.none
    204e1d6c:	f9400a62 	ldr	x2, [x19, #16]
    204e1d70:	aa1303e1 	mov	x1, x19
    204e1d74:	2a1503e0 	mov	w0, w21
    204e1d78:	d63f0040 	blr	x2
    204e1d7c:	3102029f 	cmn	w20, #0x80
    204e1d80:	7a401280 	ccmp	w20, w0, #0x0, ne	// ne = any
    204e1d84:	54fffe8d 	b.le	204e1d54 <console_putc+0x58>
    204e1d88:	17fffff4 	b	204e1d58 <console_putc+0x5c>
    204e1d8c:	3647ff00 	tbz	w0, #8, 204e1d6c <console_putc+0x70>
    204e1d90:	aa1303e1 	mov	x1, x19
    204e1d94:	528001a0 	mov	w0, #0xd                   	// #13
    204e1d98:	d63f0040 	blr	x2
    204e1d9c:	36fffe80 	tbz	w0, #31, 204e1d6c <console_putc+0x70>
    204e1da0:	17fffff7 	b	204e1d7c <console_putc+0x80>

00000000204e1da4 <putchar>:
    204e1da4:	a9be7bfd 	stp	x29, x30, [sp, #-32]!
    204e1da8:	910003fd 	mov	x29, sp
    204e1dac:	f9000bf3 	str	x19, [sp, #16]
    204e1db0:	2a0003f3 	mov	w19, w0
    204e1db4:	97ffffd2 	bl	204e1cfc <console_putc>
    204e1db8:	7100001f 	cmp	w0, #0x0
    204e1dbc:	5a9f0260 	csinv	w0, w19, wzr, eq	// eq = none
    204e1dc0:	f9400bf3 	ldr	x19, [sp, #16]
    204e1dc4:	a8c27bfd 	ldp	x29, x30, [sp], #32
    204e1dc8:	d65f03c0 	ret

00000000204e1dcc <console_flush>:
    204e1dcc:	a9be7bfd 	stp	x29, x30, [sp, #-32]!
    204e1dd0:	90000060 	adrp	x0, 204ed000 <__STACKS_START__+0x1280>
    204e1dd4:	910003fd 	mov	x29, sp
    204e1dd8:	a90153f3 	stp	x19, x20, [sp, #16]
    204e1ddc:	d0000054 	adrp	x20, 204eb000 <__RO_END_UNALIGNED__>
    204e1de0:	9111e294 	add	x20, x20, #0x478
    204e1de4:	f9420813 	ldr	x19, [x0, #1040]
    204e1de8:	b5000093 	cbnz	x19, 204e1df8 <console_flush+0x2c>
    204e1dec:	a94153f3 	ldp	x19, x20, [sp, #16]
    204e1df0:	a8c27bfd 	ldp	x29, x30, [sp], #32
    204e1df4:	d65f03c0 	ret
    204e1df8:	f9400660 	ldr	x0, [x19, #8]
    204e1dfc:	b9400281 	ldr	w1, [x20]
    204e1e00:	ea00003f 	tst	x1, x0
    204e1e04:	540000a0 	b.eq	204e1e18 <console_flush+0x4c>  // b.none
    204e1e08:	f9400e61 	ldr	x1, [x19, #24]
    204e1e0c:	b4000061 	cbz	x1, 204e1e18 <console_flush+0x4c>
    204e1e10:	aa1303e0 	mov	x0, x19
    204e1e14:	d63f0020 	blr	x1
    204e1e18:	f9400273 	ldr	x19, [x19]
    204e1e1c:	17fffff3 	b	204e1de8 <console_flush+0x1c>

00000000204e1e20 <udelay>:
    204e1e20:	a9bd7bfd 	stp	x29, x30, [sp, #-48]!
    204e1e24:	910003fd 	mov	x29, sp
    204e1e28:	f90013f5 	str	x21, [sp, #32]
    204e1e2c:	90000075 	adrp	x21, 204ed000 <__STACKS_START__+0x1280>
    204e1e30:	a90153f3 	stp	x19, x20, [sp, #16]
    204e1e34:	2a0003f3 	mov	w19, w0
    204e1e38:	f9420ea0 	ldr	x0, [x21, #1048]
    204e1e3c:	f9400000 	ldr	x0, [x0]
    204e1e40:	d63f0000 	blr	x0
    204e1e44:	2a0003f4 	mov	w20, w0
    204e1e48:	f9420ea1 	ldr	x1, [x21, #1048]
    204e1e4c:	29410420 	ldp	w0, w1, [x1, #8]
    204e1e50:	d1000402 	sub	x2, x0, #0x1
    204e1e54:	9ba10a73 	umaddl	x19, w19, w1, x2
    204e1e58:	9ac00a73 	udiv	x19, x19, x0
    204e1e5c:	91000673 	add	x19, x19, #0x1
    204e1e60:	f9420ea0 	ldr	x0, [x21, #1048]
    204e1e64:	f9400000 	ldr	x0, [x0]
    204e1e68:	d63f0000 	blr	x0
    204e1e6c:	4b000281 	sub	w1, w20, w0
    204e1e70:	eb13003f 	cmp	x1, x19
    204e1e74:	54ffff63 	b.cc	204e1e60 <udelay+0x40>  // b.lo, b.ul, b.last
    204e1e78:	a94153f3 	ldp	x19, x20, [sp, #16]
    204e1e7c:	f94013f5 	ldr	x21, [sp, #32]
    204e1e80:	a8c37bfd 	ldp	x29, x30, [sp], #48
    204e1e84:	d65f03c0 	ret

00000000204e1e88 <timer_init>:
    204e1e88:	90000061 	adrp	x1, 204ed000 <__STACKS_START__+0x1280>
    204e1e8c:	f9020c20 	str	x0, [x1, #1048]
    204e1e90:	d65f03c0 	ret

00000000204e1e94 <generic_delay_timeout_init_us>:
    204e1e94:	d53be002 	mrs	x2, cntfrq_el0
    204e1e98:	d53be021 	mrs	x1, cntpct_el0
    204e1e9c:	2a0003e0 	mov	w0, w0
    204e1ea0:	9b027c00 	mul	x0, x0, x2
    204e1ea4:	d2884802 	mov	x2, #0x4240                	// #16960
    204e1ea8:	f2a001e2 	movk	x2, #0xf, lsl #16
    204e1eac:	9ac20800 	udiv	x0, x0, x2
    204e1eb0:	8b010000 	add	x0, x0, x1
    204e1eb4:	d65f03c0 	ret

00000000204e1eb8 <generic_delay_timeout_elapsed>:
    204e1eb8:	d53be021 	mrs	x1, cntpct_el0
    204e1ebc:	eb01001f 	cmp	x0, x1
    204e1ec0:	1a9f27e0 	cset	w0, cc	// cc = lo, ul, last
    204e1ec4:	d65f03c0 	ret

00000000204e1ec8 <generic_delay_get_timer_value>:
    204e1ec8:	d53be020 	mrs	x0, cntpct_el0
    204e1ecc:	2a2003e0 	mvn	w0, w0
    204e1ed0:	d65f03c0 	ret

00000000204e1ed4 <generic_delay_timer_init_args>:
    204e1ed4:	2a0003e4 	mov	w4, w0
    204e1ed8:	90000063 	adrp	x3, 204ed000 <__STACKS_START__+0x1280>
    204e1edc:	91108060 	add	x0, x3, #0x420
    204e1ee0:	90000002 	adrp	x2, 204e1000 <gicv3_rdistif_mark_core_awake+0x18>
    204e1ee4:	913b2042 	add	x2, x2, #0xec8
    204e1ee8:	f9021062 	str	x2, [x3, #1056]
    204e1eec:	29010404 	stp	w4, w1, [x0, #8]
    204e1ef0:	90000001 	adrp	x1, 204e1000 <gicv3_rdistif_mark_core_awake+0x18>
    204e1ef4:	913a5021 	add	x1, x1, #0xe94
    204e1ef8:	f9000801 	str	x1, [x0, #16]
    204e1efc:	90000001 	adrp	x1, 204e1000 <gicv3_rdistif_mark_core_awake+0x18>
    204e1f00:	913ae021 	add	x1, x1, #0xeb8
    204e1f04:	f9000c01 	str	x1, [x0, #24]
    204e1f08:	17ffffe0 	b	204e1e88 <timer_init>

00000000204e1f0c <generic_delay_timer_init>:
    204e1f0c:	a9bf7bfd 	stp	x29, x30, [sp, #-16]!
    204e1f10:	910003fd 	mov	x29, sp
    204e1f14:	94001312 	bl	204e6b5c <plat_get_syscnt_freq2>
    204e1f18:	2a0003e1 	mov	w1, w0
    204e1f1c:	52800142 	mov	w2, #0xa                   	// #10
    204e1f20:	1ac20800 	udiv	w0, w0, w2
    204e1f24:	1b028400 	msub	w0, w0, w2, w1
    204e1f28:	350001a0 	cbnz	w0, 204e1f5c <generic_delay_timer_init+0x50>
    204e1f2c:	52884800 	mov	w0, #0x4240                	// #16960
    204e1f30:	72a001e0 	movk	w0, #0xf, lsl #16
    204e1f34:	1ac20800 	udiv	w0, w0, w2
    204e1f38:	1ac20821 	udiv	w1, w1, w2
    204e1f3c:	1ac20803 	udiv	w3, w0, w2
    204e1f40:	1ac20824 	udiv	w4, w1, w2
    204e1f44:	1b028063 	msub	w3, w3, w2, w0
    204e1f48:	1b028484 	msub	w4, w4, w2, w1
    204e1f4c:	2a040063 	orr	w3, w3, w4
    204e1f50:	34ffff23 	cbz	w3, 204e1f34 <generic_delay_timer_init+0x28>
    204e1f54:	a8c17bfd 	ldp	x29, x30, [sp], #16
    204e1f58:	17ffffdf 	b	204e1ed4 <generic_delay_timer_init_args>
    204e1f5c:	52884800 	mov	w0, #0x4240                	// #16960
    204e1f60:	72a001e0 	movk	w0, #0xf, lsl #16
    204e1f64:	17fffffc 	b	204e1f54 <generic_delay_timer_init+0x48>

00000000204e1f68 <trdc_get_mbc_base>:
    204e1f68:	7941e403 	ldrh	w3, [x0, #242]
    204e1f6c:	53134822 	lsl	w2, w1, #13
    204e1f70:	8b000040 	add	x0, x2, x0
    204e1f74:	12000c63 	and	w3, w3, #0xf
    204e1f78:	91404000 	add	x0, x0, #0x10, lsl #12
    204e1f7c:	6b01007f 	cmp	w3, w1
    204e1f80:	9a9f8000 	csel	x0, x0, xzr, hi	// hi = pmore
    204e1f84:	d65f03c0 	ret

00000000204e1f88 <trdc_get_mrc_base>:
    204e1f88:	b940f002 	ldr	w2, [x0, #240]
    204e1f8c:	53144c23 	lsl	w3, w1, #12
    204e1f90:	8b000060 	add	x0, x3, x0
    204e1f94:	d3587044 	ubfx	x4, x2, #24, #5
    204e1f98:	d3504c42 	ubfx	x2, x2, #16, #4
    204e1f9c:	6b01009f 	cmp	w4, w1
    204e1fa0:	53134842 	lsl	w2, w2, #13
    204e1fa4:	11404042 	add	w2, w2, #0x10, lsl #12
    204e1fa8:	8b224000 	add	x0, x0, w2, uxtw
    204e1fac:	9a9f8000 	csel	x0, x0, xzr, hi	// hi = pmore
    204e1fb0:	d65f03c0 	ret

00000000204e1fb4 <trdc_mda_set_cpu>:
    204e1fb4:	11010021 	add	w1, w1, #0x40
    204e1fb8:	394023e8 	ldrb	w8, [sp, #8]
    204e1fbc:	12001c63 	and	w3, w3, #0xff
    204e1fc0:	12001c84 	and	w4, w4, #0xff
    204e1fc4:	0b010c41 	add	w1, w2, w1, lsl #3
    204e1fc8:	12001ca5 	and	w5, w5, #0xff
    204e1fcc:	12001cc6 	and	w6, w6, #0xff
    204e1fd0:	12001ce7 	and	w7, w7, #0xff
    204e1fd4:	531e7421 	lsl	w1, w1, #2
    204e1fd8:	b8606822 	ldr	w2, [x1, x0]
    204e1fdc:	37e802a2 	tbnz	w2, #29, 204e2030 <trdc_mda_set_cpu+0x7c>
    204e1fe0:	394003e2 	ldrb	w2, [sp]
    204e1fe4:	53120463 	ubfiz	w3, w3, #14, #2
    204e1fe8:	531a04c6 	ubfiz	w6, w6, #6, #2
    204e1fec:	531c0484 	ubfiz	w4, w4, #4, #2
    204e1ff0:	12000ca5 	and	w5, w5, #0xf
    204e1ff4:	2a0300c6 	orr	w6, w6, w3
    204e1ff8:	12000c42 	and	w2, w2, #0xf
    204e1ffc:	2a050084 	orr	w4, w4, w5
    204e2000:	531814e7 	ubfiz	w7, w7, #8, #6
    204e2004:	2a0400c6 	orr	w6, w6, w4
    204e2008:	2a0200e7 	orr	w7, w7, w2
    204e200c:	2a0700c2 	orr	w2, w6, w7
    204e2010:	32010043 	orr	w3, w2, #0x80000000
    204e2014:	b8206823 	str	w3, [x1, x0]
    204e2018:	37000068 	tbnz	w8, #0, 204e2024 <trdc_mda_set_cpu+0x70>
    204e201c:	52800000 	mov	w0, #0x0                   	// #0
    204e2020:	d65f03c0 	ret
    204e2024:	32020442 	orr	w2, w2, #0xc0000000
    204e2028:	b8206822 	str	w2, [x1, x0]
    204e202c:	17fffffc 	b	204e201c <trdc_mda_set_cpu+0x68>
    204e2030:	128002a0 	mov	w0, #0xffffffea            	// #-22
    204e2034:	17fffffb 	b	204e2020 <trdc_mda_set_cpu+0x6c>

00000000204e2038 <trdc_mda_set_noncpu>:
    204e2038:	11010021 	add	w1, w1, #0x40
    204e203c:	12001c42 	and	w2, w2, #0xff
    204e2040:	12001c63 	and	w3, w3, #0xff
    204e2044:	12001c84 	and	w4, w4, #0xff
    204e2048:	531b6821 	lsl	w1, w1, #5
    204e204c:	12001ca5 	and	w5, w5, #0xff
    204e2050:	12001cc6 	and	w6, w6, #0xff
    204e2054:	b8606827 	ldr	w7, [x1, x0]
    204e2058:	36e801e7 	tbz	w7, #29, 204e2094 <trdc_mda_set_noncpu+0x5c>
    204e205c:	531a0463 	ubfiz	w3, w3, #6, #2
    204e2060:	531c0484 	ubfiz	w4, w4, #4, #2
    204e2064:	12000ca5 	and	w5, w5, #0xf
    204e2068:	2a040063 	orr	w3, w3, w4
    204e206c:	2a0220a2 	orr	w2, w5, w2, lsl #8
    204e2070:	2a020063 	orr	w3, w3, w2
    204e2074:	32010062 	orr	w2, w3, #0x80000000
    204e2078:	b8206822 	str	w2, [x1, x0]
    204e207c:	37000066 	tbnz	w6, #0, 204e2088 <trdc_mda_set_noncpu+0x50>
    204e2080:	52800000 	mov	w0, #0x0                   	// #0
    204e2084:	d65f03c0 	ret
    204e2088:	32020463 	orr	w3, w3, #0xc0000000
    204e208c:	b8206823 	str	w3, [x1, x0]
    204e2090:	17fffffc 	b	204e2080 <trdc_mda_set_noncpu+0x48>
    204e2094:	128002a0 	mov	w0, #0xffffffea            	// #-22
    204e2098:	17fffffb 	b	204e2084 <trdc_mda_set_noncpu+0x4c>

00000000204e209c <trdc_mbc_blk_num>:
    204e209c:	a9bf7bfd 	stp	x29, x30, [sp, #-16]!
    204e20a0:	2a0203e4 	mov	w4, w2
    204e20a4:	910003fd 	mov	x29, sp
    204e20a8:	97ffffb0 	bl	204e1f68 <trdc_get_mbc_base>
    204e20ac:	b40000a0 	cbz	x0, 204e20c0 <trdc_mbc_blk_num+0x24>
    204e20b0:	b8647800 	ldr	w0, [x0, x4, lsl #2]
    204e20b4:	12002400 	and	w0, w0, #0x3ff
    204e20b8:	a8c17bfd 	ldp	x29, x30, [sp], #16
    204e20bc:	d65f03c0 	ret
    204e20c0:	52800000 	mov	w0, #0x0                   	// #0
    204e20c4:	17fffffd 	b	204e20b8 <trdc_mbc_blk_num+0x1c>

00000000204e20c8 <trdc_mbc_set_control>:
    204e20c8:	a9bf7bfd 	stp	x29, x30, [sp, #-16]!
    204e20cc:	2a0203e4 	mov	w4, w2
    204e20d0:	aa0003e6 	mov	x6, x0
    204e20d4:	910003fd 	mov	x29, sp
    204e20d8:	2a0303e5 	mov	w5, w3
    204e20dc:	97ffffa3 	bl	204e1f68 <trdc_get_mbc_base>
    204e20e0:	f100001f 	cmp	x0, #0x0
    204e20e4:	7a471882 	ccmp	w4, #0x7, #0x2, ne	// ne = any
    204e20e8:	540003e8 	b.hi	204e2164 <trdc_mbc_set_control+0x9c>  // b.pmore
    204e20ec:	714018bf 	cmp	w5, #0x6, lsl #12
    204e20f0:	7a471880 	ccmp	w4, #0x7, #0x0, ne	// ne = any
    204e20f4:	540002e1 	b.ne	204e2150 <trdc_mbc_set_control+0x88>  // b.any
    204e20f8:	2a0103e7 	mov	w7, w1
    204e20fc:	b0000041 	adrp	x1, 204eb000 <__RO_END_UNALIGNED__>
    204e2100:	b0000042 	adrp	x2, 204eb000 <__RO_END_UNALIGNED__>
    204e2104:	91102042 	add	x2, x2, #0x408
    204e2108:	b9461c21 	ldr	w1, [x1, #1564]
    204e210c:	52800003 	mov	w3, #0x0                   	// #0
    204e2110:	6b03003f 	cmp	w1, w3
    204e2114:	540000c1 	b.ne	204e212c <trdc_mbc_set_control+0x64>  // b.any
    204e2118:	91002084 	add	x4, x4, #0x8
    204e211c:	b8247805 	str	w5, [x0, x4, lsl #2]
    204e2120:	52800000 	mov	w0, #0x0                   	// #0
    204e2124:	a8c17bfd 	ldp	x29, x30, [sp], #16
    204e2128:	d65f03c0 	ret
    204e212c:	f9400048 	ldr	x8, [x2]
    204e2130:	eb06011f 	cmp	x8, x6
    204e2134:	54000081 	b.ne	204e2144 <trdc_mbc_set_control+0x7c>  // b.any
    204e2138:	39402048 	ldrb	w8, [x2, #8]
    204e213c:	6b07011f 	cmp	w8, w7
    204e2140:	540000e0 	b.eq	204e215c <trdc_mbc_set_control+0x94>  // b.none
    204e2144:	11000463 	add	w3, w3, #0x1
    204e2148:	91004042 	add	x2, x2, #0x10
    204e214c:	17fffff1 	b	204e2110 <trdc_mbc_set_control+0x48>
    204e2150:	710000bf 	cmp	w5, #0x0
    204e2154:	7a461880 	ccmp	w4, #0x6, #0x0, ne	// ne = any
    204e2158:	54fffe01 	b.ne	204e2118 <trdc_mbc_set_control+0x50>  // b.any
    204e215c:	12800000 	mov	w0, #0xffffffff            	// #-1
    204e2160:	17fffff1 	b	204e2124 <trdc_mbc_set_control+0x5c>
    204e2164:	128002a0 	mov	w0, #0xffffffea            	// #-22
    204e2168:	17ffffef 	b	204e2124 <trdc_mbc_set_control+0x5c>

00000000204e216c <trdc_mbc_blk_config>:
    204e216c:	a9bf7bfd 	stp	x29, x30, [sp, #-16]!
    204e2170:	2a0203e7 	mov	w7, w2
    204e2174:	2a0303e9 	mov	w9, w3
    204e2178:	910003fd 	mov	x29, sp
    204e217c:	97ffff7b 	bl	204e1f68 <trdc_get_mbc_base>
    204e2180:	f100001f 	cmp	x0, #0x0
    204e2184:	7a4718c2 	ccmp	w6, #0x7, #0x2, ne	// ne = any
    204e2188:	540003a8 	b.hi	204e21fc <trdc_mbc_blk_config+0x90>  // b.pmore
    204e218c:	12001ca5 	and	w5, w5, #0xff
    204e2190:	7100093f 	cmp	w9, #0x2
    204e2194:	54000380 	b.eq	204e2204 <trdc_mbc_blk_config+0x98>  // b.none
    204e2198:	540002e8 	b.hi	204e21f4 <trdc_mbc_blk_config+0x88>  // b.pmore
    204e219c:	53037c81 	lsr	w1, w4, #3
    204e21a0:	52801008 	mov	w8, #0x80                  	// #128
    204e21a4:	11018022 	add	w2, w1, #0x60
    204e21a8:	11004021 	add	w1, w1, #0x10
    204e21ac:	7100013f 	cmp	w9, #0x0
    204e21b0:	9ba808e2 	umaddl	x2, w7, w8, x2
    204e21b4:	9ba804e8 	umaddl	x8, w7, w8, x1
    204e21b8:	8b020802 	add	x2, x0, x2, lsl #2
    204e21bc:	8b080808 	add	x8, x0, x8, lsl #2
    204e21c0:	9a820100 	csel	x0, x8, x2, eq	// eq = none
    204e21c4:	b9400002 	ldr	w2, [x0]
    204e21c8:	531e0884 	ubfiz	w4, w4, #2, #3
    204e21cc:	528001e1 	mov	w1, #0xf                   	// #15
    204e21d0:	1ac42021 	lsl	w1, w1, w4
    204e21d4:	0a210041 	bic	w1, w2, w1
    204e21d8:	360002e5 	tbz	w5, #0, 204e2234 <trdc_mbc_blk_config+0xc8>
    204e21dc:	1ac420c4 	lsl	w4, w6, w4
    204e21e0:	2a010084 	orr	w4, w4, w1
    204e21e4:	b9000004 	str	w4, [x0]
    204e21e8:	52800000 	mov	w0, #0x0                   	// #0
    204e21ec:	a8c17bfd 	ldp	x29, x30, [sp], #16
    204e21f0:	d65f03c0 	ret
    204e21f4:	71000d3f 	cmp	w9, #0x3
    204e21f8:	54000120 	b.eq	204e221c <trdc_mbc_blk_config+0xb0>  // b.none
    204e21fc:	128002a0 	mov	w0, #0xffffffea            	// #-22
    204e2200:	17fffffb 	b	204e21ec <trdc_mbc_blk_config+0x80>
    204e2204:	53037c81 	lsr	w1, w4, #3
    204e2208:	52801002 	mov	w2, #0x80                  	// #128
    204e220c:	1101a821 	add	w1, w1, #0x6a
    204e2210:	9ba204e1 	umaddl	x1, w7, w2, x1
    204e2214:	8b010800 	add	x0, x0, x1, lsl #2
    204e2218:	17ffffeb 	b	204e21c4 <trdc_mbc_blk_config+0x58>
    204e221c:	53037c81 	lsr	w1, w4, #3
    204e2220:	52801002 	mov	w2, #0x80                  	// #128
    204e2224:	1101d021 	add	w1, w1, #0x74
    204e2228:	9ba204e7 	umaddl	x7, w7, w2, x1
    204e222c:	8b070800 	add	x0, x0, x7, lsl #2
    204e2230:	17ffffe5 	b	204e21c4 <trdc_mbc_blk_config+0x58>
    204e2234:	321d00c6 	orr	w6, w6, #0x8
    204e2238:	1ac420c6 	lsl	w6, w6, w4
    204e223c:	2a0100c6 	orr	w6, w6, w1
    204e2240:	b9000006 	str	w6, [x0]
    204e2244:	17ffffe9 	b	204e21e8 <trdc_mbc_blk_config+0x7c>

00000000204e2248 <trdc_mrc_set_control>:
    204e2248:	a9bf7bfd 	stp	x29, x30, [sp, #-16]!
    204e224c:	2a0203e5 	mov	w5, w2
    204e2250:	2a0303e6 	mov	w6, w3
    204e2254:	910003fd 	mov	x29, sp
    204e2258:	97ffff4c 	bl	204e1f88 <trdc_get_mrc_base>
    204e225c:	f100001f 	cmp	x0, #0x0
    204e2260:	7a4718a2 	ccmp	w5, #0x7, #0x2, ne	// ne = any
    204e2264:	540000c8 	b.hi	204e227c <trdc_mrc_set_control+0x34>  // b.pmore
    204e2268:	910020a5 	add	x5, x5, #0x8
    204e226c:	b8257806 	str	w6, [x0, x5, lsl #2]
    204e2270:	52800000 	mov	w0, #0x0                   	// #0
    204e2274:	a8c17bfd 	ldp	x29, x30, [sp], #16
    204e2278:	d65f03c0 	ret
    204e227c:	128002a0 	mov	w0, #0xffffffea            	// #-22
    204e2280:	17fffffd 	b	204e2274 <trdc_mrc_set_control+0x2c>

00000000204e2284 <trdc_mrc_rgn_config>:
    204e2284:	a9bf7bfd 	stp	x29, x30, [sp, #-16]!
    204e2288:	2a0203e8 	mov	w8, w2
    204e228c:	2a0303ea 	mov	w10, w3
    204e2290:	910003fd 	mov	x29, sp
    204e2294:	2a0403e9 	mov	w9, w4
    204e2298:	97ffff3c 	bl	204e1f88 <trdc_get_mrc_base>
    204e229c:	f100001f 	cmp	x0, #0x0
    204e22a0:	7a4718e2 	ccmp	w7, #0x7, #0x2, ne	// ne = any
    204e22a4:	54000368 	b.hi	204e2310 <trdc_mrc_rgn_config+0x8c>  // b.pmore
    204e22a8:	71003d5f 	cmp	w10, #0xf
    204e22ac:	54000328 	b.hi	204e2310 <trdc_mrc_rgn_config+0x8c>  // b.pmore
    204e22b0:	2a0a03e3 	mov	w3, w10
    204e22b4:	52800402 	mov	w2, #0x20                  	// #32
    204e22b8:	510004a1 	sub	w1, w5, #0x1
    204e22bc:	12001cc6 	and	w6, w6, #0xff
    204e22c0:	0b090021 	add	w1, w1, w9
    204e22c4:	12124529 	and	w9, w9, #0xffffc000
    204e22c8:	9ba20d02 	umaddl	x2, w8, w2, x3
    204e22cc:	8b081468 	add	x8, x3, x8, lsl #5
    204e22d0:	91002108 	add	x8, x8, #0x8
    204e22d4:	2a070127 	orr	w7, w9, w7
    204e22d8:	91002042 	add	x2, x2, #0x8
    204e22dc:	12124421 	and	w1, w1, #0xffffc000
    204e22e0:	d37df108 	lsl	x8, x8, #3
    204e22e4:	8b020c02 	add	x2, x0, x2, lsl #3
    204e22e8:	b8286807 	str	w7, [x0, x8]
    204e22ec:	360000c6 	tbz	w6, #0, 204e2304 <trdc_mrc_rgn_config+0x80>
    204e22f0:	32000021 	orr	w1, w1, #0x1
    204e22f4:	52800000 	mov	w0, #0x0                   	// #0
    204e22f8:	b9000441 	str	w1, [x2, #4]
    204e22fc:	a8c17bfd 	ldp	x29, x30, [sp], #16
    204e2300:	d65f03c0 	ret
    204e2304:	52800220 	mov	w0, #0x11                  	// #17
    204e2308:	2a000021 	orr	w1, w1, w0
    204e230c:	17fffffa 	b	204e22f4 <trdc_mrc_rgn_config+0x70>
    204e2310:	128002a0 	mov	w0, #0xffffffea            	// #-22
    204e2314:	17fffffa 	b	204e22fc <trdc_mrc_rgn_config+0x78>

00000000204e2318 <trdc_mgr_mbc_setup>:
    204e2318:	f940000b 	ldr	x11, [x0]
    204e231c:	aa0003ea 	mov	x10, x0
    204e2320:	b9400160 	ldr	w0, [x11]
    204e2324:	367004a0 	tbz	w0, #14, 204e23b8 <trdc_mgr_mbc_setup+0xa0>
    204e2328:	a9bf7bfd 	stp	x29, x30, [sp, #-16]!
    204e232c:	5280000c 	mov	w12, #0x0                   	// #0
    204e2330:	aa0b03e0 	mov	x0, x11
    204e2334:	910003fd 	mov	x29, sp
    204e2338:	3940214d 	ldrb	w13, [x10, #8]
    204e233c:	528c0003 	mov	w3, #0x6000                	// #24576
    204e2340:	528000e2 	mov	w2, #0x7                   	// #7
    204e2344:	2a0d03e1 	mov	w1, w13
    204e2348:	97ffff60 	bl	204e20c8 <trdc_mbc_set_control>
    204e234c:	39402944 	ldrb	w4, [x10, #10]
    204e2350:	2a0c03e2 	mov	w2, w12
    204e2354:	3940254e 	ldrb	w14, [x10, #9]
    204e2358:	2a0d03e1 	mov	w1, w13
    204e235c:	528000e6 	mov	w6, #0x7                   	// #7
    204e2360:	52800025 	mov	w5, #0x1                   	// #1
    204e2364:	2a0e03e3 	mov	w3, w14
    204e2368:	aa0b03e0 	mov	x0, x11
    204e236c:	97ffff80 	bl	204e216c <trdc_mbc_blk_config>
    204e2370:	39402d44 	ldrb	w4, [x10, #11]
    204e2374:	2a0c03e2 	mov	w2, w12
    204e2378:	2a0e03e3 	mov	w3, w14
    204e237c:	2a0d03e1 	mov	w1, w13
    204e2380:	aa0b03e0 	mov	x0, x11
    204e2384:	528000e6 	mov	w6, #0x7                   	// #7
    204e2388:	52800025 	mov	w5, #0x1                   	// #1
    204e238c:	1100058c 	add	w12, w12, #0x1
    204e2390:	97ffff77 	bl	204e216c <trdc_mbc_blk_config>
    204e2394:	7100419f 	cmp	w12, #0x10
    204e2398:	54fffda1 	b.ne	204e234c <trdc_mgr_mbc_setup+0x34>  // b.any
    204e239c:	a8c17bfd 	ldp	x29, x30, [sp], #16
    204e23a0:	528c0003 	mov	w3, #0x6000                	// #24576
    204e23a4:	2a0d03e1 	mov	w1, w13
    204e23a8:	aa0b03e0 	mov	x0, x11
    204e23ac:	72b00003 	movk	w3, #0x8000, lsl #16
    204e23b0:	528000e2 	mov	w2, #0x7                   	// #7
    204e23b4:	17ffff45 	b	204e20c8 <trdc_mbc_set_control>
    204e23b8:	d65f03c0 	ret

00000000204e23bc <trdc_mgr_fused_slot_setup>:
    204e23bc:	a9be7bfd 	stp	x29, x30, [sp, #-32]!
    204e23c0:	910003fd 	mov	x29, sp
    204e23c4:	f9000bf3 	str	x19, [sp, #16]
    204e23c8:	aa0003f3 	mov	x19, x0
    204e23cc:	f9400000 	ldr	x0, [x0]
    204e23d0:	b9400001 	ldr	w1, [x0]
    204e23d4:	36700181 	tbz	w1, #14, 204e2404 <trdc_mgr_fused_slot_setup+0x48>
    204e23d8:	39402a61 	ldrb	w1, [x19, #10]
    204e23dc:	528000c2 	mov	w2, #0x6                   	// #6
    204e23e0:	52800003 	mov	w3, #0x0                   	// #0
    204e23e4:	97ffff39 	bl	204e20c8 <trdc_mbc_set_control>
    204e23e8:	39402260 	ldrb	w0, [x19, #8]
    204e23ec:	94001713 	bl	204e8038 <trdc_fuse_read>
    204e23f0:	39402662 	ldrb	w2, [x19, #9]
    204e23f4:	52800021 	mov	w1, #0x1                   	// #1
    204e23f8:	1ac22021 	lsl	w1, w1, w2
    204e23fc:	6a00003f 	tst	w1, w0
    204e2400:	540002c1 	b.ne	204e2458 <trdc_mgr_fused_slot_setup+0x9c>  // b.any
    204e2404:	f9400bf3 	ldr	x19, [sp, #16]
    204e2408:	a8c27bfd 	ldp	x29, x30, [sp], #32
    204e240c:	d65f03c0 	ret
    204e2410:	5280000b 	mov	w11, #0x0                   	// #0
    204e2414:	f9400260 	ldr	x0, [x19]
    204e2418:	2a0b03e2 	mov	w2, w11
    204e241c:	39402e63 	ldrb	w3, [x19, #11]
    204e2420:	1100056b 	add	w11, w11, #0x1
    204e2424:	39402a61 	ldrb	w1, [x19, #10]
    204e2428:	528000c6 	mov	w6, #0x6                   	// #6
    204e242c:	39403264 	ldrb	w4, [x19, #12]
    204e2430:	52800025 	mov	w5, #0x1                   	// #1
    204e2434:	0b0a0084 	add	w4, w4, w10
    204e2438:	97ffff4d 	bl	204e216c <trdc_mbc_blk_config>
    204e243c:	7100417f 	cmp	w11, #0x10
    204e2440:	54fffea1 	b.ne	204e2414 <trdc_mgr_fused_slot_setup+0x58>  // b.any
    204e2444:	1100054a 	add	w10, w10, #0x1
    204e2448:	39403660 	ldrb	w0, [x19, #13]
    204e244c:	6b0a001f 	cmp	w0, w10
    204e2450:	54fffe08 	b.hi	204e2410 <trdc_mgr_fused_slot_setup+0x54>  // b.pmore
    204e2454:	17ffffec 	b	204e2404 <trdc_mgr_fused_slot_setup+0x48>
    204e2458:	5280000a 	mov	w10, #0x0                   	// #0
    204e245c:	17fffffb 	b	204e2448 <trdc_mgr_fused_slot_setup+0x8c>

00000000204e2460 <trdc_setup>:
    204e2460:	a9bd7bfd 	stp	x29, x30, [sp, #-48]!
    204e2464:	aa0003eb 	mov	x11, x0
    204e2468:	910003fd 	mov	x29, sp
    204e246c:	f940000c 	ldr	x12, [x0]
    204e2470:	a90153f3 	stp	x19, x20, [sp, #16]
    204e2474:	b9400180 	ldr	w0, [x12]
    204e2478:	f90013f5 	str	x21, [sp, #32]
    204e247c:	377804a0 	tbnz	w0, #15, 204e2510 <trdc_setup+0xb0>
    204e2480:	b9400180 	ldr	w0, [x12]
    204e2484:	377009a0 	tbnz	w0, #14, 204e25b8 <trdc_setup+0x158>
    204e2488:	a94153f3 	ldp	x19, x20, [sp, #16]
    204e248c:	f94013f5 	ldr	x21, [sp, #32]
    204e2490:	a8c37bfd 	ldp	x29, x30, [sp], #48
    204e2494:	d65f03c0 	ret
    204e2498:	f9401561 	ldr	x1, [x11, #40]
    204e249c:	d37d7ce0 	ubfiz	x0, x7, #3, #32
    204e24a0:	110004e7 	add	w7, w7, #0x1
    204e24a4:	8b000022 	add	x2, x1, x0
    204e24a8:	38606821 	ldrb	w1, [x1, x0]
    204e24ac:	aa0c03e0 	mov	x0, x12
    204e24b0:	b9400443 	ldr	w3, [x2, #4]
    204e24b4:	39400442 	ldrb	w2, [x2, #1]
    204e24b8:	2a080063 	orr	w3, w3, w8
    204e24bc:	97ffff63 	bl	204e2248 <trdc_mrc_set_control>
    204e24c0:	b9403160 	ldr	w0, [x11, #48]
    204e24c4:	6b07001f 	cmp	w0, w7
    204e24c8:	54fffe88 	b.hi	204e2498 <trdc_setup+0x38>  // b.pmore
    204e24cc:	5280000d 	mov	w13, #0x0                   	// #0
    204e24d0:	b9404160 	ldr	w0, [x11, #64]
    204e24d4:	6b0d001f 	cmp	w0, w13
    204e24d8:	54fffd49 	b.ls	204e2480 <trdc_setup+0x20>  // b.plast
    204e24dc:	f9401d68 	ldr	x8, [x11, #56]
    204e24e0:	d37c7da1 	ubfiz	x1, x13, #4, #32
    204e24e4:	110005ad 	add	w13, w13, #0x1
    204e24e8:	8b010100 	add	x0, x8, x1
    204e24ec:	38616901 	ldrb	w1, [x8, x1]
    204e24f0:	39403007 	ldrb	w7, [x0, #12]
    204e24f4:	39403406 	ldrb	w6, [x0, #13]
    204e24f8:	39400803 	ldrb	w3, [x0, #2]
    204e24fc:	39400402 	ldrb	w2, [x0, #1]
    204e2500:	29409404 	ldp	w4, w5, [x0, #4]
    204e2504:	aa0c03e0 	mov	x0, x12
    204e2508:	97ffff5f 	bl	204e2284 <trdc_mrc_rgn_config>
    204e250c:	17fffff1 	b	204e24d0 <trdc_setup+0x70>
    204e2510:	52800007 	mov	w7, #0x0                   	// #0
    204e2514:	528eeee8 	mov	w8, #0x7777                	// #30583
    204e2518:	17ffffea 	b	204e24c0 <trdc_setup+0x60>
    204e251c:	f9400561 	ldr	x1, [x11, #8]
    204e2520:	d37d7d20 	ubfiz	x0, x9, #3, #32
    204e2524:	11000529 	add	w9, w9, #0x1
    204e2528:	8b000022 	add	x2, x1, x0
    204e252c:	38606821 	ldrb	w1, [x1, x0]
    204e2530:	aa0c03e0 	mov	x0, x12
    204e2534:	b9400443 	ldr	w3, [x2, #4]
    204e2538:	39400442 	ldrb	w2, [x2, #1]
    204e253c:	2a0a0063 	orr	w3, w3, w10
    204e2540:	97fffee2 	bl	204e20c8 <trdc_mbc_set_control>
    204e2544:	b9401160 	ldr	w0, [x11, #16]
    204e2548:	6b09001f 	cmp	w0, w9
    204e254c:	54fffe88 	b.hi	204e251c <trdc_setup+0xbc>  // b.pmore
    204e2550:	b0000054 	adrp	x20, 204eb000 <__RO_END_UNALIGNED__>
    204e2554:	91187294 	add	x20, x20, #0x61c
    204e2558:	52800012 	mov	w18, #0x0                   	// #0
    204e255c:	b0000055 	adrp	x21, 204eb000 <__RO_END_UNALIGNED__>
    204e2560:	b9402160 	ldr	w0, [x11, #32]
    204e2564:	6b12001f 	cmp	w0, w18
    204e2568:	54fff909 	b.ls	204e2488 <trdc_setup+0x28>  // b.plast
    204e256c:	528000c0 	mov	w0, #0x6                   	// #6
    204e2570:	f9400d61 	ldr	x1, [x11, #24]
    204e2574:	9ba07e40 	umull	x0, w18, w0
    204e2578:	8b00002a 	add	x10, x1, x0
    204e257c:	3860682e 	ldrb	w14, [x1, x0]
    204e2580:	39400d44 	ldrb	w4, [x10, #3]
    204e2584:	3940094f 	ldrb	w15, [x10, #2]
    204e2588:	7103fc9f 	cmp	w4, #0xff
    204e258c:	54000601 	b.ne	204e264c <trdc_setup+0x1ec>  // b.any
    204e2590:	2a0f03e2 	mov	w2, w15
    204e2594:	2a0e03e1 	mov	w1, w14
    204e2598:	aa0c03e0 	mov	x0, x12
    204e259c:	97fffec0 	bl	204e209c <trdc_mbc_blk_num>
    204e25a0:	2a0003f3 	mov	w19, w0
    204e25a4:	5280000d 	mov	w13, #0x0                   	// #0
    204e25a8:	6b1301bf 	cmp	w13, w19
    204e25ac:	540000c1 	b.ne	204e25c4 <trdc_setup+0x164>  // b.any
    204e25b0:	11000652 	add	w18, w18, #0x1
    204e25b4:	17ffffeb 	b	204e2560 <trdc_setup+0x100>
    204e25b8:	52800009 	mov	w9, #0x0                   	// #0
    204e25bc:	528eeeea 	mov	w10, #0x7777                	// #30583
    204e25c0:	17ffffe1 	b	204e2544 <trdc_setup+0xe4>
    204e25c4:	b9400281 	ldr	w1, [x20]
    204e25c8:	911022a2 	add	x2, x21, #0x408
    204e25cc:	52800000 	mov	w0, #0x0                   	// #0
    204e25d0:	6b01001f 	cmp	w0, w1
    204e25d4:	54000161 	b.ne	204e2600 <trdc_setup+0x1a0>  // b.any
    204e25d8:	39401146 	ldrb	w6, [x10, #4]
    204e25dc:	2a0d03e4 	mov	w4, w13
    204e25e0:	39401545 	ldrb	w5, [x10, #5]
    204e25e4:	2a0f03e3 	mov	w3, w15
    204e25e8:	39400542 	ldrb	w2, [x10, #1]
    204e25ec:	2a0e03e1 	mov	w1, w14
    204e25f0:	aa0c03e0 	mov	x0, x12
    204e25f4:	97fffede 	bl	204e216c <trdc_mbc_blk_config>
    204e25f8:	110005ad 	add	w13, w13, #0x1
    204e25fc:	17ffffeb 	b	204e25a8 <trdc_setup+0x148>
    204e2600:	f9400043 	ldr	x3, [x2]
    204e2604:	eb03019f 	cmp	x12, x3
    204e2608:	540001c1 	b.ne	204e2640 <trdc_setup+0x1e0>  // b.any
    204e260c:	39402043 	ldrb	w3, [x2, #8]
    204e2610:	6b0e007f 	cmp	w3, w14
    204e2614:	54000161 	b.ne	204e2640 <trdc_setup+0x1e0>  // b.any
    204e2618:	39402443 	ldrb	w3, [x2, #9]
    204e261c:	6b0f007f 	cmp	w3, w15
    204e2620:	54000101 	b.ne	204e2640 <trdc_setup+0x1e0>  // b.any
    204e2624:	39402844 	ldrb	w4, [x2, #10]
    204e2628:	12003da3 	and	w3, w13, #0xffff
    204e262c:	6b2d209f 	cmp	w4, w13, uxth
    204e2630:	54fffe40 	b.eq	204e25f8 <trdc_setup+0x198>  // b.none
    204e2634:	39402c44 	ldrb	w4, [x2, #11]
    204e2638:	6b03009f 	cmp	w4, w3
    204e263c:	54fffde0 	b.eq	204e25f8 <trdc_setup+0x198>  // b.none
    204e2640:	11000400 	add	w0, w0, #0x1
    204e2644:	91004042 	add	x2, x2, #0x10
    204e2648:	17ffffe2 	b	204e25d0 <trdc_setup+0x170>
    204e264c:	39401146 	ldrb	w6, [x10, #4]
    204e2650:	2a0f03e3 	mov	w3, w15
    204e2654:	39401545 	ldrb	w5, [x10, #5]
    204e2658:	2a0e03e1 	mov	w1, w14
    204e265c:	39400542 	ldrb	w2, [x10, #1]
    204e2660:	aa0c03e0 	mov	x0, x12
    204e2664:	97fffec2 	bl	204e216c <trdc_mbc_blk_config>
    204e2668:	17ffffd2 	b	204e25b0 <trdc_setup+0x150>

00000000204e266c <trdc_try_lockup>:
    204e266c:	a9bf7bfd 	stp	x29, x30, [sp, #-16]!
    204e2670:	aa0003e9 	mov	x9, x0
    204e2674:	910003fd 	mov	x29, sp
    204e2678:	f940000b 	ldr	x11, [x0]
    204e267c:	b9400160 	ldr	w0, [x11]
    204e2680:	37780260 	tbnz	w0, #15, 204e26cc <trdc_try_lockup+0x60>
    204e2684:	b9400160 	ldr	w0, [x11]
    204e2688:	37700460 	tbnz	w0, #14, 204e2714 <trdc_try_lockup+0xa8>
    204e268c:	a8c17bfd 	ldp	x29, x30, [sp], #16
    204e2690:	d65f03c0 	ret
    204e2694:	f9401521 	ldr	x1, [x9, #40]
    204e2698:	d37d7ce0 	ubfiz	x0, x7, #3, #32
    204e269c:	110004e7 	add	w7, w7, #0x1
    204e26a0:	8b000022 	add	x2, x1, x0
    204e26a4:	38606821 	ldrb	w1, [x1, x0]
    204e26a8:	aa0b03e0 	mov	x0, x11
    204e26ac:	b9400443 	ldr	w3, [x2, #4]
    204e26b0:	39400442 	ldrb	w2, [x2, #1]
    204e26b4:	0a080063 	and	w3, w3, w8
    204e26b8:	97fffee4 	bl	204e2248 <trdc_mrc_set_control>
    204e26bc:	b9403120 	ldr	w0, [x9, #48]
    204e26c0:	6b07001f 	cmp	w0, w7
    204e26c4:	54fffe88 	b.hi	204e2694 <trdc_try_lockup+0x28>  // b.pmore
    204e26c8:	17ffffef 	b	204e2684 <trdc_try_lockup+0x18>
    204e26cc:	528eeee8 	mov	w8, #0x7777                	// #30583
    204e26d0:	52800007 	mov	w7, #0x0                   	// #0
    204e26d4:	72b00008 	movk	w8, #0x8000, lsl #16
    204e26d8:	17fffff9 	b	204e26bc <trdc_try_lockup+0x50>
    204e26dc:	f9400521 	ldr	x1, [x9, #8]
    204e26e0:	d37d7d40 	ubfiz	x0, x10, #3, #32
    204e26e4:	1100054a 	add	w10, w10, #0x1
    204e26e8:	8b000022 	add	x2, x1, x0
    204e26ec:	38606821 	ldrb	w1, [x1, x0]
    204e26f0:	aa0b03e0 	mov	x0, x11
    204e26f4:	b9400443 	ldr	w3, [x2, #4]
    204e26f8:	39400442 	ldrb	w2, [x2, #1]
    204e26fc:	0a0c0063 	and	w3, w3, w12
    204e2700:	97fffe72 	bl	204e20c8 <trdc_mbc_set_control>
    204e2704:	b9401120 	ldr	w0, [x9, #16]
    204e2708:	6b0a001f 	cmp	w0, w10
    204e270c:	54fffe88 	b.hi	204e26dc <trdc_try_lockup+0x70>  // b.pmore
    204e2710:	17ffffdf 	b	204e268c <trdc_try_lockup+0x20>
    204e2714:	528eeeec 	mov	w12, #0x7777                	// #30583
    204e2718:	5280000a 	mov	w10, #0x0                   	// #0
    204e271c:	72b0000c 	movk	w12, #0x8000, lsl #16
    204e2720:	17fffff9 	b	204e2704 <trdc_try_lockup+0x98>

00000000204e2724 <find_erratum_entry>:
    204e2724:	a9be7bfd 	stp	x29, x30, [sp, #-32]!
    204e2728:	910003fd 	mov	x29, sp
    204e272c:	f9000bf3 	str	x19, [sp, #16]
    204e2730:	2a0003f3 	mov	w19, w0
    204e2734:	9400194f 	bl	204e8c70 <get_cpu_ops_ptr>
    204e2738:	aa0003e1 	mov	x1, x0
    204e273c:	f9401400 	ldr	x0, [x0, #40]
    204e2740:	f9401821 	ldr	x1, [x1, #48]
    204e2744:	d1004021 	sub	x1, x1, #0x10
    204e2748:	eb01001f 	cmp	x0, x1
    204e274c:	540000a9 	b.ls	204e2760 <find_erratum_entry+0x3c>  // b.plast
    204e2750:	d2800000 	mov	x0, #0x0                   	// #0
    204e2754:	f9400bf3 	ldr	x19, [sp, #16]
    204e2758:	a8c27bfd 	ldp	x29, x30, [sp], #32
    204e275c:	d65f03c0 	ret
    204e2760:	39402003 	ldrb	w3, [x0, #8]
    204e2764:	39402402 	ldrb	w2, [x0, #9]
    204e2768:	aa022062 	orr	x2, x3, x2, lsl #8
    204e276c:	39402803 	ldrb	w3, [x0, #10]
    204e2770:	aa034043 	orr	x3, x2, x3, lsl #16
    204e2774:	39402c02 	ldrb	w2, [x0, #11]
    204e2778:	aa026062 	orr	x2, x3, x2, lsl #24
    204e277c:	6b02027f 	cmp	w19, w2
    204e2780:	54fffea0 	b.eq	204e2754 <find_erratum_entry+0x30>  // b.none
    204e2784:	91004000 	add	x0, x0, #0x10
    204e2788:	17fffff0 	b	204e2748 <find_erratum_entry+0x24>

00000000204e278c <check_erratum_applies>:
    204e278c:	a9be7bfd 	stp	x29, x30, [sp, #-32]!
    204e2790:	910003fd 	mov	x29, sp
    204e2794:	a90153f3 	stp	x19, x20, [sp, #16]
    204e2798:	2a0103f4 	mov	w20, w1
    204e279c:	94001947 	bl	204e8cb8 <cpu_get_rev_var>
    204e27a0:	aa0003f3 	mov	x19, x0
    204e27a4:	2a1403e0 	mov	w0, w20
    204e27a8:	97ffffdf 	bl	204e2724 <find_erratum_entry>
    204e27ac:	b40002a0 	cbz	x0, 204e2800 <check_erratum_applies+0x74>
    204e27b0:	39400002 	ldrb	w2, [x0]
    204e27b4:	39400401 	ldrb	w1, [x0, #1]
    204e27b8:	aa012041 	orr	x1, x2, x1, lsl #8
    204e27bc:	39400802 	ldrb	w2, [x0, #2]
    204e27c0:	aa024022 	orr	x2, x1, x2, lsl #16
    204e27c4:	39400c01 	ldrb	w1, [x0, #3]
    204e27c8:	aa016041 	orr	x1, x2, x1, lsl #24
    204e27cc:	39401002 	ldrb	w2, [x0, #4]
    204e27d0:	aa028022 	orr	x2, x1, x2, lsl #32
    204e27d4:	39401401 	ldrb	w1, [x0, #5]
    204e27d8:	aa01a041 	orr	x1, x2, x1, lsl #40
    204e27dc:	39401802 	ldrb	w2, [x0, #6]
    204e27e0:	aa02c022 	orr	x2, x1, x2, lsl #48
    204e27e4:	39401c01 	ldrb	w1, [x0, #7]
    204e27e8:	aa1303e0 	mov	x0, x19
    204e27ec:	aa01e041 	orr	x1, x2, x1, lsl #56
    204e27f0:	d63f0020 	blr	x1
    204e27f4:	a94153f3 	ldp	x19, x20, [sp, #16]
    204e27f8:	a8c27bfd 	ldp	x29, x30, [sp], #32
    204e27fc:	d65f03c0 	ret
    204e2800:	52800000 	mov	w0, #0x0                   	// #0
    204e2804:	17fffffc 	b	204e27f4 <check_erratum_applies+0x68>

00000000204e2808 <print_errata_status>:
    204e2808:	d65f03c0 	ret

00000000204e280c <cm_init>:
    204e280c:	d65f03c0 	ret

00000000204e2810 <cm_setup_context>:
    204e2810:	a9bd7bfd 	stp	x29, x30, [sp, #-48]!
    204e2814:	910003fd 	mov	x29, sp
    204e2818:	a90153f3 	stp	x19, x20, [sp, #16]
    204e281c:	aa0103f4 	mov	x20, x1
    204e2820:	aa0003f3 	mov	x19, x0
    204e2824:	d2805001 	mov	x1, #0x280                 	// #640
    204e2828:	f90013f5 	str	x21, [sp, #32]
    204e282c:	9400189e 	bl	204e8aa4 <zeromem>
    204e2830:	b9401281 	ldr	w1, [x20, #16]
    204e2834:	d2804602 	mov	x2, #0x230                 	// #560
    204e2838:	d280c600 	mov	x0, #0x630                 	// #1584
    204e283c:	f27c003f 	tst	x1, #0x10
    204e2840:	9a820000 	csel	x0, x0, x2, eq	// eq = none
    204e2844:	b9400682 	ldr	w2, [x20, #4]
    204e2848:	36100042 	tbz	w2, #2, 204e2850 <cm_setup_context+0x40>
    204e284c:	b2750000 	orr	x0, x0, #0x800
    204e2850:	f9400a82 	ldr	x2, [x20, #16]
    204e2854:	927e0843 	and	x3, x2, #0x1c
    204e2858:	f100207f 	cmp	x3, #0x8
    204e285c:	54000080 	b.eq	204e286c <cm_setup_context+0x5c>  // b.none
    204e2860:	92401042 	and	x2, x2, #0x1f
    204e2864:	f100685f 	cmp	x2, #0x1a
    204e2868:	54000041 	b.ne	204e2870 <cm_setup_context+0x60>  // b.any
    204e286c:	b2780000 	orr	x0, x0, #0x100
    204e2870:	f9008260 	str	x0, [x19, #256]
    204e2874:	2a0103e1 	mov	w1, w1
    204e2878:	f9400680 	ldr	x0, [x20, #8]
    204e287c:	a9110261 	stp	x1, x0, [x19, #272]
    204e2880:	d2900000 	mov	x0, #0x8000                	// #32768
    204e2884:	f2a20020 	movk	x0, #0x1001, lsl #16
    204e2888:	f9009a60 	str	x0, [x19, #304]
    204e288c:	aa1303e0 	mov	x0, x19
    204e2890:	94000138 	bl	204e2d70 <pmuv3_enable>
    204e2894:	91006281 	add	x1, x20, #0x18
    204e2898:	aa1303e0 	mov	x0, x19
    204e289c:	d2800802 	mov	x2, #0x40                  	// #64
    204e28a0:	94001a29 	bl	204e9144 <memcpy>
    204e28a4:	b9400680 	ldr	w0, [x20, #4]
    204e28a8:	52800421 	mov	w1, #0x21                  	// #33
    204e28ac:	6a010000 	ands	w0, w0, w1
    204e28b0:	54000100 	b.eq	204e28d0 <cm_setup_context+0xc0>  // b.none
    204e28b4:	7100041f 	cmp	w0, #0x1
    204e28b8:	54000440 	b.eq	204e2940 <cm_setup_context+0x130>  // b.none
    204e28bc:	90000040 	adrp	x0, 204ea000 <wakeupmix_irq_mask+0x2c>
    204e28c0:	91033c00 	add	x0, x0, #0xcf
    204e28c4:	97fff89c 	bl	204e0b34 <tf_log>
    204e28c8:	97fffd41 	bl	204e1dcc <console_flush>
    204e28cc:	940017fc 	bl	204e88bc <el3_panic>
    204e28d0:	f9408275 	ldr	x21, [x19, #256]
    204e28d4:	d2800000 	mov	x0, #0x0                   	// #0
    204e28d8:	97fff7c5 	bl	204e07ec <get_scr_el3_from_routing_model>
    204e28dc:	aa0002b5 	orr	x21, x21, x0
    204e28e0:	b9400680 	ldr	w0, [x20, #4]
    204e28e4:	b9401282 	ldr	w2, [x20, #16]
    204e28e8:	d2810001 	mov	x1, #0x800                 	// #2048
    204e28ec:	d2810703 	mov	x3, #0x838                 	// #2104
    204e28f0:	f2a61a01 	movk	x1, #0x30d0, lsl #16
    204e28f4:	d3689c00 	lsl	x0, x0, #24
    204e28f8:	f2a018a3 	movk	x3, #0xc5, lsl #16
    204e28fc:	92670000 	and	x0, x0, #0x2000000
    204e2900:	f27c005f 	tst	x2, #0x10
    204e2904:	aa010001 	orr	x1, x0, x1
    204e2908:	aa030000 	orr	x0, x0, x3
    204e290c:	9a811000 	csel	x0, x0, x1, ne	// ne = any
    204e2910:	f9008275 	str	x21, [x19, #256]
    204e2914:	f900ba60 	str	x0, [x19, #368]
    204e2918:	d5381020 	mrs	x0, actlr_el1
    204e291c:	f900da60 	str	x0, [x19, #432]
    204e2920:	d5380500 	mrs	x0, id_aa64dfr0_el1
    204e2924:	f2600c1f 	tst	x0, #0xf00000000
    204e2928:	540004a0 	b.eq	204e29bc <cm_setup_context+0x1ac>  // b.none
    204e292c:	f94013f5 	ldr	x21, [sp, #32]
    204e2930:	aa1303e0 	mov	x0, x19
    204e2934:	a94153f3 	ldp	x19, x20, [sp, #16]
    204e2938:	a8c37bfd 	ldp	x29, x30, [sp], #48
    204e293c:	14000125 	b	204e2dd0 <spe_disable_secure>
    204e2940:	f9408275 	ldr	x21, [x19, #256]
    204e2944:	d2800020 	mov	x0, #0x1                   	// #1
    204e2948:	97fff7a9 	bl	204e07ec <get_scr_el3_from_routing_model>
    204e294c:	aa0002b5 	orr	x21, x21, x0
    204e2950:	d2800020 	mov	x0, #0x1                   	// #1
    204e2954:	f2a00060 	movk	x0, #0x3, lsl #16
    204e2958:	aa0002b5 	orr	x21, x21, x0
    204e295c:	b9400680 	ldr	w0, [x20, #4]
    204e2960:	d2810001 	mov	x1, #0x800                 	// #2048
    204e2964:	b9401282 	ldr	w2, [x20, #16]
    204e2968:	d2810703 	mov	x3, #0x838                 	// #2104
    204e296c:	f2a018a3 	movk	x3, #0xc5, lsl #16
    204e2970:	f2a61a01 	movk	x1, #0x30d0, lsl #16
    204e2974:	d3689c00 	lsl	x0, x0, #24
    204e2978:	f9008275 	str	x21, [x19, #256]
    204e297c:	92670000 	and	x0, x0, #0x2000000
    204e2980:	f27c005f 	tst	x2, #0x10
    204e2984:	aa010001 	orr	x1, x0, x1
    204e2988:	aa030000 	orr	x0, x0, x3
    204e298c:	9a811000 	csel	x0, x0, x1, ne	// ne = any
    204e2990:	f900ba60 	str	x0, [x19, #368]
    204e2994:	d5381020 	mrs	x0, actlr_el1
    204e2998:	f900da60 	str	x0, [x19, #432]
    204e299c:	d5380500 	mrs	x0, id_aa64dfr0_el1
    204e29a0:	f2600c1f 	tst	x0, #0xf00000000
    204e29a4:	540000c0 	b.eq	204e29bc <cm_setup_context+0x1ac>  // b.none
    204e29a8:	f94013f5 	ldr	x21, [sp, #32]
    204e29ac:	aa1303e0 	mov	x0, x19
    204e29b0:	a94153f3 	ldp	x19, x20, [sp, #16]
    204e29b4:	a8c37bfd 	ldp	x29, x30, [sp], #48
    204e29b8:	140000ff 	b	204e2db4 <spe_enable_ns>
    204e29bc:	a94153f3 	ldp	x19, x20, [sp, #16]
    204e29c0:	f94013f5 	ldr	x21, [sp, #32]
    204e29c4:	a8c37bfd 	ldp	x29, x30, [sp], #48
    204e29c8:	d65f03c0 	ret

00000000204e29cc <cm_manage_extensions_el3>:
    204e29cc:	a9bf7bfd 	stp	x29, x30, [sp, #-16]!
    204e29d0:	d5380400 	mrs	x0, id_aa64pfr0_el1
    204e29d4:	910003fd 	mov	x29, sp
    204e29d8:	f2600c1f 	tst	x0, #0xf00000000
    204e29dc:	54000040 	b.eq	204e29e4 <cm_manage_extensions_el3+0x18>  // b.none
    204e29e0:	94000103 	bl	204e2dec <sve_init_el3>
    204e29e4:	d5380400 	mrs	x0, id_aa64pfr0_el1
    204e29e8:	d368fc00 	lsr	x0, x0, #40
    204e29ec:	d5380421 	mrs	x1, id_aa64pfr1_el1
    204e29f0:	531c0c00 	ubfiz	w0, w0, #4, #4
    204e29f4:	53104c21 	ubfx	w1, w1, #16, #4
    204e29f8:	2a010000 	orr	w0, w0, w1
    204e29fc:	34000040 	cbz	w0, 204e2a04 <cm_manage_extensions_el3+0x38>
    204e2a00:	940000db 	bl	204e2d6c <mpam_init_el3>
    204e2a04:	a8c17bfd 	ldp	x29, x30, [sp], #16
    204e2a08:	140000e4 	b	204e2d98 <pmuv3_init_el3>

00000000204e2a0c <cm_manage_extensions_per_world>:
    204e2a0c:	a9be7bfd 	stp	x29, x30, [sp, #-32]!
    204e2a10:	d2a80200 	mov	x0, #0x40100000            	// #1074790400
    204e2a14:	910003fd 	mov	x29, sp
    204e2a18:	a90153f3 	stp	x19, x20, [sp, #16]
    204e2a1c:	f0000054 	adrp	x20, 204ed000 <__STACKS_START__+0x1280>
    204e2a20:	91110293 	add	x19, x20, #0x440
    204e2a24:	f9000a60 	str	x0, [x19, #16]
    204e2a28:	d2e80000 	mov	x0, #0x4000000000000000    	// #4611686018427387904
    204e2a2c:	f9000e60 	str	x0, [x19, #24]
    204e2a30:	d5380400 	mrs	x0, id_aa64pfr0_el1
    204e2a34:	f2600c1f 	tst	x0, #0xf00000000
    204e2a38:	54000080 	b.eq	204e2a48 <cm_manage_extensions_per_world+0x3c>  // b.none
    204e2a3c:	f0000040 	adrp	x0, 204ed000 <__STACKS_START__+0x1280>
    204e2a40:	91114000 	add	x0, x0, #0x450
    204e2a44:	940000ed 	bl	204e2df8 <sve_enable_per_world>
    204e2a48:	d5380400 	mrs	x0, id_aa64pfr0_el1
    204e2a4c:	d368fc00 	lsr	x0, x0, #40
    204e2a50:	d5380421 	mrs	x1, id_aa64pfr1_el1
    204e2a54:	531c0c00 	ubfiz	w0, w0, #4, #4
    204e2a58:	53104c21 	ubfx	w1, w1, #16, #4
    204e2a5c:	2a010000 	orr	w0, w0, w1
    204e2a60:	34000080 	cbz	w0, 204e2a70 <cm_manage_extensions_per_world+0x64>
    204e2a64:	f0000040 	adrp	x0, 204ed000 <__STACKS_START__+0x1280>
    204e2a68:	91114000 	add	x0, x0, #0x450
    204e2a6c:	940000bb 	bl	204e2d58 <mpam_enable_per_world>
    204e2a70:	d2a80200 	mov	x0, #0x40100000            	// #1074790400
    204e2a74:	f9022280 	str	x0, [x20, #1088]
    204e2a78:	d2e80000 	mov	x0, #0x4000000000000000    	// #4611686018427387904
    204e2a7c:	f9000660 	str	x0, [x19, #8]
    204e2a80:	d5380400 	mrs	x0, id_aa64pfr0_el1
    204e2a84:	f2600c1f 	tst	x0, #0xf00000000
    204e2a88:	540000a0 	b.eq	204e2a9c <cm_manage_extensions_per_world+0x90>  // b.none
    204e2a8c:	aa1303e0 	mov	x0, x19
    204e2a90:	a94153f3 	ldp	x19, x20, [sp, #16]
    204e2a94:	a8c27bfd 	ldp	x29, x30, [sp], #32
    204e2a98:	140000dc 	b	204e2e08 <sve_disable_per_world>
    204e2a9c:	a94153f3 	ldp	x19, x20, [sp, #16]
    204e2aa0:	a8c27bfd 	ldp	x29, x30, [sp], #32
    204e2aa4:	d65f03c0 	ret

00000000204e2aa8 <cm_init_percpu_once_regs>:
    204e2aa8:	d65f03c0 	ret

00000000204e2aac <cm_init_my_context>:
    204e2aac:	a9be7bfd 	stp	x29, x30, [sp, #-32]!
    204e2ab0:	52800421 	mov	w1, #0x21                  	// #33
    204e2ab4:	910003fd 	mov	x29, sp
    204e2ab8:	f9000bf3 	str	x19, [sp, #16]
    204e2abc:	aa0003f3 	mov	x19, x0
    204e2ac0:	b9400400 	ldr	w0, [x0, #4]
    204e2ac4:	0a010000 	and	w0, w0, w1
    204e2ac8:	97fff5dc 	bl	204e0238 <cm_get_context>
    204e2acc:	aa1303e1 	mov	x1, x19
    204e2ad0:	f9400bf3 	ldr	x19, [sp, #16]
    204e2ad4:	a8c27bfd 	ldp	x29, x30, [sp], #32
    204e2ad8:	17ffff4e 	b	204e2810 <cm_setup_context>

00000000204e2adc <cm_el1_sysregs_context_restore>:
    204e2adc:	a9be7bfd 	stp	x29, x30, [sp, #-32]!
    204e2ae0:	2a0003e0 	mov	w0, w0
    204e2ae4:	910003fd 	mov	x29, sp
    204e2ae8:	a90153f3 	stp	x19, x20, [sp, #16]
    204e2aec:	aa0003f3 	mov	x19, x0
    204e2af0:	97fff5d2 	bl	204e0238 <cm_get_context>
    204e2af4:	91058001 	add	x1, x0, #0x160
    204e2af8:	f940b000 	ldr	x0, [x0, #352]
    204e2afc:	d5184000 	msr	spsr_el1, x0
    204e2b00:	f9400420 	ldr	x0, [x1, #8]
    204e2b04:	d5184020 	msr	elr_el1, x0
    204e2b08:	f9400820 	ldr	x0, [x1, #16]
    204e2b0c:	d5181000 	msr	sctlr_el1, x0
    204e2b10:	f9400c20 	ldr	x0, [x1, #24]
    204e2b14:	d5182040 	msr	tcr_el1, x0
    204e2b18:	f9401020 	ldr	x0, [x1, #32]
    204e2b1c:	d5181040 	msr	cpacr_el1, x0
    204e2b20:	f9401420 	ldr	x0, [x1, #40]
    204e2b24:	d51a0000 	msr	csselr_el1, x0
    204e2b28:	f9401820 	ldr	x0, [x1, #48]
    204e2b2c:	d51c4100 	msr	sp_el1, x0
    204e2b30:	f9401c20 	ldr	x0, [x1, #56]
    204e2b34:	d5185200 	msr	esr_el1, x0
    204e2b38:	f9405820 	ldr	x0, [x1, #176]
    204e2b3c:	d5182000 	msr	ttbr0_el1, x0
    204e2b40:	f9405c20 	ldr	x0, [x1, #184]
    204e2b44:	d5182020 	msr	ttbr1_el1, x0
    204e2b48:	f9402020 	ldr	x0, [x1, #64]
    204e2b4c:	d518a200 	msr	mair_el1, x0
    204e2b50:	f9402420 	ldr	x0, [x1, #72]
    204e2b54:	d518a300 	msr	amair_el1, x0
    204e2b58:	f9402820 	ldr	x0, [x1, #80]
    204e2b5c:	d5181020 	msr	actlr_el1, x0
    204e2b60:	f9402c20 	ldr	x0, [x1, #88]
    204e2b64:	d518d080 	msr	tpidr_el1, x0
    204e2b68:	f9403020 	ldr	x0, [x1, #96]
    204e2b6c:	d51bd040 	msr	tpidr_el0, x0
    204e2b70:	f9403420 	ldr	x0, [x1, #104]
    204e2b74:	d51bd060 	msr	tpidrro_el0, x0
    204e2b78:	f9405420 	ldr	x0, [x1, #168]
    204e2b7c:	d5187400 	msr	par_el1, x0
    204e2b80:	f9403820 	ldr	x0, [x1, #112]
    204e2b84:	d5186000 	msr	far_el1, x0
    204e2b88:	f9403c20 	ldr	x0, [x1, #120]
    204e2b8c:	d5185100 	msr	afsr0_el1, x0
    204e2b90:	f9404020 	ldr	x0, [x1, #128]
    204e2b94:	d5185120 	msr	afsr1_el1, x0
    204e2b98:	f9404420 	ldr	x0, [x1, #136]
    204e2b9c:	d518d020 	msr	contextidr_el1, x0
    204e2ba0:	f9404820 	ldr	x0, [x1, #144]
    204e2ba4:	d518c000 	msr	vbar_el1, x0
    204e2ba8:	f9404c20 	ldr	x0, [x1, #152]
    204e2bac:	d5100200 	msr	mdccint_el1, x0
    204e2bb0:	f9405020 	ldr	x0, [x1, #160]
    204e2bb4:	d5100240 	msr	mdscr_el1, x0
    204e2bb8:	f9406420 	ldr	x0, [x1, #200]
    204e2bbc:	d51c4320 	msr	spsr_abt, x0
    204e2bc0:	f9406820 	ldr	x0, [x1, #208]
    204e2bc4:	d51c4340 	msr	spsr_und, x0
    204e2bc8:	f9406c20 	ldr	x0, [x1, #216]
    204e2bcc:	d51c4300 	msr	spsr_irq, x0
    204e2bd0:	f9407020 	ldr	x0, [x1, #224]
    204e2bd4:	d51c4360 	msr	spsr_fiq, x0
    204e2bd8:	f9407420 	ldr	x0, [x1, #232]
    204e2bdc:	d51c3000 	msr	dacr32_el2, x0
    204e2be0:	f9407820 	ldr	x0, [x1, #240]
    204e2be4:	d51c5020 	msr	ifsr32_el2, x0
    204e2be8:	f9406020 	ldr	x0, [x1, #192]
    204e2bec:	d518e100 	msr	cntkctl_el1, x0
    204e2bf0:	34000273 	cbz	w19, 204e2c3c <cm_el1_sysregs_context_restore+0x160>
    204e2bf4:	90000053 	adrp	x19, 204ea000 <wakeupmix_irq_mask+0x2c>
    204e2bf8:	90000054 	adrp	x20, 204ea000 <wakeupmix_irq_mask+0x2c>
    204e2bfc:	91104273 	add	x19, x19, #0x410
    204e2c00:	91104294 	add	x20, x20, #0x410
    204e2c04:	eb14027f 	cmp	x19, x20
    204e2c08:	54000142 	b.cs	204e2c30 <cm_el1_sysregs_context_restore+0x154>  // b.hs, b.nlast
    204e2c0c:	f8408661 	ldr	x1, [x19], #8
    204e2c10:	d2800000 	mov	x0, #0x0                   	// #0
    204e2c14:	d63f0020 	blr	x1
    204e2c18:	17fffffb 	b	204e2c04 <cm_el1_sysregs_context_restore+0x128>
    204e2c1c:	f8408661 	ldr	x1, [x19], #8
    204e2c20:	d2800000 	mov	x0, #0x0                   	// #0
    204e2c24:	d63f0020 	blr	x1
    204e2c28:	eb14027f 	cmp	x19, x20
    204e2c2c:	54ffff83 	b.cc	204e2c1c <cm_el1_sysregs_context_restore+0x140>  // b.lo, b.ul, b.last
    204e2c30:	a94153f3 	ldp	x19, x20, [sp, #16]
    204e2c34:	a8c27bfd 	ldp	x29, x30, [sp], #32
    204e2c38:	d65f03c0 	ret
    204e2c3c:	90000053 	adrp	x19, 204ea000 <wakeupmix_irq_mask+0x2c>
    204e2c40:	90000054 	adrp	x20, 204ea000 <wakeupmix_irq_mask+0x2c>
    204e2c44:	91104273 	add	x19, x19, #0x410
    204e2c48:	91104294 	add	x20, x20, #0x410
    204e2c4c:	17fffff7 	b	204e2c28 <cm_el1_sysregs_context_restore+0x14c>

00000000204e2c50 <cm_write_scr_el3_bit>:
    204e2c50:	a9be7bfd 	stp	x29, x30, [sp, #-32]!
    204e2c54:	2a0003e0 	mov	w0, w0
    204e2c58:	910003fd 	mov	x29, sp
    204e2c5c:	a90153f3 	stp	x19, x20, [sp, #16]
    204e2c60:	2a0103f4 	mov	w20, w1
    204e2c64:	2a0203f3 	mov	w19, w2
    204e2c68:	97fff574 	bl	204e0238 <cm_get_context>
    204e2c6c:	f9408001 	ldr	x1, [x0, #256]
    204e2c70:	d2800022 	mov	x2, #0x1                   	// #1
    204e2c74:	9ad42042 	lsl	x2, x2, x20
    204e2c78:	8a220022 	bic	x2, x1, x2
    204e2c7c:	9ad42273 	lsl	x19, x19, x20
    204e2c80:	aa020273 	orr	x19, x19, x2
    204e2c84:	f9008013 	str	x19, [x0, #256]
    204e2c88:	a94153f3 	ldp	x19, x20, [sp, #16]
    204e2c8c:	a8c27bfd 	ldp	x29, x30, [sp], #32
    204e2c90:	d65f03c0 	ret

00000000204e2c94 <cm_set_next_eret_context>:
    204e2c94:	a9bf7bfd 	stp	x29, x30, [sp, #-16]!
    204e2c98:	2a0003e0 	mov	w0, w0
    204e2c9c:	910003fd 	mov	x29, sp
    204e2ca0:	97fff566 	bl	204e0238 <cm_get_context>
    204e2ca4:	d50041bf 	msr	spsel, #0x1
    204e2ca8:	9100001f 	mov	sp, x0
    204e2cac:	d50040bf 	msr	spsel, #0x0
    204e2cb0:	a8c17bfd 	ldp	x29, x30, [sp], #16
    204e2cb4:	d65f03c0 	ret

00000000204e2cb8 <cm_prepare_el3_exit>:
    204e2cb8:	a9be7bfd 	stp	x29, x30, [sp, #-32]!
    204e2cbc:	910003fd 	mov	x29, sp
    204e2cc0:	f9000bf3 	str	x19, [sp, #16]
    204e2cc4:	aa0003f3 	mov	x19, x0
    204e2cc8:	97fff55c 	bl	204e0238 <cm_get_context>
    204e2ccc:	f100067f 	cmp	x19, #0x1
    204e2cd0:	54000121 	b.ne	204e2cf4 <cm_prepare_el3_exit+0x3c>  // b.any
    204e2cd4:	d5380401 	mrs	x1, id_aa64pfr0_el1
    204e2cd8:	f2780c3f 	tst	x1, #0xf00
    204e2cdc:	540000c0 	b.eq	204e2cf4 <cm_prepare_el3_exit+0x3c>  // b.none
    204e2ce0:	f9408000 	ldr	x0, [x0, #256]
    204e2ce4:	36400080 	tbz	w0, #8, 204e2cf4 <cm_prepare_el3_exit+0x3c>
    204e2ce8:	d2810600 	mov	x0, #0x830                 	// #2096
    204e2cec:	f2a618a0 	movk	x0, #0x30c5, lsl #16
    204e2cf0:	d51c1000 	msr	sctlr_el2, x0
    204e2cf4:	2a1303e0 	mov	w0, w19
    204e2cf8:	97ffff79 	bl	204e2adc <cm_el1_sysregs_context_restore>
    204e2cfc:	2a1303e0 	mov	w0, w19
    204e2d00:	f9400bf3 	ldr	x19, [sp, #16]
    204e2d04:	a8c27bfd 	ldp	x29, x30, [sp], #32
    204e2d08:	17ffffe3 	b	204e2c94 <cm_set_next_eret_context>

00000000204e2d0c <cm_prepare_el3_exit_ns>:
    204e2d0c:	d2800020 	mov	x0, #0x1                   	// #1
    204e2d10:	17ffffea 	b	204e2cb8 <cm_prepare_el3_exit>

00000000204e2d14 <cpu_data_init_cpu_ops>:
    204e2d14:	a9be7bfd 	stp	x29, x30, [sp, #-32]!
    204e2d18:	910003fd 	mov	x29, sp
    204e2d1c:	a90153f3 	stp	x19, x20, [sp, #16]
    204e2d20:	d0000073 	adrp	x19, 204f0000 <imx_gicv3_ctx+0x26d0>
    204e2d24:	910e0273 	add	x19, x19, #0x380
    204e2d28:	aa1303e0 	mov	x0, x19
    204e2d2c:	94000048 	bl	204e2e4c <per_cpu_cur_compute>
    204e2d30:	f9400c00 	ldr	x0, [x0, #24]
    204e2d34:	b50000c0 	cbnz	x0, 204e2d4c <cpu_data_init_cpu_ops+0x38>
    204e2d38:	940017ce 	bl	204e8c70 <get_cpu_ops_ptr>
    204e2d3c:	aa0003f4 	mov	x20, x0
    204e2d40:	aa1303e0 	mov	x0, x19
    204e2d44:	94000042 	bl	204e2e4c <per_cpu_cur_compute>
    204e2d48:	f9000c14 	str	x20, [x0, #24]
    204e2d4c:	a94153f3 	ldp	x19, x20, [sp, #16]
    204e2d50:	a8c27bfd 	ldp	x29, x30, [sp], #32
    204e2d54:	d65f03c0 	ret

00000000204e2d58 <mpam_enable_per_world>:
    204e2d58:	f9400401 	ldr	x1, [x0, #8]
    204e2d5c:	9240f421 	and	x1, x1, #0x3fffffffffffffff
    204e2d60:	b2410021 	orr	x1, x1, #0x8000000000000000
    204e2d64:	f9000401 	str	x1, [x0, #8]
    204e2d68:	d65f03c0 	ret

00000000204e2d6c <mpam_init_el3>:
    204e2d6c:	d65f03c0 	ret

00000000204e2d70 <pmuv3_enable>:
    204e2d70:	f9409801 	ldr	x1, [x0, #304]
    204e2d74:	92800802 	mov	x2, #0xffffffffffffffbf    	// #-65
    204e2d78:	f2bfffa2 	movk	x2, #0xfffd, lsl #16
    204e2d7c:	f2dffee2 	movk	x2, #0xfff7, lsl #32
    204e2d80:	8a020021 	and	x1, x1, x2
    204e2d84:	320983e2 	mov	w2, #0x800080              	// #8388736
    204e2d88:	f2c00082 	movk	x2, #0x4, lsl #32
    204e2d8c:	aa020021 	orr	x1, x1, x2
    204e2d90:	f9009801 	str	x1, [x0, #304]
    204e2d94:	d65f03c0 	ret

00000000204e2d98 <pmuv3_init_el3>:
    204e2d98:	d53b9c00 	mrs	x0, pmcr_el0
    204e2d9c:	128006e1 	mov	w1, #0xffffffc8            	// #-56
    204e2da0:	8a010000 	and	x0, x0, x1
    204e2da4:	d28004c1 	mov	x1, #0x26                  	// #38
    204e2da8:	aa010000 	orr	x0, x0, x1
    204e2dac:	d51b9c00 	msr	pmcr_el0, x0
    204e2db0:	d65f03c0 	ret

00000000204e2db4 <spe_enable_ns>:
    204e2db4:	f9409801 	ldr	x1, [x0, #304]
    204e2db8:	d2860002 	mov	x2, #0x3000                	// #12288
    204e2dbc:	f2c08202 	movk	x2, #0x410, lsl #32
    204e2dc0:	9274f821 	and	x1, x1, #0xfffffffffffff7ff
    204e2dc4:	aa020021 	orr	x1, x1, x2
    204e2dc8:	f9009801 	str	x1, [x0, #304]
    204e2dcc:	d65f03c0 	ret

00000000204e2dd0 <spe_disable_secure>:
    204e2dd0:	f9409801 	ldr	x1, [x0, #304]
    204e2dd4:	92830002 	mov	x2, #0xffffffffffffe7ff    	// #-6145
    204e2dd8:	f2df7de2 	movk	x2, #0xfbef, lsl #32
    204e2ddc:	8a020021 	and	x1, x1, x2
    204e2de0:	b2730021 	orr	x1, x1, #0x2000
    204e2de4:	f9009801 	str	x1, [x0, #304]
    204e2de8:	d65f03c0 	ret

00000000204e2dec <sve_init_el3>:
    204e2dec:	d28001e0 	mov	x0, #0xf                   	// #15
    204e2df0:	d51e1200 	msr	zcr_el3, x0
    204e2df4:	d65f03c0 	ret

00000000204e2df8 <sve_enable_per_world>:
    204e2df8:	f9400001 	ldr	x1, [x0]
    204e2dfc:	b2780021 	orr	x1, x1, #0x100
    204e2e00:	f9000001 	str	x1, [x0]
    204e2e04:	d65f03c0 	ret

00000000204e2e08 <sve_disable_per_world>:
    204e2e08:	f9400001 	ldr	x1, [x0]
    204e2e0c:	12802002 	mov	w2, #0xfffffeff            	// #-257
    204e2e10:	8a020021 	and	x1, x1, x2
    204e2e14:	f9000001 	str	x1, [x0]
    204e2e18:	d65f03c0 	ret

00000000204e2e1c <per_cpu_by_index_compute>:
    204e2e1c:	a9be7bfd 	stp	x29, x30, [sp, #-32]!
    204e2e20:	910003fd 	mov	x29, sp
    204e2e24:	f9000bf3 	str	x19, [sp, #16]
    204e2e28:	aa0103f3 	mov	x19, x1
    204e2e2c:	94001817 	bl	204e8e88 <per_cpu_base>
    204e2e30:	d0000061 	adrp	x1, 204f0000 <imx_gicv3_ctx+0x26d0>
    204e2e34:	910e0021 	add	x1, x1, #0x380
    204e2e38:	cb010273 	sub	x19, x19, x1
    204e2e3c:	8b130000 	add	x0, x0, x19
    204e2e40:	f9400bf3 	ldr	x19, [sp, #16]
    204e2e44:	a8c27bfd 	ldp	x29, x30, [sp], #32
    204e2e48:	d65f03c0 	ret

00000000204e2e4c <per_cpu_cur_compute>:
    204e2e4c:	d53ed042 	mrs	x2, tpidr_el3
    204e2e50:	d0000061 	adrp	x1, 204f0000 <imx_gicv3_ctx+0x26d0>
    204e2e54:	910e0021 	add	x1, x1, #0x380
    204e2e58:	cb010000 	sub	x0, x0, x1
    204e2e5c:	8b020000 	add	x0, x0, x2
    204e2e60:	d65f03c0 	ret

00000000204e2e64 <psci_set_req_local_pwr_state>:
    204e2e64:	51000400 	sub	w0, w0, #0x1
    204e2e68:	12001c42 	and	w2, w2, #0xff
    204e2e6c:	7100041f 	cmp	w0, #0x1
    204e2e70:	54000128 	b.hi	204e2e94 <psci_set_req_local_pwr_state+0x30>  // b.pmore
    204e2e74:	d0000063 	adrp	x3, 204f0000 <imx_gicv3_ctx+0x26d0>
    204e2e78:	b9412863 	ldr	w3, [x3, #296]
    204e2e7c:	6b01007f 	cmp	w3, w1
    204e2e80:	540000a9 	b.ls	204e2e94 <psci_set_req_local_pwr_state+0x30>  // b.plast
    204e2e84:	d0000063 	adrp	x3, 204f0000 <imx_gicv3_ctx+0x26d0>
    204e2e88:	910be463 	add	x3, x3, #0x2f9
    204e2e8c:	8b204460 	add	x0, x3, w0, uxtw #1
    204e2e90:	38214802 	strb	w2, [x0, w1, uxtw]
    204e2e94:	d65f03c0 	ret

00000000204e2e98 <call_cpu_pwr_dwn>:
    204e2e98:	a9be7bfd 	stp	x29, x30, [sp, #-32]!
    204e2e9c:	910003fd 	mov	x29, sp
    204e2ea0:	f9000bf3 	str	x19, [sp, #16]
    204e2ea4:	2a0003f3 	mov	w19, w0
    204e2ea8:	d0000060 	adrp	x0, 204f0000 <imx_gicv3_ctx+0x26d0>
    204e2eac:	910e0000 	add	x0, x0, #0x380
    204e2eb0:	97ffffe7 	bl	204e2e4c <per_cpu_cur_compute>
    204e2eb4:	f9400c00 	ldr	x0, [x0, #24]
    204e2eb8:	7100027f 	cmp	w19, #0x0
    204e2ebc:	1a9f0673 	csinc	w19, w19, wzr, eq	// eq = none
    204e2ec0:	8b130c13 	add	x19, x0, x19, lsl #3
    204e2ec4:	f9400e60 	ldr	x0, [x19, #24]
    204e2ec8:	f9400bf3 	ldr	x19, [sp, #16]
    204e2ecc:	aa0003f0 	mov	x16, x0
    204e2ed0:	a8c27bfd 	ldp	x29, x30, [sp], #32
    204e2ed4:	d61f0200 	br	x16

00000000204e2ed8 <psci_validate_power_state>:
    204e2ed8:	52bf9fc2 	mov	w2, #0xfcfe0000            	// #-50462720
    204e2edc:	6a02001f 	tst	w0, w2
    204e2ee0:	540000c1 	b.ne	204e2ef8 <psci_validate_power_state+0x20>  // b.any
    204e2ee4:	f0000042 	adrp	x2, 204ed000 <__STACKS_START__+0x1280>
    204e2ee8:	f9423042 	ldr	x2, [x2, #1120]
    204e2eec:	f9403042 	ldr	x2, [x2, #96]
    204e2ef0:	aa0203f0 	mov	x16, x2
    204e2ef4:	d61f0200 	br	x16
    204e2ef8:	12800020 	mov	w0, #0xfffffffe            	// #-2
    204e2efc:	d65f03c0 	ret

00000000204e2f00 <psci_query_sys_suspend_pwrstate>:
    204e2f00:	f0000041 	adrp	x1, 204ed000 <__STACKS_START__+0x1280>
    204e2f04:	f9423021 	ldr	x1, [x1, #1120]
    204e2f08:	f9403821 	ldr	x1, [x1, #112]
    204e2f0c:	aa0103f0 	mov	x16, x1
    204e2f10:	d61f0200 	br	x16

00000000204e2f14 <psci_is_last_on_cpu>:
    204e2f14:	a9bd7bfd 	stp	x29, x30, [sp, #-48]!
    204e2f18:	910003fd 	mov	x29, sp
    204e2f1c:	a90153f3 	stp	x19, x20, [sp, #16]
    204e2f20:	2a0003f4 	mov	w20, w0
    204e2f24:	d0000060 	adrp	x0, 204f0000 <imx_gicv3_ctx+0x26d0>
    204e2f28:	a9025bf5 	stp	x21, x22, [sp, #32]
    204e2f2c:	d0000075 	adrp	x21, 204f0000 <imx_gicv3_ctx+0x26d0>
    204e2f30:	b9412816 	ldr	w22, [x0, #296]
    204e2f34:	910e02b5 	add	x21, x21, #0x380
    204e2f38:	52800013 	mov	w19, #0x0                   	// #0
    204e2f3c:	6b1302df 	cmp	w22, w19
    204e2f40:	540000c1 	b.ne	204e2f58 <psci_is_last_on_cpu+0x44>  // b.any
    204e2f44:	52800020 	mov	w0, #0x1                   	// #1
    204e2f48:	a94153f3 	ldp	x19, x20, [sp, #16]
    204e2f4c:	a9425bf5 	ldp	x21, x22, [sp, #32]
    204e2f50:	a8c37bfd 	ldp	x29, x30, [sp], #48
    204e2f54:	d65f03c0 	ret
    204e2f58:	6b14027f 	cmp	w19, w20
    204e2f5c:	540000e0 	b.eq	204e2f78 <psci_is_last_on_cpu+0x64>  // b.none
    204e2f60:	aa1503e1 	mov	x1, x21
    204e2f64:	2a1303e0 	mov	w0, w19
    204e2f68:	97ffffad 	bl	204e2e1c <per_cpu_by_index_compute>
    204e2f6c:	b9402000 	ldr	w0, [x0, #32]
    204e2f70:	7100041f 	cmp	w0, #0x1
    204e2f74:	54000061 	b.ne	204e2f80 <psci_is_last_on_cpu+0x6c>  // b.any
    204e2f78:	11000673 	add	w19, w19, #0x1
    204e2f7c:	17fffff0 	b	204e2f3c <psci_is_last_on_cpu+0x28>
    204e2f80:	52800000 	mov	w0, #0x0                   	// #0
    204e2f84:	17fffff1 	b	204e2f48 <psci_is_last_on_cpu+0x34>

00000000204e2f88 <psci_init_req_local_pwr_states>:
    204e2f88:	d0000060 	adrp	x0, 204f0000 <imx_gicv3_ctx+0x26d0>
    204e2f8c:	b9412802 	ldr	w2, [x0, #296]
    204e2f90:	34000102 	cbz	w2, 204e2fb0 <psci_init_req_local_pwr_states+0x28>
    204e2f94:	d0000063 	adrp	x3, 204f0000 <imx_gicv3_ctx+0x26d0>
    204e2f98:	52800080 	mov	w0, #0x4                   	// #4
    204e2f9c:	910be461 	add	x1, x3, #0x2f9
    204e2fa0:	390be460 	strb	w0, [x3, #761]
    204e2fa4:	7100045f 	cmp	w2, #0x1
    204e2fa8:	54000061 	b.ne	204e2fb4 <psci_init_req_local_pwr_states+0x2c>  // b.any
    204e2fac:	39000820 	strb	w0, [x1, #2]
    204e2fb0:	d65f03c0 	ret
    204e2fb4:	39000420 	strb	w0, [x1, #1]
    204e2fb8:	39000820 	strb	w0, [x1, #2]
    204e2fbc:	39000c20 	strb	w0, [x1, #3]
    204e2fc0:	17fffffc 	b	204e2fb0 <psci_init_req_local_pwr_states+0x28>

00000000204e2fc4 <psci_get_target_local_pwr_states>:
    204e2fc4:	a9bd7bfd 	stp	x29, x30, [sp, #-48]!
    204e2fc8:	910003fd 	mov	x29, sp
    204e2fcc:	a90153f3 	stp	x19, x20, [sp, #16]
    204e2fd0:	aa0203f3 	mov	x19, x2
    204e2fd4:	2a0103f4 	mov	w20, w1
    204e2fd8:	f90013f5 	str	x21, [sp, #32]
    204e2fdc:	2a0003f5 	mov	w21, w0
    204e2fe0:	d0000060 	adrp	x0, 204f0000 <imx_gicv3_ctx+0x26d0>
    204e2fe4:	910e0000 	add	x0, x0, #0x380
    204e2fe8:	97ffff99 	bl	204e2e4c <per_cpu_cur_compute>
    204e2fec:	3940a000 	ldrb	w0, [x0, #40]
    204e2ff0:	39000260 	strb	w0, [x19]
    204e2ff4:	d0000061 	adrp	x1, 204f0000 <imx_gicv3_ctx+0x26d0>
    204e2ff8:	2a1503e0 	mov	w0, w21
    204e2ffc:	91190021 	add	x1, x1, #0x640
    204e3000:	97ffff87 	bl	204e2e1c <per_cpu_by_index_compute>
    204e3004:	b9400802 	ldr	w2, [x0, #8]
    204e3008:	b0000061 	adrp	x1, 204f0000 <imx_gicv3_ctx+0x26d0>
    204e300c:	91042021 	add	x1, x1, #0x108
    204e3010:	52800020 	mov	w0, #0x1                   	// #1
    204e3014:	6b14001f 	cmp	w0, w20
    204e3018:	2a0003e3 	mov	w3, w0
    204e301c:	54000109 	b.ls	204e303c <psci_get_target_local_pwr_states+0x78>  // b.plast
    204e3020:	8b030273 	add	x19, x19, x3
    204e3024:	7100081f 	cmp	w0, #0x2
    204e3028:	54000169 	b.ls	204e3054 <psci_get_target_local_pwr_states+0x90>  // b.plast
    204e302c:	a94153f3 	ldp	x19, x20, [sp, #16]
    204e3030:	f94013f5 	ldr	x21, [sp, #32]
    204e3034:	a8c37bfd 	ldp	x29, x30, [sp], #48
    204e3038:	d65f03c0 	ret
    204e303c:	8b225022 	add	x2, x1, w2, uxtw #4
    204e3040:	11000400 	add	w0, w0, #0x1
    204e3044:	39403044 	ldrb	w4, [x2, #12]
    204e3048:	38236a64 	strb	w4, [x19, x3]
    204e304c:	b9400842 	ldr	w2, [x2, #8]
    204e3050:	17fffff1 	b	204e3014 <psci_get_target_local_pwr_states+0x50>
    204e3054:	11000400 	add	w0, w0, #0x1
    204e3058:	3800167f 	strb	wzr, [x19], #1
    204e305c:	17fffff2 	b	204e3024 <psci_get_target_local_pwr_states+0x60>

00000000204e3060 <psci_set_target_local_pwr_states>:
    204e3060:	a9bd7bfd 	stp	x29, x30, [sp, #-48]!
    204e3064:	910003fd 	mov	x29, sp
    204e3068:	a90153f3 	stp	x19, x20, [sp, #16]
    204e306c:	2a0103f4 	mov	w20, w1
    204e3070:	aa0203f3 	mov	x19, x2
    204e3074:	a9025bf5 	stp	x21, x22, [sp, #32]
    204e3078:	2a0003f5 	mov	w21, w0
    204e307c:	b0000060 	adrp	x0, 204f0000 <imx_gicv3_ctx+0x26d0>
    204e3080:	39400056 	ldrb	w22, [x2]
    204e3084:	910e0000 	add	x0, x0, #0x380
    204e3088:	97ffff71 	bl	204e2e4c <per_cpu_cur_compute>
    204e308c:	3900a016 	strb	w22, [x0, #40]
    204e3090:	b0000061 	adrp	x1, 204f0000 <imx_gicv3_ctx+0x26d0>
    204e3094:	2a1503e0 	mov	w0, w21
    204e3098:	91190021 	add	x1, x1, #0x640
    204e309c:	97ffff60 	bl	204e2e1c <per_cpu_by_index_compute>
    204e30a0:	b9400800 	ldr	w0, [x0, #8]
    204e30a4:	b0000061 	adrp	x1, 204f0000 <imx_gicv3_ctx+0x26d0>
    204e30a8:	91042021 	add	x1, x1, #0x108
    204e30ac:	52800023 	mov	w3, #0x1                   	// #1
    204e30b0:	6b14007f 	cmp	w3, w20
    204e30b4:	540000a9 	b.ls	204e30c8 <psci_set_target_local_pwr_states+0x68>  // b.plast
    204e30b8:	a94153f3 	ldp	x19, x20, [sp, #16]
    204e30bc:	a9425bf5 	ldp	x21, x22, [sp, #32]
    204e30c0:	a8c37bfd 	ldp	x29, x30, [sp], #48
    204e30c4:	d65f03c0 	ret
    204e30c8:	8b205020 	add	x0, x1, w0, uxtw #4
    204e30cc:	38634a62 	ldrb	w2, [x19, w3, uxtw]
    204e30d0:	11000463 	add	w3, w3, #0x1
    204e30d4:	39003002 	strb	w2, [x0, #12]
    204e30d8:	b9400800 	ldr	w0, [x0, #8]
    204e30dc:	17fffff5 	b	204e30b0 <psci_set_target_local_pwr_states+0x50>

00000000204e30e0 <psci_get_parent_pwr_domain_nodes>:
    204e30e0:	a9be7bfd 	stp	x29, x30, [sp, #-32]!
    204e30e4:	910003fd 	mov	x29, sp
    204e30e8:	a90153f3 	stp	x19, x20, [sp, #16]
    204e30ec:	aa0203f3 	mov	x19, x2
    204e30f0:	2a0103f4 	mov	w20, w1
    204e30f4:	b0000061 	adrp	x1, 204f0000 <imx_gicv3_ctx+0x26d0>
    204e30f8:	91190021 	add	x1, x1, #0x640
    204e30fc:	97ffff48 	bl	204e2e1c <per_cpu_by_index_compute>
    204e3100:	b9400800 	ldr	w0, [x0, #8]
    204e3104:	b0000061 	adrp	x1, 204f0000 <imx_gicv3_ctx+0x26d0>
    204e3108:	d1001273 	sub	x19, x19, #0x4
    204e310c:	91042021 	add	x1, x1, #0x108
    204e3110:	d2800002 	mov	x2, #0x0                   	// #0
    204e3114:	91000442 	add	x2, x2, #0x1
    204e3118:	6b02029f 	cmp	w20, w2
    204e311c:	54000082 	b.cs	204e312c <psci_get_parent_pwr_domain_nodes+0x4c>  // b.hs, b.nlast
    204e3120:	a94153f3 	ldp	x19, x20, [sp, #16]
    204e3124:	a8c27bfd 	ldp	x29, x30, [sp], #32
    204e3128:	d65f03c0 	ret
    204e312c:	b8227a60 	str	w0, [x19, x2, lsl #2]
    204e3130:	8b205020 	add	x0, x1, w0, uxtw #4
    204e3134:	b9400800 	ldr	w0, [x0, #8]
    204e3138:	17fffff7 	b	204e3114 <psci_get_parent_pwr_domain_nodes+0x34>

00000000204e313c <psci_set_pwr_domains_to_run>:
    204e313c:	a9be7bfd 	stp	x29, x30, [sp, #-32]!
    204e3140:	910003fd 	mov	x29, sp
    204e3144:	a90153f3 	stp	x19, x20, [sp, #16]
    204e3148:	2a0003f4 	mov	w20, w0
    204e314c:	2a0103f3 	mov	w19, w1
    204e3150:	b0000061 	adrp	x1, 204f0000 <imx_gicv3_ctx+0x26d0>
    204e3154:	91190021 	add	x1, x1, #0x640
    204e3158:	97ffff31 	bl	204e2e1c <per_cpu_by_index_compute>
    204e315c:	b9400804 	ldr	w4, [x0, #8]
    204e3160:	b0000066 	adrp	x6, 204f0000 <imx_gicv3_ctx+0x26d0>
    204e3164:	910420c6 	add	x6, x6, #0x108
    204e3168:	52800025 	mov	w5, #0x1                   	// #1
    204e316c:	6b1300bf 	cmp	w5, w19
    204e3170:	54000189 	b.ls	204e31a0 <psci_set_pwr_domains_to_run+0x64>  // b.plast
    204e3174:	b0000073 	adrp	x19, 204f0000 <imx_gicv3_ctx+0x26d0>
    204e3178:	910e0273 	add	x19, x19, #0x380
    204e317c:	aa1303e0 	mov	x0, x19
    204e3180:	97ffff33 	bl	204e2e4c <per_cpu_cur_compute>
    204e3184:	b900201f 	str	wzr, [x0, #32]
    204e3188:	aa1303e0 	mov	x0, x19
    204e318c:	97ffff30 	bl	204e2e4c <per_cpu_cur_compute>
    204e3190:	3900a01f 	strb	wzr, [x0, #40]
    204e3194:	a94153f3 	ldp	x19, x20, [sp, #16]
    204e3198:	a8c27bfd 	ldp	x29, x30, [sp], #32
    204e319c:	d65f03c0 	ret
    204e31a0:	8b2450c4 	add	x4, x6, w4, uxtw #4
    204e31a4:	2a0503e0 	mov	w0, w5
    204e31a8:	2a1403e1 	mov	w1, w20
    204e31ac:	52800002 	mov	w2, #0x0                   	// #0
    204e31b0:	110004a5 	add	w5, w5, #0x1
    204e31b4:	3900309f 	strb	wzr, [x4, #12]
    204e31b8:	97ffff2b 	bl	204e2e64 <psci_set_req_local_pwr_state>
    204e31bc:	b9400884 	ldr	w4, [x4, #8]
    204e31c0:	17ffffeb 	b	204e316c <psci_set_pwr_domains_to_run+0x30>

00000000204e31c4 <psci_do_state_coordination>:
    204e31c4:	a9bb7bfd 	stp	x29, x30, [sp, #-80]!
    204e31c8:	910003fd 	mov	x29, sp
    204e31cc:	a90153f3 	stp	x19, x20, [sp, #16]
    204e31d0:	aa0203f4 	mov	x20, x2
    204e31d4:	a9025bf5 	stp	x21, x22, [sp, #32]
    204e31d8:	2a0003f6 	mov	w22, w0
    204e31dc:	2a0103f5 	mov	w21, w1
    204e31e0:	b0000061 	adrp	x1, 204f0000 <imx_gicv3_ctx+0x26d0>
    204e31e4:	91190021 	add	x1, x1, #0x640
    204e31e8:	a90363f7 	stp	x23, x24, [sp, #48]
    204e31ec:	b0000077 	adrp	x23, 204f0000 <imx_gicv3_ctx+0x26d0>
    204e31f0:	b0000078 	adrp	x24, 204f0000 <imx_gicv3_ctx+0x26d0>
    204e31f4:	a9046bf9 	stp	x25, x26, [sp, #64]
    204e31f8:	97ffff09 	bl	204e2e1c <per_cpu_by_index_compute>
    204e31fc:	b9400805 	ldr	w5, [x0, #8]
    204e3200:	910422f7 	add	x23, x23, #0x108
    204e3204:	9104a318 	add	x24, x24, #0x128
    204e3208:	52800024 	mov	w4, #0x1                   	// #1
    204e320c:	6b15009f 	cmp	w4, w21
    204e3210:	11000493 	add	w19, w4, #0x1
    204e3214:	54000129 	b.ls	204e3238 <psci_do_state_coordination+0x74>  // b.plast
    204e3218:	6b15027f 	cmp	w19, w21
    204e321c:	540004c9 	b.ls	204e32b4 <psci_do_state_coordination+0xf0>  // b.plast
    204e3220:	a94153f3 	ldp	x19, x20, [sp, #16]
    204e3224:	a9425bf5 	ldp	x21, x22, [sp, #32]
    204e3228:	a94363f7 	ldp	x23, x24, [sp, #48]
    204e322c:	a9446bf9 	ldp	x25, x26, [sp, #64]
    204e3230:	a8c57bfd 	ldp	x29, x30, [sp], #80
    204e3234:	d65f03c0 	ret
    204e3238:	2a0403f9 	mov	w25, w4
    204e323c:	2a0503fa 	mov	w26, w5
    204e3240:	d37c7ca5 	ubfiz	x5, x5, #4, #32
    204e3244:	2a1603e1 	mov	w1, w22
    204e3248:	2a0403e0 	mov	w0, w4
    204e324c:	38796a82 	ldrb	w2, [x20, x25]
    204e3250:	97ffff05 	bl	204e2e64 <psci_set_req_local_pwr_state>
    204e3254:	b8656ae1 	ldr	w1, [x23, x5]
    204e3258:	51000483 	sub	w3, w4, #0x1
    204e325c:	7100047f 	cmp	w3, #0x1
    204e3260:	54000268 	b.hi	204e32ac <psci_do_state_coordination+0xe8>  // b.pmore
    204e3264:	2a0103e0 	mov	w0, w1
    204e3268:	b9400302 	ldr	w2, [x24]
    204e326c:	8b234403 	add	x3, x0, w3, uxtw #1
    204e3270:	b0000060 	adrp	x0, 204f0000 <imx_gicv3_ctx+0x26d0>
    204e3274:	910be400 	add	x0, x0, #0x2f9
    204e3278:	6b02003f 	cmp	w1, w2
    204e327c:	8b000063 	add	x3, x3, x0
    204e3280:	9a9f3061 	csel	x1, x3, xzr, cc	// cc = lo, ul, last
    204e3284:	8b1a12fa 	add	x26, x23, x26, lsl #4
    204e3288:	2a0403e0 	mov	w0, w4
    204e328c:	b9400742 	ldr	w2, [x26, #4]
    204e3290:	9400076e 	bl	204e5048 <plat_get_target_pwr_state>
    204e3294:	38396a80 	strb	w0, [x20, x25]
    204e3298:	72001c1f 	tst	w0, #0xff
    204e329c:	54fffbe0 	b.eq	204e3218 <psci_do_state_coordination+0x54>  // b.none
    204e32a0:	b9400b45 	ldr	w5, [x26, #8]
    204e32a4:	2a1303e4 	mov	w4, w19
    204e32a8:	17ffffd9 	b	204e320c <psci_do_state_coordination+0x48>
    204e32ac:	d2800001 	mov	x1, #0x0                   	// #0
    204e32b0:	17fffff5 	b	204e3284 <psci_do_state_coordination+0xc0>
    204e32b4:	2a1303e4 	mov	w4, w19
    204e32b8:	2a1303e0 	mov	w0, w19
    204e32bc:	2a1603e1 	mov	w1, w22
    204e32c0:	11000673 	add	w19, w19, #0x1
    204e32c4:	38646a82 	ldrb	w2, [x20, x4]
    204e32c8:	97fffee7 	bl	204e2e64 <psci_set_req_local_pwr_state>
    204e32cc:	38246a9f 	strb	wzr, [x20, x4]
    204e32d0:	17ffffd2 	b	204e3218 <psci_do_state_coordination+0x54>

00000000204e32d4 <psci_find_max_off_lvl>:
    204e32d4:	39400801 	ldrb	w1, [x0, #2]
    204e32d8:	51000c21 	sub	w1, w1, #0x3
    204e32dc:	7100043f 	cmp	w1, #0x1
    204e32e0:	54000189 	b.ls	204e3310 <psci_find_max_off_lvl+0x3c>  // b.plast
    204e32e4:	39400401 	ldrb	w1, [x0, #1]
    204e32e8:	51000c21 	sub	w1, w1, #0x3
    204e32ec:	7100043f 	cmp	w1, #0x1
    204e32f0:	54000149 	b.ls	204e3318 <psci_find_max_off_lvl+0x44>  // b.plast
    204e32f4:	39400001 	ldrb	w1, [x0]
    204e32f8:	52800060 	mov	w0, #0x3                   	// #3
    204e32fc:	51000c21 	sub	w1, w1, #0x3
    204e3300:	7100043f 	cmp	w1, #0x1
    204e3304:	54000048 	b.hi	204e330c <psci_find_max_off_lvl+0x38>  // b.pmore
    204e3308:	52800000 	mov	w0, #0x0                   	// #0
    204e330c:	d65f03c0 	ret
    204e3310:	52800040 	mov	w0, #0x2                   	// #2
    204e3314:	17fffffe 	b	204e330c <psci_find_max_off_lvl+0x38>
    204e3318:	52800020 	mov	w0, #0x1                   	// #1
    204e331c:	17fffffc 	b	204e330c <psci_find_max_off_lvl+0x38>

00000000204e3320 <psci_find_target_suspend_lvl>:
    204e3320:	39400801 	ldrb	w1, [x0, #2]
    204e3324:	35000101 	cbnz	w1, 204e3344 <psci_find_target_suspend_lvl+0x24>
    204e3328:	39400401 	ldrb	w1, [x0, #1]
    204e332c:	35000101 	cbnz	w1, 204e334c <psci_find_target_suspend_lvl+0x2c>
    204e3330:	39400001 	ldrb	w1, [x0]
    204e3334:	52800060 	mov	w0, #0x3                   	// #3
    204e3338:	34000041 	cbz	w1, 204e3340 <psci_find_target_suspend_lvl+0x20>
    204e333c:	52800000 	mov	w0, #0x0                   	// #0
    204e3340:	d65f03c0 	ret
    204e3344:	52800040 	mov	w0, #0x2                   	// #2
    204e3348:	17fffffe 	b	204e3340 <psci_find_target_suspend_lvl+0x20>
    204e334c:	52800020 	mov	w0, #0x1                   	// #1
    204e3350:	17fffffc 	b	204e3340 <psci_find_target_suspend_lvl+0x20>

00000000204e3354 <psci_acquire_pwr_domain_locks>:
    204e3354:	a9bc7bfd 	stp	x29, x30, [sp, #-64]!
    204e3358:	910003fd 	mov	x29, sp
    204e335c:	a90153f3 	stp	x19, x20, [sp, #16]
    204e3360:	2a0003f4 	mov	w20, w0
    204e3364:	52800033 	mov	w19, #0x1                   	// #1
    204e3368:	a9025bf5 	stp	x21, x22, [sp, #32]
    204e336c:	b0000076 	adrp	x22, 204f0000 <imx_gicv3_ctx+0x26d0>
    204e3370:	aa0103f5 	mov	x21, x1
    204e3374:	910422d6 	add	x22, x22, #0x108
    204e3378:	f9001bf7 	str	x23, [sp, #48]
    204e337c:	b0000077 	adrp	x23, 204f0000 <imx_gicv3_ctx+0x26d0>
    204e3380:	910402f7 	add	x23, x23, #0x100
    204e3384:	6b14027f 	cmp	w19, w20
    204e3388:	540000c9 	b.ls	204e33a0 <psci_acquire_pwr_domain_locks+0x4c>  // b.plast
    204e338c:	a94153f3 	ldp	x19, x20, [sp, #16]
    204e3390:	a9425bf5 	ldp	x21, x22, [sp, #32]
    204e3394:	f9401bf7 	ldr	x23, [sp, #48]
    204e3398:	a8c47bfd 	ldp	x29, x30, [sp], #64
    204e339c:	d65f03c0 	ret
    204e33a0:	51000660 	sub	w0, w19, #0x1
    204e33a4:	11000673 	add	w19, w19, #0x1
    204e33a8:	b8607aa0 	ldr	w0, [x21, x0, lsl #2]
    204e33ac:	8b0012c0 	add	x0, x22, x0, lsl #4
    204e33b0:	79401c00 	ldrh	w0, [x0, #14]
    204e33b4:	8b000ae0 	add	x0, x23, x0, lsl #2
    204e33b8:	940016aa 	bl	204e8e60 <spin_lock>
    204e33bc:	17fffff2 	b	204e3384 <psci_acquire_pwr_domain_locks+0x30>

00000000204e33c0 <psci_release_pwr_domain_locks>:
    204e33c0:	a9bd7bfd 	stp	x29, x30, [sp, #-48]!
    204e33c4:	910003fd 	mov	x29, sp
    204e33c8:	a90153f3 	stp	x19, x20, [sp, #16]
    204e33cc:	2a0003f3 	mov	w19, w0
    204e33d0:	aa0103f4 	mov	x20, x1
    204e33d4:	a9025bf5 	stp	x21, x22, [sp, #32]
    204e33d8:	b0000075 	adrp	x21, 204f0000 <imx_gicv3_ctx+0x26d0>
    204e33dc:	b0000076 	adrp	x22, 204f0000 <imx_gicv3_ctx+0x26d0>
    204e33e0:	910422b5 	add	x21, x21, #0x108
    204e33e4:	910402d6 	add	x22, x22, #0x100
    204e33e8:	350000b3 	cbnz	w19, 204e33fc <psci_release_pwr_domain_locks+0x3c>
    204e33ec:	a94153f3 	ldp	x19, x20, [sp, #16]
    204e33f0:	a9425bf5 	ldp	x21, x22, [sp, #32]
    204e33f4:	a8c37bfd 	ldp	x29, x30, [sp], #48
    204e33f8:	d65f03c0 	ret
    204e33fc:	51000673 	sub	w19, w19, #0x1
    204e3400:	b8735a80 	ldr	w0, [x20, w19, uxtw #2]
    204e3404:	8b0012a0 	add	x0, x21, x0, lsl #4
    204e3408:	79401c00 	ldrh	w0, [x0, #14]
    204e340c:	8b000ac0 	add	x0, x22, x0, lsl #2
    204e3410:	9400169c 	bl	204e8e80 <spin_unlock>
    204e3414:	17fffff5 	b	204e33e8 <psci_release_pwr_domain_locks+0x28>

00000000204e3418 <psci_validate_entry_point>:
    204e3418:	a9bb7bfd 	stp	x29, x30, [sp, #-80]!
    204e341c:	910003fd 	mov	x29, sp
    204e3420:	a90153f3 	stp	x19, x20, [sp, #16]
    204e3424:	aa0003f4 	mov	x20, x0
    204e3428:	d0000040 	adrp	x0, 204ed000 <__STACKS_START__+0x1280>
    204e342c:	aa0103f3 	mov	x19, x1
    204e3430:	a9025bf5 	stp	x21, x22, [sp, #32]
    204e3434:	f9423000 	ldr	x0, [x0, #1120]
    204e3438:	a90363f7 	stp	x23, x24, [sp, #48]
    204e343c:	aa0203f8 	mov	x24, x2
    204e3440:	f9403401 	ldr	x1, [x0, #104]
    204e3444:	f90023f9 	str	x25, [sp, #64]
    204e3448:	b5000361 	cbnz	x1, 204e34b4 <psci_validate_entry_point+0x9c>
    204e344c:	d53e1117 	mrs	x23, scr_el3
    204e3450:	d5381000 	mrs	x0, sctlr_el1
    204e3454:	927802f9 	and	x25, x23, #0x100
    204e3458:	37400437 	tbnz	w23, #8, 204e34dc <psci_validate_entry_point+0xc4>
    204e345c:	f2670000 	ands	x0, x0, #0x2000000
    204e3460:	52802021 	mov	w1, #0x101                 	// #257
    204e3464:	72a00b01 	movk	w1, #0x58, lsl #16
    204e3468:	d2800075 	mov	x21, #0x3                   	// #3
    204e346c:	9a9f16a0 	csinc	x0, x21, xzr, ne	// ne = any
    204e3470:	29000281 	stp	w1, w0, [x20]
    204e3474:	f9000693 	str	x19, [x20, #8]
    204e3478:	1a9f07f6 	cset	w22, ne	// ne = any
    204e347c:	91006280 	add	x0, x20, #0x18
    204e3480:	d2800801 	mov	x1, #0x40                  	// #64
    204e3484:	94001588 	bl	204e8aa4 <zeromem>
    204e3488:	f9000e98 	str	x24, [x20, #24]
    204e348c:	365002d7 	tbz	w23, #10, 204e34e4 <psci_validate_entry_point+0xcc>
    204e3490:	37000193 	tbnz	w19, #0, 204e34c0 <psci_validate_entry_point+0xa8>
    204e3494:	f100033f 	cmp	x25, #0x0
    204e3498:	52807821 	mov	w1, #0x3c1                 	// #961
    204e349c:	1a9f07e0 	cset	w0, ne	// ne = any
    204e34a0:	11000400 	add	w0, w0, #0x1
    204e34a4:	2a000820 	orr	w0, w1, w0, lsl #2
    204e34a8:	b9001280 	str	w0, [x20, #16]
    204e34ac:	52800000 	mov	w0, #0x0                   	// #0
    204e34b0:	14000005 	b	204e34c4 <psci_validate_entry_point+0xac>
    204e34b4:	aa1303e0 	mov	x0, x19
    204e34b8:	d63f0020 	blr	x1
    204e34bc:	34fffc80 	cbz	w0, 204e344c <psci_validate_entry_point+0x34>
    204e34c0:	12800100 	mov	w0, #0xfffffff7            	// #-9
    204e34c4:	a94153f3 	ldp	x19, x20, [sp, #16]
    204e34c8:	a9425bf5 	ldp	x21, x22, [sp, #32]
    204e34cc:	a94363f7 	ldp	x23, x24, [sp, #48]
    204e34d0:	f94023f9 	ldr	x25, [sp, #64]
    204e34d4:	a8c57bfd 	ldp	x29, x30, [sp], #80
    204e34d8:	d65f03c0 	ret
    204e34dc:	d53c1000 	mrs	x0, sctlr_el2
    204e34e0:	17ffffdf 	b	204e345c <psci_validate_entry_point+0x44>
    204e34e4:	52800140 	mov	w0, #0xa                   	// #10
    204e34e8:	f100033f 	cmp	x25, #0x0
    204e34ec:	1a8002b5 	csel	w21, w21, w0, eq	// eq = none
    204e34f0:	531b0273 	ubfiz	w19, w19, #5, #1
    204e34f4:	52803a00 	mov	w0, #0x1d0                 	// #464
    204e34f8:	2a150273 	orr	w19, w19, w21
    204e34fc:	2a162416 	orr	w22, w0, w22, lsl #9
    204e3500:	2a160273 	orr	w19, w19, w22
    204e3504:	b9001293 	str	w19, [x20, #16]
    204e3508:	17ffffe9 	b	204e34ac <psci_validate_entry_point+0x94>

00000000204e350c <psci_warmboot_entrypoint>:
    204e350c:	a9bc7bfd 	stp	x29, x30, [sp, #-64]!
    204e3510:	910003fd 	mov	x29, sp
    204e3514:	f90013f5 	str	x21, [sp, #32]
    204e3518:	b0000075 	adrp	x21, 204f0000 <imx_gicv3_ctx+0x26d0>
    204e351c:	910e02b5 	add	x21, x21, #0x380
    204e3520:	a90153f3 	stp	x19, x20, [sp, #16]
    204e3524:	2a0003f3 	mov	w19, w0
    204e3528:	aa1503e0 	mov	x0, x21
    204e352c:	790063ff 	strh	wzr, [sp, #48]
    204e3530:	3900cbff 	strb	wzr, [sp, #50]
    204e3534:	f9001fff 	str	xzr, [sp, #56]
    204e3538:	97fffe45 	bl	204e2e4c <per_cpu_cur_compute>
    204e353c:	b9402001 	ldr	w1, [x0, #32]
    204e3540:	7100043f 	cmp	w1, #0x1
    204e3544:	540000c1 	b.ne	204e355c <psci_warmboot_entrypoint+0x50>  // b.any
    204e3548:	f0000020 	adrp	x0, 204ea000 <wakeupmix_irq_mask+0x2c>
    204e354c:	9103a000 	add	x0, x0, #0xe8
    204e3550:	97fff579 	bl	204e0b34 <tf_log>
    204e3554:	97fffa1e 	bl	204e1dcc <console_flush>
    204e3558:	940014d9 	bl	204e88bc <el3_panic>
    204e355c:	b9402414 	ldr	w20, [x0, #36]
    204e3560:	9100e3e2 	add	x2, sp, #0x38
    204e3564:	2a1303e0 	mov	w0, w19
    204e3568:	2a1403e1 	mov	w1, w20
    204e356c:	97fffedd 	bl	204e30e0 <psci_get_parent_pwr_domain_nodes>
    204e3570:	9100e3e1 	add	x1, sp, #0x38
    204e3574:	2a1403e0 	mov	w0, w20
    204e3578:	97ffff77 	bl	204e3354 <psci_acquire_pwr_domain_locks>
    204e357c:	9100c3e2 	add	x2, sp, #0x30
    204e3580:	2a1403e1 	mov	w1, w20
    204e3584:	2a1303e0 	mov	w0, w19
    204e3588:	97fffe8f 	bl	204e2fc4 <psci_get_target_local_pwr_states>
    204e358c:	aa1503e0 	mov	x0, x21
    204e3590:	97fffe2f 	bl	204e2e4c <per_cpu_cur_compute>
    204e3594:	b9402000 	ldr	w0, [x0, #32]
    204e3598:	7100081f 	cmp	w0, #0x2
    204e359c:	54000261 	b.ne	204e35e8 <psci_warmboot_entrypoint+0xdc>  // b.any
    204e35a0:	9100c3e1 	add	x1, sp, #0x30
    204e35a4:	2a1303e0 	mov	w0, w19
    204e35a8:	94000276 	bl	204e3f80 <psci_cpu_on_finish>
    204e35ac:	aa1503e0 	mov	x0, x21
    204e35b0:	97fffe27 	bl	204e2e4c <per_cpu_cur_compute>
    204e35b4:	f9400800 	ldr	x0, [x0, #16]
    204e35b8:	97fffd3d 	bl	204e2aac <cm_init_my_context>
    204e35bc:	97fffdd4 	bl	204e2d0c <cm_prepare_el3_exit_ns>
    204e35c0:	2a1403e1 	mov	w1, w20
    204e35c4:	2a1303e0 	mov	w0, w19
    204e35c8:	97fffedd 	bl	204e313c <psci_set_pwr_domains_to_run>
    204e35cc:	9100e3e1 	add	x1, sp, #0x38
    204e35d0:	2a1403e0 	mov	w0, w20
    204e35d4:	97ffff7b 	bl	204e33c0 <psci_release_pwr_domain_locks>
    204e35d8:	a94153f3 	ldp	x19, x20, [sp, #16]
    204e35dc:	f94013f5 	ldr	x21, [sp, #32]
    204e35e0:	a8c47bfd 	ldp	x29, x30, [sp], #64
    204e35e4:	d65f03c0 	ret
    204e35e8:	9100c3e0 	add	x0, sp, #0x30
    204e35ec:	97ffff3a 	bl	204e32d4 <psci_find_max_off_lvl>
    204e35f0:	9100c3e2 	add	x2, sp, #0x30
    204e35f4:	2a0003e1 	mov	w1, w0
    204e35f8:	52800003 	mov	w3, #0x0                   	// #0
    204e35fc:	2a1303e0 	mov	w0, w19
    204e3600:	94000383 	bl	204e440c <psci_cpu_suspend_to_powerdown_finish>
    204e3604:	17ffffea 	b	204e35ac <psci_warmboot_entrypoint+0xa0>

00000000204e3608 <psci_spd_migrate_info>:
    204e3608:	d0000041 	adrp	x1, 204ed000 <__STACKS_START__+0x1280>
    204e360c:	f9423421 	ldr	x1, [x1, #1128]
    204e3610:	b40000a1 	cbz	x1, 204e3624 <psci_spd_migrate_info+0x1c>
    204e3614:	f9401821 	ldr	x1, [x1, #48]
    204e3618:	b4000061 	cbz	x1, 204e3624 <psci_spd_migrate_info+0x1c>
    204e361c:	aa0103f0 	mov	x16, x1
    204e3620:	d61f0200 	br	x16
    204e3624:	12800000 	mov	w0, #0xffffffff            	// #-1
    204e3628:	d65f03c0 	ret

00000000204e362c <psci_print_power_domain_map>:
    204e362c:	d65f03c0 	ret

00000000204e3630 <psci_pwrdown_cpu_start>:
    204e3630:	17fffe1a 	b	204e2e98 <call_cpu_pwr_dwn>

00000000204e3634 <psci_pwrdown_cpu_end_terminal>:
    204e3634:	a9bf7bfd 	stp	x29, x30, [sp, #-16]!
    204e3638:	910003fd 	mov	x29, sp
    204e363c:	d5033f9f 	dsb	sy
    204e3640:	52800400 	mov	w0, #0x20                  	// #32
    204e3644:	d503207f 	wfi
    204e3648:	71000400 	subs	w0, w0, #0x1
    204e364c:	54ffffc1 	b.ne	204e3644 <psci_pwrdown_cpu_end_terminal+0x10>  // b.any
    204e3650:	f0000020 	adrp	x0, 204ea000 <wakeupmix_irq_mask+0x2c>
    204e3654:	91042800 	add	x0, x0, #0x10a
    204e3658:	97fff537 	bl	204e0b34 <tf_log>
    204e365c:	97fff9dc 	bl	204e1dcc <console_flush>
    204e3660:	94001497 	bl	204e88bc <el3_panic>

00000000204e3664 <psci_pwrdown_cpu_end_wakeup>:
    204e3664:	a9bf7bfd 	stp	x29, x30, [sp, #-16]!
    204e3668:	910003fd 	mov	x29, sp
    204e366c:	d5033f9f 	dsb	sy
    204e3670:	d503207f 	wfi
    204e3674:	97fffe09 	bl	204e2e98 <call_cpu_pwr_dwn>
    204e3678:	d29a8001 	mov	x1, #0xd400                	// #54272
    204e367c:	f2b57481 	movk	x1, #0xaba4, lsl #16
    204e3680:	f2d49a81 	movk	x1, #0xa4d4, lsl #32
    204e3684:	f2fff561 	movk	x1, #0xffab, lsl #48
    204e3688:	eb01001f 	cmp	x0, x1
    204e368c:	54000060 	b.eq	204e3698 <psci_pwrdown_cpu_end_wakeup+0x34>  // b.none
    204e3690:	97fff9cf 	bl	204e1dcc <console_flush>
    204e3694:	9400148a 	bl	204e88bc <el3_panic>
    204e3698:	a8c17bfd 	ldp	x29, x30, [sp], #16
    204e369c:	d65f03c0 	ret

00000000204e36a0 <is_valid_mpidr>:
    204e36a0:	a9bf7bfd 	stp	x29, x30, [sp, #-16]!
    204e36a4:	910003fd 	mov	x29, sp
    204e36a8:	94001181 	bl	204e7cac <plat_core_pos_by_mpidr>
    204e36ac:	7100041f 	cmp	w0, #0x1
    204e36b0:	1a9f87e0 	cset	w0, ls	// ls = plast
    204e36b4:	a8c17bfd 	ldp	x29, x30, [sp], #16
    204e36b8:	d65f03c0 	ret

00000000204e36bc <psci_cpu_on>:
    204e36bc:	a9bd7bfd 	stp	x29, x30, [sp, #-48]!
    204e36c0:	910003fd 	mov	x29, sp
    204e36c4:	a90153f3 	stp	x19, x20, [sp, #16]
    204e36c8:	aa0003f3 	mov	x19, x0
    204e36cc:	aa0103f4 	mov	x20, x1
    204e36d0:	a9025bf5 	stp	x21, x22, [sp, #32]
    204e36d4:	aa0203f5 	mov	x21, x2
    204e36d8:	94001175 	bl	204e7cac <plat_core_pos_by_mpidr>
    204e36dc:	2a0003f6 	mov	w22, w0
    204e36e0:	aa1303e0 	mov	x0, x19
    204e36e4:	97ffffef 	bl	204e36a0 <is_valid_mpidr>
    204e36e8:	36000220 	tbz	w0, #0, 204e372c <psci_cpu_on+0x70>
    204e36ec:	2a1603e0 	mov	w0, w22
    204e36f0:	b0000061 	adrp	x1, 204f0000 <imx_gicv3_ctx+0x26d0>
    204e36f4:	910e0021 	add	x1, x1, #0x380
    204e36f8:	97fffdc9 	bl	204e2e1c <per_cpu_by_index_compute>
    204e36fc:	f9400816 	ldr	x22, [x0, #16]
    204e3700:	aa1503e2 	mov	x2, x21
    204e3704:	aa1403e1 	mov	x1, x20
    204e3708:	aa1603e0 	mov	x0, x22
    204e370c:	97ffff43 	bl	204e3418 <psci_validate_entry_point>
    204e3710:	35000100 	cbnz	w0, 204e3730 <psci_cpu_on+0x74>
    204e3714:	aa1603e1 	mov	x1, x22
    204e3718:	aa1303e0 	mov	x0, x19
    204e371c:	a94153f3 	ldp	x19, x20, [sp, #16]
    204e3720:	a9425bf5 	ldp	x21, x22, [sp, #32]
    204e3724:	a8c37bfd 	ldp	x29, x30, [sp], #48
    204e3728:	140001b9 	b	204e3e0c <psci_cpu_on_start>
    204e372c:	12800020 	mov	w0, #0xfffffffe            	// #-2
    204e3730:	a94153f3 	ldp	x19, x20, [sp, #16]
    204e3734:	a9425bf5 	ldp	x21, x22, [sp, #32]
    204e3738:	a8c37bfd 	ldp	x29, x30, [sp], #48
    204e373c:	d65f03c0 	ret

00000000204e3740 <psci_cpu_suspend>:
    204e3740:	a9bb7bfd 	stp	x29, x30, [sp, #-80]!
    204e3744:	910003fd 	mov	x29, sp
    204e3748:	a90153f3 	stp	x19, x20, [sp, #16]
    204e374c:	2a0003f4 	mov	w20, w0
    204e3750:	a9025bf5 	stp	x21, x22, [sp, #32]
    204e3754:	a90363f7 	stp	x23, x24, [sp, #48]
    204e3758:	aa0103f7 	mov	x23, x1
    204e375c:	aa0203f8 	mov	x24, x2
    204e3760:	790093ff 	strh	wzr, [sp, #72]
    204e3764:	39012bff 	strb	wzr, [sp, #74]
    204e3768:	9400165f 	bl	204e90e4 <plat_my_core_pos>
    204e376c:	910123e1 	add	x1, sp, #0x48
    204e3770:	2a0003f6 	mov	w22, w0
    204e3774:	2a1403e0 	mov	w0, w20
    204e3778:	97fffdd8 	bl	204e2ed8 <psci_validate_power_state>
    204e377c:	2a0003f3 	mov	w19, w0
    204e3780:	350003a0 	cbnz	w0, 204e37f4 <psci_cpu_suspend+0xb4>
    204e3784:	910123e0 	add	x0, sp, #0x48
    204e3788:	d3504294 	ubfx	x20, x20, #16, #1
    204e378c:	97fffee5 	bl	204e3320 <psci_find_target_suspend_lvl>
    204e3790:	2a0003f5 	mov	w21, w0
    204e3794:	71000c1f 	cmp	w0, #0x3
    204e3798:	540000c1 	b.ne	204e37b0 <psci_cpu_suspend+0x70>  // b.any
    204e379c:	f0000020 	adrp	x0, 204ea000 <wakeupmix_irq_mask+0x2c>
    204e37a0:	91049400 	add	x0, x0, #0x125
    204e37a4:	97fff4e4 	bl	204e0b34 <tf_log>
    204e37a8:	97fff989 	bl	204e1dcc <console_flush>
    204e37ac:	94001444 	bl	204e88bc <el3_panic>
    204e37b0:	2a000280 	orr	w0, w20, w0
    204e37b4:	350002c0 	cbnz	w0, 204e380c <psci_cpu_suspend+0xcc>
    204e37b8:	d0000040 	adrp	x0, 204ed000 <__STACKS_START__+0x1280>
    204e37bc:	f9423000 	ldr	x0, [x0, #1120]
    204e37c0:	f9400015 	ldr	x21, [x0]
    204e37c4:	b40004b5 	cbz	x21, 204e3858 <psci_cpu_suspend+0x118>
    204e37c8:	394123f6 	ldrb	w22, [sp, #72]
    204e37cc:	b0000074 	adrp	x20, 204f0000 <imx_gicv3_ctx+0x26d0>
    204e37d0:	910e0294 	add	x20, x20, #0x380
    204e37d4:	aa1403e0 	mov	x0, x20
    204e37d8:	97fffd9d 	bl	204e2e4c <per_cpu_cur_compute>
    204e37dc:	3900a016 	strb	w22, [x0, #40]
    204e37e0:	2a1603e0 	mov	w0, w22
    204e37e4:	d63f02a0 	blr	x21
    204e37e8:	aa1403e0 	mov	x0, x20
    204e37ec:	97fffd98 	bl	204e2e4c <per_cpu_cur_compute>
    204e37f0:	3900a01f 	strb	wzr, [x0, #40]
    204e37f4:	a9425bf5 	ldp	x21, x22, [sp, #32]
    204e37f8:	2a1303e0 	mov	w0, w19
    204e37fc:	a94153f3 	ldp	x19, x20, [sp, #16]
    204e3800:	a94363f7 	ldp	x23, x24, [sp, #48]
    204e3804:	a8c57bfd 	ldp	x29, x30, [sp], #80
    204e3808:	d65f03c0 	ret
    204e380c:	35000114 	cbnz	w20, 204e382c <psci_cpu_suspend+0xec>
    204e3810:	2a1403e3 	mov	w3, w20
    204e3814:	910123e2 	add	x2, sp, #0x48
    204e3818:	2a1503e1 	mov	w1, w21
    204e381c:	2a1603e0 	mov	w0, w22
    204e3820:	94000324 	bl	204e44b0 <psci_cpu_suspend_start>
    204e3824:	2a0003f3 	mov	w19, w0
    204e3828:	17fffff3 	b	204e37f4 <psci_cpu_suspend+0xb4>
    204e382c:	2a1603e0 	mov	w0, w22
    204e3830:	b0000061 	adrp	x1, 204f0000 <imx_gicv3_ctx+0x26d0>
    204e3834:	910e0021 	add	x1, x1, #0x380
    204e3838:	97fffd79 	bl	204e2e1c <per_cpu_by_index_compute>
    204e383c:	f9400800 	ldr	x0, [x0, #16]
    204e3840:	aa1803e2 	mov	x2, x24
    204e3844:	aa1703e1 	mov	x1, x23
    204e3848:	97fffef4 	bl	204e3418 <psci_validate_entry_point>
    204e384c:	2a0003f3 	mov	w19, w0
    204e3850:	34fffe00 	cbz	w0, 204e3810 <psci_cpu_suspend+0xd0>
    204e3854:	17ffffe8 	b	204e37f4 <psci_cpu_suspend+0xb4>
    204e3858:	12800033 	mov	w19, #0xfffffffe            	// #-2
    204e385c:	17ffffe6 	b	204e37f4 <psci_cpu_suspend+0xb4>

00000000204e3860 <psci_system_suspend>:
    204e3860:	a9bc7bfd 	stp	x29, x30, [sp, #-64]!
    204e3864:	910003fd 	mov	x29, sp
    204e3868:	a90153f3 	stp	x19, x20, [sp, #16]
    204e386c:	aa0003f4 	mov	x20, x0
    204e3870:	a9025bf5 	stp	x21, x22, [sp, #32]
    204e3874:	aa0103f5 	mov	x21, x1
    204e3878:	9400161b 	bl	204e90e4 <plat_my_core_pos>
    204e387c:	b0000061 	adrp	x1, 204f0000 <imx_gicv3_ctx+0x26d0>
    204e3880:	910e0021 	add	x1, x1, #0x380
    204e3884:	2a0003f3 	mov	w19, w0
    204e3888:	97fffd65 	bl	204e2e1c <per_cpu_by_index_compute>
    204e388c:	f9400816 	ldr	x22, [x0, #16]
    204e3890:	2a1303e0 	mov	w0, w19
    204e3894:	97fffda0 	bl	204e2f14 <psci_is_last_on_cpu>
    204e3898:	370000c0 	tbnz	w0, #0, 204e38b0 <psci_system_suspend+0x50>
    204e389c:	12800040 	mov	w0, #0xfffffffd            	// #-3
    204e38a0:	a94153f3 	ldp	x19, x20, [sp, #16]
    204e38a4:	a9425bf5 	ldp	x21, x22, [sp, #32]
    204e38a8:	a8c47bfd 	ldp	x29, x30, [sp], #64
    204e38ac:	d65f03c0 	ret
    204e38b0:	aa1503e2 	mov	x2, x21
    204e38b4:	aa1403e1 	mov	x1, x20
    204e38b8:	aa1603e0 	mov	x0, x22
    204e38bc:	97fffed7 	bl	204e3418 <psci_validate_entry_point>
    204e38c0:	35ffff00 	cbnz	w0, 204e38a0 <psci_system_suspend+0x40>
    204e38c4:	9100e3e0 	add	x0, sp, #0x38
    204e38c8:	97fffd8e 	bl	204e2f00 <psci_query_sys_suspend_pwrstate>
    204e38cc:	9100e3e0 	add	x0, sp, #0x38
    204e38d0:	97fffe94 	bl	204e3320 <psci_find_target_suspend_lvl>
    204e38d4:	7100041f 	cmp	w0, #0x1
    204e38d8:	54fffe29 	b.ls	204e389c <psci_system_suspend+0x3c>  // b.plast
    204e38dc:	9100e3e2 	add	x2, sp, #0x38
    204e38e0:	2a1303e0 	mov	w0, w19
    204e38e4:	52800023 	mov	w3, #0x1                   	// #1
    204e38e8:	52800041 	mov	w1, #0x2                   	// #2
    204e38ec:	940002f1 	bl	204e44b0 <psci_cpu_suspend_start>
    204e38f0:	17ffffec 	b	204e38a0 <psci_system_suspend+0x40>

00000000204e38f4 <psci_cpu_off>:
    204e38f4:	52800040 	mov	w0, #0x2                   	// #2
    204e38f8:	140000fc 	b	204e3ce8 <psci_do_cpu_off>

00000000204e38fc <psci_affinity_info>:
    204e38fc:	a9be7bfd 	stp	x29, x30, [sp, #-32]!
    204e3900:	910003fd 	mov	x29, sp
    204e3904:	a90153f3 	stp	x19, x20, [sp, #16]
    204e3908:	aa0003f3 	mov	x19, x0
    204e390c:	2a0103f4 	mov	w20, w1
    204e3910:	97ffff64 	bl	204e36a0 <is_valid_mpidr>
    204e3914:	36000260 	tbz	w0, #0, 204e3960 <psci_affinity_info+0x64>
    204e3918:	35000254 	cbnz	w20, 204e3960 <psci_affinity_info+0x64>
    204e391c:	aa1303e0 	mov	x0, x19
    204e3920:	b0000073 	adrp	x19, 204f0000 <imx_gicv3_ctx+0x26d0>
    204e3924:	940010e2 	bl	204e7cac <plat_core_pos_by_mpidr>
    204e3928:	910e0273 	add	x19, x19, #0x380
    204e392c:	2a0003f4 	mov	w20, w0
    204e3930:	aa1303e1 	mov	x1, x19
    204e3934:	97fffd3a 	bl	204e2e1c <per_cpu_by_index_compute>
    204e3938:	91008000 	add	x0, x0, #0x20
    204e393c:	d2800081 	mov	x1, #0x4                   	// #4
    204e3940:	940013eb 	bl	204e88ec <flush_dcache_range>
    204e3944:	aa1303e1 	mov	x1, x19
    204e3948:	2a1403e0 	mov	w0, w20
    204e394c:	97fffd34 	bl	204e2e1c <per_cpu_by_index_compute>
    204e3950:	b9402000 	ldr	w0, [x0, #32]
    204e3954:	a94153f3 	ldp	x19, x20, [sp, #16]
    204e3958:	a8c27bfd 	ldp	x29, x30, [sp], #32
    204e395c:	d65f03c0 	ret
    204e3960:	12800020 	mov	w0, #0xfffffffe            	// #-2
    204e3964:	17fffffc 	b	204e3954 <psci_affinity_info+0x58>

00000000204e3968 <psci_migrate>:
    204e3968:	a9bd7bfd 	stp	x29, x30, [sp, #-48]!
    204e396c:	910003fd 	mov	x29, sp
    204e3970:	f9000bf3 	str	x19, [sp, #16]
    204e3974:	aa0003f3 	mov	x19, x0
    204e3978:	f90017ff 	str	xzr, [sp, #40]
    204e397c:	97ffff49 	bl	204e36a0 <is_valid_mpidr>
    204e3980:	370000a0 	tbnz	w0, #0, 204e3994 <psci_migrate+0x2c>
    204e3984:	12800020 	mov	w0, #0xfffffffe            	// #-2
    204e3988:	f9400bf3 	ldr	x19, [sp, #16]
    204e398c:	a8c37bfd 	ldp	x29, x30, [sp], #48
    204e3990:	d65f03c0 	ret
    204e3994:	9100a3e0 	add	x0, sp, #0x28
    204e3998:	97ffff1c 	bl	204e3608 <psci_spd_migrate_info>
    204e399c:	340000a0 	cbz	w0, 204e39b0 <psci_migrate+0x48>
    204e39a0:	7100041f 	cmp	w0, #0x1
    204e39a4:	12800040 	mov	w0, #0xfffffffd            	// #-3
    204e39a8:	5a9f0000 	csinv	w0, w0, wzr, eq	// eq = none
    204e39ac:	17fffff7 	b	204e3988 <psci_migrate+0x20>
    204e39b0:	d53800a0 	mrs	x0, mpidr_el1
    204e39b4:	f94017e1 	ldr	x1, [sp, #40]
    204e39b8:	eb00003f 	cmp	x1, x0
    204e39bc:	54000161 	b.ne	204e39e8 <psci_migrate+0x80>  // b.any
    204e39c0:	aa1303e0 	mov	x0, x19
    204e39c4:	97ffff37 	bl	204e36a0 <is_valid_mpidr>
    204e39c8:	3607fde0 	tbz	w0, #0, 204e3984 <psci_migrate+0x1c>
    204e39cc:	d53800a0 	mrs	x0, mpidr_el1
    204e39d0:	d0000041 	adrp	x1, 204ed000 <__STACKS_START__+0x1280>
    204e39d4:	f9423421 	ldr	x1, [x1, #1128]
    204e39d8:	f9401422 	ldr	x2, [x1, #40]
    204e39dc:	aa1303e1 	mov	x1, x19
    204e39e0:	d63f0040 	blr	x2
    204e39e4:	17ffffe9 	b	204e3988 <psci_migrate+0x20>
    204e39e8:	128000c0 	mov	w0, #0xfffffff9            	// #-7
    204e39ec:	17ffffe7 	b	204e3988 <psci_migrate+0x20>

00000000204e39f0 <psci_migrate_info_type>:
    204e39f0:	a9be7bfd 	stp	x29, x30, [sp, #-32]!
    204e39f4:	910003fd 	mov	x29, sp
    204e39f8:	910063e0 	add	x0, sp, #0x18
    204e39fc:	f9000fff 	str	xzr, [sp, #24]
    204e3a00:	97ffff02 	bl	204e3608 <psci_spd_migrate_info>
    204e3a04:	a8c27bfd 	ldp	x29, x30, [sp], #32
    204e3a08:	d65f03c0 	ret

00000000204e3a0c <psci_migrate_info_up_cpu>:
    204e3a0c:	a9be7bfd 	stp	x29, x30, [sp, #-32]!
    204e3a10:	910003fd 	mov	x29, sp
    204e3a14:	910063e0 	add	x0, sp, #0x18
    204e3a18:	f9000fff 	str	xzr, [sp, #24]
    204e3a1c:	97fffefb 	bl	204e3608 <psci_spd_migrate_info>
    204e3a20:	7100041f 	cmp	w0, #0x1
    204e3a24:	f9400fe1 	ldr	x1, [sp, #24]
    204e3a28:	92800020 	mov	x0, #0xfffffffffffffffe    	// #-2
    204e3a2c:	a8c27bfd 	ldp	x29, x30, [sp], #32
    204e3a30:	9a809020 	csel	x0, x1, x0, ls	// ls = plast
    204e3a34:	d65f03c0 	ret

00000000204e3a38 <psci_node_hw_state>:
    204e3a38:	a9be7bfd 	stp	x29, x30, [sp, #-32]!
    204e3a3c:	910003fd 	mov	x29, sp
    204e3a40:	a90153f3 	stp	x19, x20, [sp, #16]
    204e3a44:	aa0003f4 	mov	x20, x0
    204e3a48:	2a0103f3 	mov	w19, w1
    204e3a4c:	97ffff15 	bl	204e36a0 <is_valid_mpidr>
    204e3a50:	36000180 	tbz	w0, #0, 204e3a80 <psci_node_hw_state+0x48>
    204e3a54:	71000a7f 	cmp	w19, #0x2
    204e3a58:	54000148 	b.hi	204e3a80 <psci_node_hw_state+0x48>  // b.pmore
    204e3a5c:	d0000040 	adrp	x0, 204ed000 <__STACKS_START__+0x1280>
    204e3a60:	2a1303e1 	mov	w1, w19
    204e3a64:	f9423000 	ldr	x0, [x0, #1120]
    204e3a68:	f9404402 	ldr	x2, [x0, #136]
    204e3a6c:	aa1403e0 	mov	x0, x20
    204e3a70:	a94153f3 	ldp	x19, x20, [sp, #16]
    204e3a74:	aa0203f0 	mov	x16, x2
    204e3a78:	a8c27bfd 	ldp	x29, x30, [sp], #32
    204e3a7c:	d61f0200 	br	x16
    204e3a80:	a94153f3 	ldp	x19, x20, [sp, #16]
    204e3a84:	12800020 	mov	w0, #0xfffffffe            	// #-2
    204e3a88:	a8c27bfd 	ldp	x29, x30, [sp], #32
    204e3a8c:	d65f03c0 	ret

00000000204e3a90 <psci_features>:
    204e3a90:	52b00001 	mov	w1, #0x80000000            	// #-2147483648
    204e3a94:	6b01001f 	cmp	w0, w1
    204e3a98:	54000260 	b.eq	204e3ae4 <psci_features+0x54>  // b.none
    204e3a9c:	b0000061 	adrp	x1, 204f0000 <imx_gicv3_ctx+0x26d0>
    204e3aa0:	b9412c21 	ldr	w1, [x1, #300]
    204e3aa4:	36f00080 	tbz	w0, #30, 204e3ab4 <psci_features+0x24>
    204e3aa8:	528c1742 	mov	w2, #0x60ba                	// #24762
    204e3aac:	72a002e2 	movk	w2, #0x17, lsl #16
    204e3ab0:	0a020021 	and	w1, w1, w2
    204e3ab4:	12081403 	and	w3, w0, #0x3f000000
    204e3ab8:	52a08002 	mov	w2, #0x4000000             	// #67108864
    204e3abc:	6b02007f 	cmp	w3, w2
    204e3ac0:	54000161 	b.ne	204e3aec <psci_features+0x5c>  // b.any
    204e3ac4:	531f7c02 	lsr	w2, w0, #31
    204e3ac8:	36f80120 	tbz	w0, #31, 204e3aec <psci_features+0x5c>
    204e3acc:	721b481f 	tst	w0, #0xffffe0
    204e3ad0:	540000e1 	b.ne	204e3aec <psci_features+0x5c>  // b.any
    204e3ad4:	1ac02040 	lsl	w0, w2, w0
    204e3ad8:	6a01001f 	tst	w0, w1
    204e3adc:	5a9f13e0 	csetm	w0, eq	// eq = none
    204e3ae0:	d65f03c0 	ret
    204e3ae4:	52800000 	mov	w0, #0x0                   	// #0
    204e3ae8:	17fffffe 	b	204e3ae0 <psci_features+0x50>
    204e3aec:	12800000 	mov	w0, #0xffffffff            	// #-1
    204e3af0:	17fffffc 	b	204e3ae0 <psci_features+0x50>

00000000204e3af4 <psci_smc_handler>:
    204e3af4:	360009e7 	tbz	w7, #0, 204e3c30 <psci_smc_handler+0x13c>
    204e3af8:	b0000065 	adrp	x5, 204f0000 <imx_gicv3_ctx+0x26d0>
    204e3afc:	2a0003e4 	mov	w4, w0
    204e3b00:	aa0103e0 	mov	x0, x1
    204e3b04:	aa0203e1 	mov	x1, x2
    204e3b08:	b9412ca5 	ldr	w5, [x5, #300]
    204e3b0c:	aa0303e2 	mov	x2, x3
    204e3b10:	52800023 	mov	w3, #0x1                   	// #1
    204e3b14:	1ac42063 	lsl	w3, w3, w4
    204e3b18:	6a05007f 	tst	w3, w5
    204e3b1c:	540008a0 	b.eq	204e3c30 <psci_smc_handler+0x13c>  // b.none
    204e3b20:	a9bf7bfd 	stp	x29, x30, [sp, #-16]!
    204e3b24:	910003fd 	mov	x29, sp
    204e3b28:	37f00704 	tbnz	w4, #30, 204e3c08 <psci_smc_handler+0x114>
    204e3b2c:	52af8003 	mov	w3, #0x7c000000            	// #2080374784
    204e3b30:	0b030084 	add	w4, w4, w3
    204e3b34:	7100509f 	cmp	w4, #0x14
    204e3b38:	54000808 	b.hi	204e3c38 <psci_smc_handler+0x144>  // b.pmore
    204e3b3c:	d0000023 	adrp	x3, 204e9000 <flush_continue>
    204e3b40:	912fe063 	add	x3, x3, #0xbf8
    204e3b44:	38644863 	ldrb	w3, [x3, w4, uxtw]
    204e3b48:	10000064 	adr	x4, 204e3b54 <psci_smc_handler+0x60>
    204e3b4c:	8b238883 	add	x3, x4, w3, sxtb #2
    204e3b50:	d61f0060 	br	x3
    204e3b54:	320083e0 	mov	w0, #0x10001               	// #65537
    204e3b58:	a8c17bfd 	ldp	x29, x30, [sp], #16
    204e3b5c:	d65f03c0 	ret
    204e3b60:	97ffff65 	bl	204e38f4 <psci_cpu_off>
    204e3b64:	93407c00 	sxtw	x0, w0
    204e3b68:	17fffffc 	b	204e3b58 <psci_smc_handler+0x64>
    204e3b6c:	2a0203e2 	mov	w2, w2
    204e3b70:	2a0103e1 	mov	w1, w1
    204e3b74:	97fffef3 	bl	204e3740 <psci_cpu_suspend>
    204e3b78:	17fffffb 	b	204e3b64 <psci_smc_handler+0x70>
    204e3b7c:	2a0203e2 	mov	w2, w2
    204e3b80:	2a0103e1 	mov	w1, w1
    204e3b84:	2a0003e0 	mov	w0, w0
    204e3b88:	97fffecd 	bl	204e36bc <psci_cpu_on>
    204e3b8c:	17fffff6 	b	204e3b64 <psci_smc_handler+0x70>
    204e3b90:	2a0003e0 	mov	w0, w0
    204e3b94:	97ffff5a 	bl	204e38fc <psci_affinity_info>
    204e3b98:	17fffff3 	b	204e3b64 <psci_smc_handler+0x70>
    204e3b9c:	2a0003e0 	mov	w0, w0
    204e3ba0:	97ffff72 	bl	204e3968 <psci_migrate>
    204e3ba4:	17fffff0 	b	204e3b64 <psci_smc_handler+0x70>
    204e3ba8:	97ffff92 	bl	204e39f0 <psci_migrate_info_type>
    204e3bac:	17ffffee 	b	204e3b64 <psci_smc_handler+0x70>
    204e3bb0:	a8c17bfd 	ldp	x29, x30, [sp], #16
    204e3bb4:	17ffff96 	b	204e3a0c <psci_migrate_info_up_cpu>
    204e3bb8:	2a0003e0 	mov	w0, w0
    204e3bbc:	97ffff9f 	bl	204e3a38 <psci_node_hw_state>
    204e3bc0:	17ffffe9 	b	204e3b64 <psci_smc_handler+0x70>
    204e3bc4:	2a0103e1 	mov	w1, w1
    204e3bc8:	2a0003e0 	mov	w0, w0
    204e3bcc:	97ffff25 	bl	204e3860 <psci_system_suspend>
    204e3bd0:	17ffffe5 	b	204e3b64 <psci_smc_handler+0x70>
    204e3bd4:	940002a5 	bl	204e4668 <psci_system_off>
    204e3bd8:	940002b3 	bl	204e46a4 <psci_system_reset>
    204e3bdc:	97ffffad 	bl	204e3a90 <psci_features>
    204e3be0:	17ffffe1 	b	204e3b64 <psci_smc_handler+0x70>
    204e3be4:	a8c17bfd 	ldp	x29, x30, [sp], #16
    204e3be8:	14000016 	b	204e3c40 <psci_mem_protect>
    204e3bec:	2a0103e1 	mov	w1, w1
    204e3bf0:	2a0003e0 	mov	w0, w0
    204e3bf4:	a8c17bfd 	ldp	x29, x30, [sp], #16
    204e3bf8:	1400002a 	b	204e3ca0 <psci_mem_chk_range>
    204e3bfc:	2a0103e1 	mov	w1, w1
    204e3c00:	a8c17bfd 	ldp	x29, x30, [sp], #16
    204e3c04:	140002b7 	b	204e46e0 <psci_system_reset2>
    204e3c08:	12b88003 	mov	w3, #0x3bffffff            	// #1006632959
    204e3c0c:	0b030084 	add	w4, w4, w3
    204e3c10:	71004c9f 	cmp	w4, #0x13
    204e3c14:	54000128 	b.hi	204e3c38 <psci_smc_handler+0x144>  // b.pmore
    204e3c18:	d0000023 	adrp	x3, 204e9000 <flush_continue>
    204e3c1c:	91304063 	add	x3, x3, #0xc10
    204e3c20:	38644863 	ldrb	w3, [x3, w4, uxtw]
    204e3c24:	10000064 	adr	x4, 204e3c30 <psci_smc_handler+0x13c>
    204e3c28:	8b238883 	add	x3, x4, w3, sxtb #2
    204e3c2c:	d61f0060 	br	x3
    204e3c30:	92800000 	mov	x0, #0xffffffffffffffff    	// #-1
    204e3c34:	d65f03c0 	ret
    204e3c38:	92800000 	mov	x0, #0xffffffffffffffff    	// #-1
    204e3c3c:	17ffffc7 	b	204e3b58 <psci_smc_handler+0x64>

00000000204e3c40 <psci_mem_protect>:
    204e3c40:	a9bd7bfd 	stp	x29, x30, [sp, #-48]!
    204e3c44:	910003fd 	mov	x29, sp
    204e3c48:	a90153f3 	stp	x19, x20, [sp, #16]
    204e3c4c:	d0000054 	adrp	x20, 204ed000 <__STACKS_START__+0x1280>
    204e3c50:	2a0003f3 	mov	w19, w0
    204e3c54:	f9423280 	ldr	x0, [x20, #1120]
    204e3c58:	b9002fff 	str	wzr, [sp, #44]
    204e3c5c:	f9404c01 	ldr	x1, [x0, #152]
    204e3c60:	9100b3e0 	add	x0, sp, #0x2c
    204e3c64:	d63f0020 	blr	x1
    204e3c68:	36f800a0 	tbz	w0, #31, 204e3c7c <psci_mem_protect+0x3c>
    204e3c6c:	92800000 	mov	x0, #0xffffffffffffffff    	// #-1
    204e3c70:	a94153f3 	ldp	x19, x20, [sp, #16]
    204e3c74:	a8c37bfd 	ldp	x29, x30, [sp], #48
    204e3c78:	d65f03c0 	ret
    204e3c7c:	f9423280 	ldr	x0, [x20, #1120]
    204e3c80:	f9405001 	ldr	x1, [x0, #160]
    204e3c84:	2a1303e0 	mov	w0, w19
    204e3c88:	d63f0020 	blr	x1
    204e3c8c:	37ffff00 	tbnz	w0, #31, 204e3c6c <psci_mem_protect+0x2c>
    204e3c90:	b9402fe0 	ldr	w0, [sp, #44]
    204e3c94:	7100001f 	cmp	w0, #0x0
    204e3c98:	9a9f07e0 	cset	x0, ne	// ne = any
    204e3c9c:	17fffff5 	b	204e3c70 <psci_mem_protect+0x30>

00000000204e3ca0 <psci_mem_chk_range>:
    204e3ca0:	b4000081 	cbz	x1, 204e3cb0 <psci_mem_chk_range+0x10>
    204e3ca4:	cb0103e2 	neg	x2, x1
    204e3ca8:	eb00005f 	cmp	x2, x0
    204e3cac:	540000c2 	b.cs	204e3cc4 <psci_mem_chk_range+0x24>  // b.hs, b.nlast
    204e3cb0:	92800040 	mov	x0, #0xfffffffffffffffd    	// #-3
    204e3cb4:	d65f03c0 	ret
    204e3cb8:	92800040 	mov	x0, #0xfffffffffffffffd    	// #-3
    204e3cbc:	a8c17bfd 	ldp	x29, x30, [sp], #16
    204e3cc0:	d65f03c0 	ret
    204e3cc4:	a9bf7bfd 	stp	x29, x30, [sp, #-16]!
    204e3cc8:	d0000042 	adrp	x2, 204ed000 <__STACKS_START__+0x1280>
    204e3ccc:	910003fd 	mov	x29, sp
    204e3cd0:	f9423042 	ldr	x2, [x2, #1120]
    204e3cd4:	f9404842 	ldr	x2, [x2, #144]
    204e3cd8:	d63f0040 	blr	x2
    204e3cdc:	37fffee0 	tbnz	w0, #31, 204e3cb8 <psci_mem_chk_range+0x18>
    204e3ce0:	d2800000 	mov	x0, #0x0                   	// #0
    204e3ce4:	17fffff6 	b	204e3cbc <psci_mem_chk_range+0x1c>

00000000204e3ce8 <psci_do_cpu_off>:
    204e3ce8:	a9bc7bfd 	stp	x29, x30, [sp, #-64]!
    204e3cec:	910003fd 	mov	x29, sp
    204e3cf0:	a90153f3 	stp	x19, x20, [sp, #16]
    204e3cf4:	2a0003f4 	mov	w20, w0
    204e3cf8:	a9025bf5 	stp	x21, x22, [sp, #32]
    204e3cfc:	940014fa 	bl	204e90e4 <plat_my_core_pos>
    204e3d00:	d0000056 	adrp	x22, 204ed000 <__STACKS_START__+0x1280>
    204e3d04:	2a0003f5 	mov	w21, w0
    204e3d08:	52808080 	mov	w0, #0x404                 	// #1028
    204e3d0c:	790063e0 	strh	w0, [sp, #48]
    204e3d10:	52800080 	mov	w0, #0x4                   	// #4
    204e3d14:	3900cbe0 	strb	w0, [sp, #50]
    204e3d18:	f94232c0 	ldr	x0, [x22, #1120]
    204e3d1c:	f9001fff 	str	xzr, [sp, #56]
    204e3d20:	f9400c01 	ldr	x1, [x0, #24]
    204e3d24:	b4000161 	cbz	x1, 204e3d50 <psci_do_cpu_off+0x68>
    204e3d28:	9100c3e0 	add	x0, sp, #0x30
    204e3d2c:	d63f0020 	blr	x1
    204e3d30:	2a0003f3 	mov	w19, w0
    204e3d34:	31000c1f 	cmn	w0, #0x3
    204e3d38:	540000e1 	b.ne	204e3d54 <psci_do_cpu_off+0x6c>  // b.any
    204e3d3c:	a9425bf5 	ldp	x21, x22, [sp, #32]
    204e3d40:	2a1303e0 	mov	w0, w19
    204e3d44:	a94153f3 	ldp	x19, x20, [sp, #16]
    204e3d48:	a8c47bfd 	ldp	x29, x30, [sp], #64
    204e3d4c:	d65f03c0 	ret
    204e3d50:	52800013 	mov	w19, #0x0                   	// #0
    204e3d54:	9100e3e2 	add	x2, sp, #0x38
    204e3d58:	2a1403e1 	mov	w1, w20
    204e3d5c:	2a1503e0 	mov	w0, w21
    204e3d60:	97fffce0 	bl	204e30e0 <psci_get_parent_pwr_domain_nodes>
    204e3d64:	2a1403e0 	mov	w0, w20
    204e3d68:	9100e3e1 	add	x1, sp, #0x38
    204e3d6c:	97fffd7a 	bl	204e3354 <psci_acquire_pwr_domain_locks>
    204e3d70:	d0000040 	adrp	x0, 204ed000 <__STACKS_START__+0x1280>
    204e3d74:	f9423400 	ldr	x0, [x0, #1128]
    204e3d78:	b40000e0 	cbz	x0, 204e3d94 <psci_do_cpu_off+0xac>
    204e3d7c:	f9400401 	ldr	x1, [x0, #8]
    204e3d80:	b40000a1 	cbz	x1, 204e3d94 <psci_do_cpu_off+0xac>
    204e3d84:	d2800000 	mov	x0, #0x0                   	// #0
    204e3d88:	d63f0020 	blr	x1
    204e3d8c:	2a0003f3 	mov	w19, w0
    204e3d90:	35000200 	cbnz	w0, 204e3dd0 <psci_do_cpu_off+0xe8>
    204e3d94:	9100c3e2 	add	x2, sp, #0x30
    204e3d98:	2a1403e1 	mov	w1, w20
    204e3d9c:	2a1503e0 	mov	w0, w21
    204e3da0:	97fffd09 	bl	204e31c4 <psci_do_state_coordination>
    204e3da4:	2a1403e1 	mov	w1, w20
    204e3da8:	9100c3e2 	add	x2, sp, #0x30
    204e3dac:	2a1503e0 	mov	w0, w21
    204e3db0:	97fffcac 	bl	204e3060 <psci_set_target_local_pwr_states>
    204e3db4:	9100c3e0 	add	x0, sp, #0x30
    204e3db8:	97fffd47 	bl	204e32d4 <psci_find_max_off_lvl>
    204e3dbc:	97fffe1d 	bl	204e3630 <psci_pwrdown_cpu_start>
    204e3dc0:	f94232c0 	ldr	x0, [x22, #1120]
    204e3dc4:	f9400801 	ldr	x1, [x0, #16]
    204e3dc8:	9100c3e0 	add	x0, sp, #0x30
    204e3dcc:	d63f0020 	blr	x1
    204e3dd0:	9100e3e1 	add	x1, sp, #0x38
    204e3dd4:	2a1403e0 	mov	w0, w20
    204e3dd8:	97fffd7a 	bl	204e33c0 <psci_release_pwr_domain_locks>
    204e3ddc:	35fffb13 	cbnz	w19, 204e3d3c <psci_do_cpu_off+0x54>
    204e3de0:	b0000060 	adrp	x0, 204f0000 <imx_gicv3_ctx+0x26d0>
    204e3de4:	910e0000 	add	x0, x0, #0x380
    204e3de8:	97fffc19 	bl	204e2e4c <per_cpu_cur_compute>
    204e3dec:	52800021 	mov	w1, #0x1                   	// #1
    204e3df0:	b9002001 	str	w1, [x0, #32]
    204e3df4:	f94232c0 	ldr	x0, [x22, #1120]
    204e3df8:	f9402401 	ldr	x1, [x0, #72]
    204e3dfc:	b4000061 	cbz	x1, 204e3e08 <psci_do_cpu_off+0x120>
    204e3e00:	9100c3e0 	add	x0, sp, #0x30
    204e3e04:	d63f0020 	blr	x1
    204e3e08:	97fffe0b 	bl	204e3634 <psci_pwrdown_cpu_end_terminal>

00000000204e3e0c <psci_cpu_on_start>:
    204e3e0c:	a9bc7bfd 	stp	x29, x30, [sp, #-64]!
    204e3e10:	910003fd 	mov	x29, sp
    204e3e14:	a90153f3 	stp	x19, x20, [sp, #16]
    204e3e18:	b0000074 	adrp	x20, 204f0000 <imx_gicv3_ctx+0x26d0>
    204e3e1c:	910e0294 	add	x20, x20, #0x380
    204e3e20:	a9025bf5 	stp	x21, x22, [sp, #32]
    204e3e24:	aa0003f5 	mov	x21, x0
    204e3e28:	b0000076 	adrp	x22, 204f0000 <imx_gicv3_ctx+0x26d0>
    204e3e2c:	911902d6 	add	x22, x22, #0x640
    204e3e30:	f9001bf7 	str	x23, [sp, #48]
    204e3e34:	94000f9e 	bl	204e7cac <plat_core_pos_by_mpidr>
    204e3e38:	2a0003f3 	mov	w19, w0
    204e3e3c:	aa1603e1 	mov	x1, x22
    204e3e40:	97fffbf7 	bl	204e2e1c <per_cpu_by_index_compute>
    204e3e44:	91003000 	add	x0, x0, #0xc
    204e3e48:	94001406 	bl	204e8e60 <spin_lock>
    204e3e4c:	aa1403e1 	mov	x1, x20
    204e3e50:	2a1303e0 	mov	w0, w19
    204e3e54:	97fffbf2 	bl	204e2e1c <per_cpu_by_index_compute>
    204e3e58:	91008000 	add	x0, x0, #0x20
    204e3e5c:	d2800081 	mov	x1, #0x4                   	// #4
    204e3e60:	940012a3 	bl	204e88ec <flush_dcache_range>
    204e3e64:	aa1403e1 	mov	x1, x20
    204e3e68:	2a1303e0 	mov	w0, w19
    204e3e6c:	97fffbec 	bl	204e2e1c <per_cpu_by_index_compute>
    204e3e70:	b9402000 	ldr	w0, [x0, #32]
    204e3e74:	340007e0 	cbz	w0, 204e3f70 <psci_cpu_on_start+0x164>
    204e3e78:	7100081f 	cmp	w0, #0x2
    204e3e7c:	540007e0 	b.eq	204e3f78 <psci_cpu_on_start+0x16c>  // b.none
    204e3e80:	d0000040 	adrp	x0, 204ed000 <__STACKS_START__+0x1280>
    204e3e84:	f9423400 	ldr	x0, [x0, #1128]
    204e3e88:	b40000a0 	cbz	x0, 204e3e9c <psci_cpu_on_start+0x90>
    204e3e8c:	f9400001 	ldr	x1, [x0]
    204e3e90:	b4000061 	cbz	x1, 204e3e9c <psci_cpu_on_start+0x90>
    204e3e94:	aa1503e0 	mov	x0, x21
    204e3e98:	d63f0020 	blr	x1
    204e3e9c:	aa1403e1 	mov	x1, x20
    204e3ea0:	2a1303e0 	mov	w0, w19
    204e3ea4:	52800057 	mov	w23, #0x2                   	// #2
    204e3ea8:	97fffbdd 	bl	204e2e1c <per_cpu_by_index_compute>
    204e3eac:	b9002017 	str	w23, [x0, #32]
    204e3eb0:	aa1403e1 	mov	x1, x20
    204e3eb4:	2a1303e0 	mov	w0, w19
    204e3eb8:	97fffbd9 	bl	204e2e1c <per_cpu_by_index_compute>
    204e3ebc:	91008000 	add	x0, x0, #0x20
    204e3ec0:	d2800081 	mov	x1, #0x4                   	// #4
    204e3ec4:	9400128a 	bl	204e88ec <flush_dcache_range>
    204e3ec8:	aa1403e1 	mov	x1, x20
    204e3ecc:	2a1303e0 	mov	w0, w19
    204e3ed0:	97fffbd3 	bl	204e2e1c <per_cpu_by_index_compute>
    204e3ed4:	b9402001 	ldr	w1, [x0, #32]
    204e3ed8:	6b17003f 	cmp	w1, w23
    204e3edc:	54000100 	b.eq	204e3efc <psci_cpu_on_start+0xf0>  // b.none
    204e3ee0:	b9002017 	str	w23, [x0, #32]
    204e3ee4:	aa1403e1 	mov	x1, x20
    204e3ee8:	2a1303e0 	mov	w0, w19
    204e3eec:	97fffbcc 	bl	204e2e1c <per_cpu_by_index_compute>
    204e3ef0:	91008000 	add	x0, x0, #0x20
    204e3ef4:	d2800081 	mov	x1, #0x4                   	// #4
    204e3ef8:	9400127d 	bl	204e88ec <flush_dcache_range>
    204e3efc:	d0000040 	adrp	x0, 204ed000 <__STACKS_START__+0x1280>
    204e3f00:	f9423000 	ldr	x0, [x0, #1120]
    204e3f04:	f9400401 	ldr	x1, [x0, #8]
    204e3f08:	aa1503e0 	mov	x0, x21
    204e3f0c:	d63f0020 	blr	x1
    204e3f10:	2a0003f5 	mov	w21, w0
    204e3f14:	34000180 	cbz	w0, 204e3f44 <psci_cpu_on_start+0x138>
    204e3f18:	aa1403e1 	mov	x1, x20
    204e3f1c:	2a1303e0 	mov	w0, w19
    204e3f20:	97fffbbf 	bl	204e2e1c <per_cpu_by_index_compute>
    204e3f24:	52800021 	mov	w1, #0x1                   	// #1
    204e3f28:	b9002001 	str	w1, [x0, #32]
    204e3f2c:	aa1403e1 	mov	x1, x20
    204e3f30:	2a1303e0 	mov	w0, w19
    204e3f34:	97fffbba 	bl	204e2e1c <per_cpu_by_index_compute>
    204e3f38:	91008000 	add	x0, x0, #0x20
    204e3f3c:	d2800081 	mov	x1, #0x4                   	// #4
    204e3f40:	9400126b 	bl	204e88ec <flush_dcache_range>
    204e3f44:	aa1603e1 	mov	x1, x22
    204e3f48:	2a1303e0 	mov	w0, w19
    204e3f4c:	97fffbb4 	bl	204e2e1c <per_cpu_by_index_compute>
    204e3f50:	91003000 	add	x0, x0, #0xc
    204e3f54:	940013cb 	bl	204e8e80 <spin_unlock>
    204e3f58:	a94153f3 	ldp	x19, x20, [sp, #16]
    204e3f5c:	2a1503e0 	mov	w0, w21
    204e3f60:	a9425bf5 	ldp	x21, x22, [sp, #32]
    204e3f64:	f9401bf7 	ldr	x23, [sp, #48]
    204e3f68:	a8c47bfd 	ldp	x29, x30, [sp], #64
    204e3f6c:	d65f03c0 	ret
    204e3f70:	12800075 	mov	w21, #0xfffffffc            	// #-4
    204e3f74:	17fffff4 	b	204e3f44 <psci_cpu_on_start+0x138>
    204e3f78:	12800095 	mov	w21, #0xfffffffb            	// #-5
    204e3f7c:	17fffff2 	b	204e3f44 <psci_cpu_on_start+0x138>

00000000204e3f80 <psci_cpu_on_finish>:
    204e3f80:	a9bd7bfd 	stp	x29, x30, [sp, #-48]!
    204e3f84:	910003fd 	mov	x29, sp
    204e3f88:	a9025bf5 	stp	x21, x22, [sp, #32]
    204e3f8c:	d0000055 	adrp	x21, 204ed000 <__STACKS_START__+0x1280>
    204e3f90:	a90153f3 	stp	x19, x20, [sp, #16]
    204e3f94:	2a0003f4 	mov	w20, w0
    204e3f98:	aa0103f3 	mov	x19, x1
    204e3f9c:	f94232a0 	ldr	x0, [x21, #1120]
    204e3fa0:	f9401801 	ldr	x1, [x0, #48]
    204e3fa4:	aa1303e0 	mov	x0, x19
    204e3fa8:	d63f0020 	blr	x1
    204e3fac:	f94232a0 	ldr	x0, [x21, #1120]
    204e3fb0:	f9401c01 	ldr	x1, [x0, #56]
    204e3fb4:	b4000061 	cbz	x1, 204e3fc0 <psci_cpu_on_finish+0x40>
    204e3fb8:	aa1303e0 	mov	x0, x19
    204e3fbc:	d63f0020 	blr	x1
    204e3fc0:	94000029 	bl	204e4064 <psci_arch_setup>
    204e3fc4:	b0000075 	adrp	x21, 204f0000 <imx_gicv3_ctx+0x26d0>
    204e3fc8:	911902b5 	add	x21, x21, #0x640
    204e3fcc:	2a1403e0 	mov	w0, w20
    204e3fd0:	aa1503e1 	mov	x1, x21
    204e3fd4:	97fffb92 	bl	204e2e1c <per_cpu_by_index_compute>
    204e3fd8:	91003000 	add	x0, x0, #0xc
    204e3fdc:	940013a1 	bl	204e8e60 <spin_lock>
    204e3fe0:	aa1503e1 	mov	x1, x21
    204e3fe4:	2a1403e0 	mov	w0, w20
    204e3fe8:	97fffb8d 	bl	204e2e1c <per_cpu_by_index_compute>
    204e3fec:	91003000 	add	x0, x0, #0xc
    204e3ff0:	940013a4 	bl	204e8e80 <spin_unlock>
    204e3ff4:	d0000040 	adrp	x0, 204ed000 <__STACKS_START__+0x1280>
    204e3ff8:	f9423400 	ldr	x0, [x0, #1128]
    204e3ffc:	b40000a0 	cbz	x0, 204e4010 <psci_cpu_on_finish+0x90>
    204e4000:	f9400c01 	ldr	x1, [x0, #24]
    204e4004:	b4000061 	cbz	x1, 204e4010 <psci_cpu_on_finish+0x90>
    204e4008:	d2800000 	mov	x0, #0x0                   	// #0
    204e400c:	d63f0020 	blr	x1
    204e4010:	d0000033 	adrp	x19, 204ea000 <wakeupmix_irq_mask+0x2c>
    204e4014:	d0000036 	adrp	x22, 204ea000 <wakeupmix_irq_mask+0x2c>
    204e4018:	91104273 	add	x19, x19, #0x410
    204e401c:	911042d6 	add	x22, x22, #0x410
    204e4020:	eb16027f 	cmp	x19, x22
    204e4024:	54000183 	b.cc	204e4054 <psci_cpu_on_finish+0xd4>  // b.lo, b.ul, b.last
    204e4028:	d53800b3 	mrs	x19, mpidr_el1
    204e402c:	aa1503e1 	mov	x1, x21
    204e4030:	2a1403e0 	mov	w0, w20
    204e4034:	97fffb7a 	bl	204e2e1c <per_cpu_by_index_compute>
    204e4038:	92409e61 	and	x1, x19, #0xffffffffff
    204e403c:	a94153f3 	ldp	x19, x20, [sp, #16]
    204e4040:	9260dc21 	and	x1, x1, #0xffffffff00ffffff
    204e4044:	a9425bf5 	ldp	x21, x22, [sp, #32]
    204e4048:	f9000001 	str	x1, [x0]
    204e404c:	a8c37bfd 	ldp	x29, x30, [sp], #48
    204e4050:	d65f03c0 	ret
    204e4054:	f8408661 	ldr	x1, [x19], #8
    204e4058:	d2800000 	mov	x0, #0x0                   	// #0
    204e405c:	d63f0020 	blr	x1
    204e4060:	17fffff0 	b	204e4020 <psci_cpu_on_finish+0xa0>

00000000204e4064 <psci_arch_setup>:
    204e4064:	a9bf7bfd 	stp	x29, x30, [sp, #-16]!
    204e4068:	910003fd 	mov	x29, sp
    204e406c:	94000abc 	bl	204e6b5c <plat_get_syscnt_freq2>
    204e4070:	2a0003e0 	mov	w0, w0
    204e4074:	d51be000 	msr	cntfrq_el0, x0
    204e4078:	97fffb27 	bl	204e2d14 <cpu_data_init_cpu_ops>
    204e407c:	97fffa8b 	bl	204e2aa8 <cm_init_percpu_once_regs>
    204e4080:	a8c17bfd 	ldp	x29, x30, [sp], #16
