
/home/matei/arm_summer_school/atf/build/imx93/release/bl31/bl31.elf:     file format elf64-littleaarch64
/home/matei/arm_summer_school/atf/build/imx93/release/bl31/bl31.elf
architecture: aarch64, flags 0x00000112:
EXEC_P, HAS_SYMS, D_PAGED
start address 0x00000000204e0000

Program Header:
    LOAD off    0x0000000000001000 vaddr 0x00000000204e0000 paddr 0x00000000204e0000 align 2**12
         filesz 0x000000000000b000 memsz 0x000000000000b000 flags r-x
    LOAD off    0x000000000000c000 vaddr 0x00000000204eb000 paddr 0x00000000204eb000 align 2**12
         filesz 0x0000000000000d5c memsz 0x0000000000012000 flags rw-
   STACK off    0x0000000000000000 vaddr 0x0000000000000000 paddr 0x0000000000000000 align 2**4
         filesz 0x0000000000000000 memsz 0x0000000000000000 flags rw-
private flags = 0x0:

Sections:
Idx Name          Size      VMA               LMA               File off  Algn
  0 .ro           0000b000  00000000204e0000  00000000204e0000  00001000  2**11
                  CONTENTS, ALLOC, LOAD, READONLY, CODE
  1 .data         00000d5c  00000000204eb000  00000000204eb000  0000c000  2**3
                  CONTENTS, ALLOC, LOAD, DATA
  2 .stacks       00001600  00000000204ebd80  00000000204ebd80  0000cd5c  2**6
                  ALLOC
  3 .bss          00002fe0  00000000204ed380  00000000204ed380  0000cd5c  2**5
                  ALLOC
  4 .per_cpu      00000600  00000000204f0380  00000000204f0380  0000cd5c  2**6
                  ALLOC
  5 .xlat_table   0000c000  00000000204f1000  00000000204f1000  0000cd5c  2**12
                  ALLOC
  6 .comment      0000002d  0000000000000000  0000000000000000  0000cd5c  2**0
                  CONTENTS, READONLY
  7 .debug_frame  00000950  0000000000000000  0000000000000000  0000cd90  2**3
                  CONTENTS, READONLY, DEBUGGING, OCTETS
SYMBOL TABLE:
00000000204e0000 l    d  .ro	0000000000000000 .ro
00000000204eb000 l    d  .data	0000000000000000 .data
00000000204ebd80 l    d  .stacks	0000000000000000 .stacks
00000000204ed380 l    d  .bss	0000000000000000 .bss
00000000204f0380 l    d  .per_cpu	0000000000000000 .per_cpu
00000000204f1000 l    d  .xlat_table	0000000000000000 .xlat_table
0000000000000000 l    d  .comment	0000000000000000 .comment
0000000000000000 l    d  .debug_frame	0000000000000000 .debug_frame
0000000000000000 l    df *ABS*	0000000000000000 bl31_entrypoint.o
00000000204e0170 l       .ro	0000000000000000 stm
0000000000000000 l    df *ABS*	0000000000000000 bl31_context_mgmt.c
0000000000000000 l    df *ABS*	0000000000000000 bl31_main.c
00000000204e97f8 l     O .ro	0000000000000010 psci_args.0
00000000204eb470 l     O .data	0000000000000004 next_image_type
00000000204ea329 l     O .ro	0000000000000012 build_version_string
00000000204ea33b l     O .ro	000000000000001e build_message
00000000204ed380 l     O .bss	0000000000000008 bl32_init
0000000000000000 l    df *ABS*	0000000000000000 bl31_traps.c
00000000204e040c l     F .ro	0000000000000018 is_tge_enabled
0000000000000000 l    df *ABS*	0000000000000000 interrupt_mgmt.c
00000000204e0768 l     F .ro	0000000000000084 set_scr_el3_from_rm
00000000204ed388 l     O .bss	0000000000000080 intr_type_descs
0000000000000000 l    df *ABS*	0000000000000000 bl_common.c
0000000000000000 l    df *ABS*	0000000000000000 desc_image_load.c
0000000000000000 l    df *ABS*	0000000000000000 runtime_svc.c
0000000000000000 l    df *ABS*	0000000000000000 tf_log.c
00000000204eb474 l     O .data	0000000000000004 max_log_level
0000000000000000 l    df *ABS*	0000000000000000 gic-x00.c
00000000204e0bc8 l     F .ro	0000000000000014 gicr_wait_group_not_in_transit
00000000204e0bdc l     F .ro	0000000000000048 gicv3_redists_need_power_mgmt
00000000204f02f8 l     O .bss	0000000000000001 gic600_errata_wa_2384374
0000000000000000 l    df *ABS*	0000000000000000 gicdv3_helpers.c
0000000000000000 l    df *ABS*	0000000000000000 gicrv3_helpers.c
0000000000000000 l    df *ABS*	0000000000000000 gicv3_helpers.c
0000000000000000 l    df *ABS*	0000000000000000 gicv3_main.c
00000000204e13b0 l     F .ro	000000000000000c gicd_wait_for_pending_write
00000000204e13b0 l     F .ro	000000000000000c gicr_wait_for_upstream_pending_write
00000000204e13bc l     F .ro	000000000000000c gicr_wait_for_pending_write
0000000000000000 l    df *ABS*	0000000000000000 multi_console.c
00000000204eb478 l     O .data	0000000000000004 console_state
0000000000000000 l    df *ABS*	0000000000000000 delay_timer.c
00000000204ed418 l     O .bss	0000000000000008 timer_ops
0000000000000000 l    df *ABS*	0000000000000000 generic_delay_timer.c
00000000204e1e94 l     F .ro	0000000000000024 generic_delay_timeout_init_us
00000000204e1eb8 l     F .ro	0000000000000010 generic_delay_timeout_elapsed
00000000204e1ec8 l     F .ro	000000000000000c generic_delay_get_timer_value
00000000204ed420 l     O .bss	0000000000000020 ops
0000000000000000 l    df *ABS*	0000000000000000 imx_trdc.c
00000000204e1f68 l     F .ro	0000000000000020 trdc_get_mbc_base
00000000204e1f88 l     F .ro	000000000000002c trdc_get_mrc_base
0000000000000000 l    df *ABS*	0000000000000000 errata_common.c
0000000000000000 l    df *ABS*	0000000000000000 errata_report.c
0000000000000000 l    df *ABS*	0000000000000000 context_mgmt.c
0000000000000000 l    df *ABS*	0000000000000000 cpu_data_array.c
0000000000000000 l    df *ABS*	0000000000000000 mpam.c
0000000000000000 l    df *ABS*	0000000000000000 pmuv3.c
0000000000000000 l    df *ABS*	0000000000000000 spe.c
0000000000000000 l    df *ABS*	0000000000000000 sve.c
0000000000000000 l    df *ABS*	0000000000000000 per_cpu.c
0000000000000000 l    df *ABS*	0000000000000000 psci_common.c
00000000204e2e64 l     F .ro	0000000000000034 psci_set_req_local_pwr_state
00000000204f02f9 l     O .bss	0000000000000004 psci_req_local_pwr_states
00000000204e2e98 l     F .ro	0000000000000040 call_cpu_pwr_dwn
0000000000000000 l    df *ABS*	0000000000000000 psci_main.c
00000000204e36a0 l     F .ro	000000000000001c is_valid_mpidr
0000000000000000 l    df *ABS*	0000000000000000 psci_mem_protect.c
0000000000000000 l    df *ABS*	0000000000000000 psci_off.c
0000000000000000 l    df *ABS*	0000000000000000 psci_on.c
0000000000000000 l    df *ABS*	0000000000000000 psci_setup.c
00000000204ed470 l     O .bss	00000000000000b0 warmboot_ep_info
00000000204f03c0 l     O .per_cpu	0000000000000280 psci_ns_context
0000000000000000 l    df *ABS*	0000000000000000 psci_suspend.c
0000000000000000 l    df *ABS*	0000000000000000 psci_system_off.c
0000000000000000 l    df *ABS*	0000000000000000 xlat_tables_arch.c
0000000000000000 l    df *ABS*	0000000000000000 xlat_tables_context.c
00000000204eb000 l     O .data	0000000000000060 tf_xlat_ctx
00000000204ed520 l     O .bss	00000000000002a8 tf_mmap
00000000204f1000 l     O .xlat_table	000000000000c000 tf_xlat_tables
00000000204f0340 l     O .bss	0000000000000020 tf_base_xlat_table
0000000000000000 l    df *ABS*	0000000000000000 xlat_tables_core.c
00000000204e4a08 l     F .ro	00000000000001d0 xlat_tables_map_region
0000000000000000 l    df *ABS*	0000000000000000 xlat_tables_utils.c
0000000000000000 l    df *ABS*	0000000000000000 plat_common.c
0000000000000000 l    df *ABS*	0000000000000000 plat_bl_common.c
0000000000000000 l    df *ABS*	0000000000000000 plat_gicv3.c
00000000204ea359 l     O .ro	0000000000000004 CSWTCH.13
0000000000000000 l    df *ABS*	0000000000000000 plat_log_common.c
00000000204e9808 l     O .ro	0000000000000028 plat_prefix_str
0000000000000000 l    df *ABS*	0000000000000000 plat_psci_common.c
0000000000000000 l    df *ABS*	0000000000000000 imx_common.c
0000000000000000 l    df *ABS*	0000000000000000 imx_sip_handler.c
00000000204ed7e0 l     O .bss	0000000000000058 bl33_image_ep_info.0
0000000000000000 l    df *ABS*	0000000000000000 imx_sip_svc.c
00000000204e51cc l     F .ro	0000000000000008 imx_sip_setup
00000000204e51d4 l     F .ro	00000000000000cc imx_sip_handler
00000000204ea378 l     O .ro	0000000000000020 __svc_desc_imx_sip_svc
0000000000000000 l    df *ABS*	0000000000000000 plat_imx8_gic.c
00000000204e52a0 l     F .ro	0000000000000004 plat_imx_mpidr_to_core_pos
00000000204e9c24 l     O .ro	0000000000000004 g01s_interrupt_props
00000000204ed838 l     O .bss	0000000000000010 rdistif_base_addrs
0000000000000000 l    df *ABS*	0000000000000000 ele_api.c
00000000204f0130 l     O .bss	0000000000000100 soc_info
0000000000000000 l    df *ABS*	0000000000000000 ddr_dvfs.c
00000000204e9c28 l     O .ro	0000000000000150 imx9_fracpll_tbl
00000000204f0234 l     O .bss	0000000000000004 cur_state.1
00000000204f0230 l     O .bss	0000000000000004 cur_state.0
0000000000000000 l    df *ABS*	0000000000000000 dram.c
00000000204e5b40 l     F .ro	0000000000000070 waiting_dvfs
00000000204f0240 l     O .bss	0000000000000004 core_count
00000000204f02fe l     O .bss	0000000000000001 in_progress
00000000204f023c l     O .bss	0000000000000004 num_fsp
00000000204f0238 l     O .bss	0000000000000004 cur_fsp
00000000204f02fd l     O .bss	0000000000000001 in_swffc
0000000000000000 l    df *ABS*	0000000000000000 dram_retention.c
0000000000000000 l    df *ABS*	0000000000000000 imx93_bl31_setup.c
00000000204ed850 l     O .bss	0000000000000028 console.0
00000000204ed878 l     O .bss	0000000000000058 bl33_image_ep_info
00000000204ed8d0 l     O .bss	0000000000000058 bl32_image_ep_info
00000000204e9860 l     O .ro	0000000000000258 imx_mmap
0000000000000000 l    df *ABS*	0000000000000000 imx93_psci.c
00000000204eb7b4 l     O .data	0000000000000001 boot_stage
00000000204eb47c l     O .data	0000000000000188 hsk_config
00000000204e9fd4 l     O .ro	0000000000000020 wakeupmix_irq_mask
00000000204f0300 l     O .bss	0000000000000001 has_wakeup_irq
00000000204f0260 l     O .bss	0000000000000018 clock_root
00000000204e9fb4 l     O .ro	0000000000000020 gpio_ctrl_offset
00000000204f0301 l     O .bss	0000000000000001 gpio_wakeup
00000000204f0248 l     O .bss	0000000000000018 wdog_val
00000000204eb060 l     O .data	0000000000000210 wakeupmix_gpio_ctx
00000000204ed928 l     O .bss	0000000000000008 secure_entrypoint
00000000204e9ab8 l     O .ro	00000000000000b0 imx_plat_psci_ops
0000000000000000 l    df *ABS*	0000000000000000 plat_topology.c
0000000000000000 l    df *ABS*	0000000000000000 pwr_ctrl.c
0000000000000000 l    df *ABS*	0000000000000000 src.c
0000000000000000 l    df *ABS*	0000000000000000 trdc.c
0000000000000000 l    df *ABS*	0000000000000000 arm_arch_svc_setup.c
00000000204e832c l     F .ro	0000000000000250 arm_arch_svc_smc_handler
00000000204ea398 l     O .ro	0000000000000020 __svc_desc_arm_arch_svc
0000000000000000 l    df *ABS*	0000000000000000 std_svc_setup.c
00000000204e857c l     F .ro	00000000000000b8 std_svc_smc_handler
00000000204e8634 l     F .ro	0000000000000024 std_svc_setup
00000000204ea3b8 l     O .ro	0000000000000020 __svc_desc_std_svc
0000000000000000 l    df *ABS*	0000000000000000 crash_reporting.o
0000000000000000 l    df *ABS*	0000000000000000 runtime_exceptions.o
00000000204e87e8 l     F .ro	0000000000000080 reflect_pending_async_ea_to_lower_el
00000000204e865c l       .ro	0000000000000000 smc_handler32
00000000204e8660 l       .ro	0000000000000000 sync_handler64
00000000204e87b0 l     F .ro	0000000000000038 imp_def_el3_handler
00000000204e875c l     F .ro	0000000000000054 handle_interrupt_exception
00000000204e865c l     F .ro	0000000000000100 sync_exception_handler
00000000204e8744 l       .ro	0000000000000000 smc_prohibited
00000000204e86ec l       .ro	0000000000000000 sysreg_handler64
00000000204e8738 l       .ro	0000000000000000 smc_unknown
00000000204e87ac l       .ro	0000000000000000 interrupt_exit
00000000204e87d4 l       .ro	0000000000000000 el3_handler_exit
00000000204e8808 l       .ro	0000000000000000 check_loop_ctr
00000000204e881c l       .ro	0000000000000000 skip_loop_ctr
00000000204e8850 l       .ro	0000000000000000 skip_smc_check
00000000204e884c l       .ro	0000000000000000 subtract_elr_el3
0000000000000000 l    df *ABS*	0000000000000000 debug.o
00000000204ea360 l       .ro	0000000000000000 panic_msg
00000000204e88bc l       .ro	0000000000000000 panic_common
00000000204e88e4 l       .ro	0000000000000000 _panic_handler
0000000000000000 l    df *ABS*	0000000000000000 cache_helpers.o
00000000204e8920 l       .ro	0000000000000000 exit_loop_civac
00000000204e890c l       .ro	0000000000000000 loop_civac
00000000204e8958 l       .ro	0000000000000000 exit_loop_cvac
00000000204e8944 l       .ro	0000000000000000 loop_cvac
00000000204e8990 l       .ro	0000000000000000 exit_loop_ivac
00000000204e897c l       .ro	0000000000000000 loop_ivac
00000000204e8994 l     F .ro	000000000000009c do_dcsw_op
00000000204e8a2c l       .ro	0000000000000000 exit
00000000204e8a30 l       .ro	0000000000000000 dcsw_loop_table
00000000204e89b0 l       .ro	0000000000000000 loop1
00000000204e8a14 l       .ro	0000000000000000 level_done
00000000204e8a30 l       .ro	0000000000000000 loop2_isw
00000000204e8a34 l       .ro	0000000000000000 loop3_isw
00000000204e8a50 l       .ro	0000000000000000 loop2_cisw
00000000204e8a54 l       .ro	0000000000000000 loop3_cisw
00000000204e8a70 l       .ro	0000000000000000 loop2_csw
00000000204e8a74 l       .ro	0000000000000000 loop3_csw
0000000000000000 l    df *ABS*	0000000000000000 misc_helpers.o
00000000204e8aac l     F .ro	00000000000000e8 zeromem_dczva
0000000000000000 l    df *ABS*	0000000000000000 cortex_a55.o
00000000204e9b68 l       .ro	0000000000000000 cortex_a55_errata_list_start
00000000204e8bac l     F .ro	000000000000000c check_erratum_cortex_a55_768277
00000000204e8bb8 l     F .ro	0000000000000024 check_erratum_cortex_a55_778703
00000000204e8bdc l     F .ro	000000000000000c check_erratum_cortex_a55_798797
00000000204e8be8 l     F .ro	0000000000000020 check_erratum_cortex_a55_798953
00000000204e8c08 l     F .ro	000000000000000c check_erratum_cortex_a55_846532
00000000204e8c14 l     F .ro	000000000000000c check_erratum_cortex_a55_903758
00000000204e8c20 l     F .ro	0000000000000028 check_erratum_cortex_a55_936184
00000000204e8c48 l     F .ro	000000000000000c check_erratum_cortex_a55_1221012
00000000204e8c54 l     F .ro	0000000000000008 check_erratum_cortex_a55_1530923
00000000204e9bf8 l       .ro	0000000000000000 cortex_a55_errata_list_end
0000000000000000 l    df *ABS*	0000000000000000 cpu_helpers.o
00000000204e8cb4 l       .ro	0000000000000000 search_def_ptr
0000000000000000 l    df *ABS*	0000000000000000 context.o
00000000204e8dd8 l       .ro	0000000000000000 realm_state
00000000204e8ddc l       .ro	0000000000000000 end
00000000204e8e24 l       .ro	0000000000000000 no_mpam
0000000000000000 l    df *ABS*	0000000000000000 spinlock.o
00000000204e8e68 l       .ro	0000000000000000 l1
00000000204e8e6c l       .ro	0000000000000000 l2
0000000000000000 l    df *ABS*	0000000000000000 per_cpu_asm.o
0000000000000000 l    df *ABS*	0000000000000000 enable_mmu.o
0000000000000000 l    df *ABS*	0000000000000000 crash_console_helpers.o
00000000204eb7b0 l       .data	0000000000000000 crash_console_spinlock
00000000204ebd5b l       .data	0000000000000000 crash_console_triggered
00000000204eb448 l       .data	0000000000000000 crash_console_reg_stash
00000000204e8f1c l       .ro	0000000000000000 skip_spinlock
00000000204e8f38 l       .ro	0000000000000000 init_error
00000000204e8f64 l       .ro	0000000000000000 putc_loop
00000000204e8fb0 l       .ro	0000000000000000 putc_done
00000000204e8fa8 l       .ro	0000000000000000 putc_continue
00000000204e8f9c l       .ro	0000000000000000 putc
00000000204e8fe0 l       .ro	0000000000000000 flush_loop
00000000204e9008 l       .ro	0000000000000000 flush_done
00000000204e9000 l       .ro	0000000000000000 flush_continue
0000000000000000 l    df *ABS*	0000000000000000 platform_helpers.o
0000000000000000 l    df *ABS*	0000000000000000 platform_mp_stack.o
00000000204ebd80 l       .stacks	0000000000000000 platform_normal_stacks
0000000000000006 l       *ABS*	0000000000000000 TZ_COUNT
0000000000000000 l    df *ABS*	0000000000000000 lpuart_console.o
00000000204e909c l       .ro	0000000000000000 register_fail
00000000204e90d8 l       .ro	0000000000000000 putc_error
0000000000000000 l    df *ABS*	0000000000000000 plat_helpers.o
00000000204e9108 l       .ro	0000000000000000 suspend
0000000000000000 l    df *ABS*	0000000000000000 memcpy.c
0000000000000000 l    df *ABS*	0000000000000000 memmove.c
0000000000000000 l    df *ABS*	0000000000000000 printf.c
00000000204e9198 l     F .ro	00000000000000f4 unsigned_num_print.part.0
0000000000000000 l    df *ABS*	0000000000000000 memset.c
00000000204e0ec4 g     F .ro	0000000000000014 gicd_read_nsacr
00000000204e1da4 g     F .ro	0000000000000028 putchar
00000000204e10bc g     F .ro	000000000000001c gicv3_get_spi_limit
00000000204e5bb0 g     F .ro	000000000000045c ddrphy_addr_remap
00000000204e2cb8 g     F .ro	0000000000000054 cm_prepare_el3_exit
00000000204e1398 g     F .ro	0000000000000018 gicv3_get_component_prodid_rev
00000000204e1ce4 g     F .ro	0000000000000018 console_set_scope
00000000204e4f38  w    F .ro	0000000000000008 plat_is_smccc_feature_available
00000000204f0340 g       .bss	0000000000000000 __PMF_TIMESTAMP_START__
00000000204e4f68  w    F .ro	0000000000000034 plat_ic_get_pending_interrupt_type
00000000204e0e18 g     F .ro	0000000000000014 gicd_write_igrpmodr
00000000204e2adc g     F .ro	0000000000000174 cm_el1_sysregs_context_restore
00000000204e642c g     F .ro	0000000000000020 check_dfi_init_complete
00000000204e3a0c g     F .ro	000000000000002c psci_migrate_info_up_cpu
00000000204e5a28 g     F .ro	0000000000000094 dram_hwffc_full_speed
00000000204e2d6c g     F .ro	0000000000000004 mpam_init_el3
00000000204fd000 g       .xlat_table	0000000000000000 __BL31_END__
00000000204e1ca4 g     F .ro	0000000000000034 console_register
00000000204e3740 g     F .ro	0000000000000120 psci_cpu_suspend
00000000204e75f0 g     F .ro	0000000000000068 wdog_restore
00000000204eae00 g     F .ro	0000000000000000 sync_exception_aarch32
00000000204e8aa4 g     F .ro	0000000000000008 zeromem
00000000204e88b0 g     F .ro	0000000000000008 asm_print_newline
00000000204ea410 g       .ro	0000000000000000 __pubsub_psci_suspend_pwrdown_finish_end
00000000204e54f4 g     F .ro	0000000000000128 ddr_pll_init
00000000204e3418 g     F .ro	00000000000000f4 psci_validate_entry_point
00000000204e4e08 g     F .ro	000000000000003c mmap_add_ctx
00000000204e0950 g     F .ro	0000000000000004 print_entry_point_info
00000000204e0238 g     F .ro	0000000000000034 cm_get_context
00000000204e972c g     F .ro	0000000000000054 printf
00000000204ed7c8 g     O .bss	0000000000000018 mmu_cfg_params
00000000204e4f18 g     F .ro	0000000000000004 xlat_tables_print
00000000204e7130 g     F .ro	0000000000000038 nicmix_qos_init
00000000204e33c0 g     F .ro	0000000000000058 psci_release_pwr_domain_locks
00000000204e7cac g     F .ro	000000000000001c plat_core_pos_by_mpidr
00000000204e2ed8 g     F .ro	0000000000000028 psci_validate_power_state
00000000204e2aa8 g     F .ro	0000000000000004 cm_init_percpu_once_regs
00000000204eb000 g       .ro	0000000000000000 __RW_START__
00000000204e209c g     F .ro	000000000000002c trdc_mbc_blk_num
00000000204f1000 g       .xlat_table	0000000000000000 __XLAT_TABLE_START__
00000000204e06b0 g     F .ro	00000000000000b8 inject_undef64
00000000204e9830 g     O .ro	0000000000000030 arm_gic_data
0000000000000300 g       *ABS*	0000000000000000 __PER_CPU_UNIT_SECTION_SIZE__
00000000204e6b34 g     F .ro	0000000000000028 bl31_plat_get_next_image_ep_info
00000000204e0c90 g     F .ro	0000000000000054 gicv3_check_erratas_applies
00000000204e9164 g     F .ro	0000000000000034 memmove
00000000204e3664 g     F .ro	000000000000003c psci_pwrdown_cpu_end_wakeup
00000000204eb620 g     O .data	00000000000000b0 trdc_n_mrc
00000000204f0278 g     O .bss	0000000000000080 rt_svc_descs_indices
00000000204e0e88 g     F .ro	0000000000000014 gicd_write_isenabler
00000000204e7c50 g     F .ro	0000000000000050 plat_setup_psci_ops
00000000204eaa00 g     F .ro	0000000000000000 sync_exception_sp_elx
00000000204e0eb0 g     F .ro	0000000000000014 gicd_write_ispendr
00000000204e480c g     F .ro	000000000000007c setup_mmu_cfg
00000000204e2d0c g     F .ro	0000000000000008 cm_prepare_el3_exit_ns
00000000204ea800 g     F .ro	0000000000000000 sync_exception_sp_el0
00000000204e5360 g     F .ro	0000000000000038 plat_gic_restore
00000000204e15a8 g     F .ro	0000000000000060 gicv3_cpuif_disable
00000000204e38fc g     F .ro	000000000000006c psci_affinity_info
00000000204ebce3 g     O .data	0000000000000078 trdc_a_mbc
00000000204e5018  w    F .ro	0000000000000030 plat_log_get_prefix
00000000204e3968 g     F .ro	0000000000000088 psci_migrate
00000000204e5000 g     F .ro	000000000000000c plat_ic_has_interrupt_type
00000000204e8038 g     F .ro	0000000000000058 trdc_fuse_read
00000000204e63e0 g     F .ro	0000000000000034 dram_pll_init
00000000204e7400 g     F .ro	00000000000000fc gpio_save
00000000204e1050 g     F .ro	000000000000006c gicv3_rdistif_base_addrs_probe
00000000204e74fc g     F .ro	00000000000000b4 gpio_restore
00000000204e2e1c g     F .ro	0000000000000030 per_cpu_by_index_compute
00000000204e8db4 g     F .ro	00000000000000ac el3_exit
00000000204f0980 g       .per_cpu	0000000000000000 __PER_CPU_END__
00000000204e4088 g     F .ro	0000000000000384 psci_setup
00000000204e4898 g     F .ro	000000000000003c init_xlat_tables
00000000204e4f40 g     F .ro	0000000000000028 setup_page_tables
00000000204e4f1c  w    F .ro	0000000000000004 bl31_plat_runtime_setup
00000000204eb000 g       .data	0000000000000000 __DATA_START__
00000000204f0100 g     O .bss	0000000000000008 psci_locks
00000000204e3320 g     F .ro	0000000000000034 psci_find_target_suspend_lvl
00000000204e47ec g     F .ro	0000000000000014 xlat_arch_regime_get_xn_desc
00000000204e0d84 g     F .ro	000000000000001c gicd_set_isenabler
00000000204e4064 g     F .ro	0000000000000024 psci_arch_setup
00000000204e56f4 g     F .ro	000000000000003c ddr_disable_bypass
00000000204e6c44 g     F .ro	00000000000000f4 imx_pwr_domain_on_finish
00000000204e46a4 g     F .ro	000000000000003c psci_system_reset
00000000204e0da0 g     F .ro	0000000000000014 gicd_set_ipriorityr
00000000204e9144 g     F .ro	0000000000000020 memcpy
00000000204e2d98 g     F .ro	000000000000001c pmuv3_init_el3
00000000204e5730 g     F .ro	0000000000000028 ddr_clock_switch
00000000204e3860 g     F .ro	0000000000000094 psci_system_suspend
00000000204eab80 g     F .ro	0000000000000000 serror_sp_elx
00000000204e278c g     F .ro	000000000000007c check_erratum_applies
00000000204e68c8 g     F .ro	000000000000009c dram_exit_retention
00000000204e2038 g     F .ro	0000000000000064 trdc_mda_set_noncpu
00000000204e1414 g     F .ro	0000000000000074 gicv3_distif_init
00000000204ea880 g     F .ro	0000000000000000 irq_sp_el0
00000000204e8aac g     F .ro	00000000000000e8 zero_normalmem
00000000204e30e0 g     F .ro	000000000000005c psci_get_parent_pwr_domain_nodes
00000000204e13c8 g     F .ro	000000000000004c gicv3_driver_init
00000000204f0244 g     O .bss	0000000000000004 dfs_lock
00000000204e4668 g     F .ro	000000000000003c psci_system_off
00000000204e90f4 g     F .ro	0000000000000004 platform_mem_init
00000000204e75b0 g     F .ro	0000000000000040 wdog_save
00000000204eb6d0 g     O .data	0000000000000010 trdc_n_mrc_glbac
00000000204e59c8 g     F .ro	000000000000001c ipg_stop_ack_wait
00000000204ea410 g       .ro	0000000000000000 __pubsub_cm_exited_secure_world_end
00000000204e4888 g     F .ro	0000000000000010 mmap_add
00000000204e0178 g     F .ro	00000000000000c0 bl31_warm_entrypoint
00000000204e7a3c g     F .ro	0000000000000214 imx_pwr_domain_suspend
00000000204e61f4 g     F .ro	0000000000000084 dram_info_init
00000000204e6b5c g     F .ro	000000000000000c plat_get_syscnt_freq2
00000000204e901c  w    F .ro	0000000000000008 plat_panic_handler
00000000204ea378 g       .ro	0000000000000000 __RT_SVC_DESCS_START__
00000000204e6bd8 g     F .ro	0000000000000018 imx_get_sys_suspend_power_state
00000000204e2df8 g     F .ro	0000000000000010 sve_enable_per_world
00000000204ed380 g       .stacks	0000000000000000 __STACKS_END__
00000000204e6dc4 g     F .ro	0000000000000108 peripheral_qchannel_hsk
00000000204e1034 g     F .ro	000000000000001c gicv3_rdistif_mark_core_asleep
00000000204ea410 g       .ro	0000000000000000 __pubsub_psci_suspend_pwrdown_start_end
00000000204f0340 g       .bss	0000000000000000 __PERCPU_BAKERY_LOCK_END__
00000000204e8924 g     F .ro	0000000000000038 clean_dcache_range
00000000204e8d64 g     F .ro	0000000000000050 restore_gp_pmcr_pauth_regs
00000000204e0c28 g     F .ro	0000000000000004 gicv3_distif_post_restore
00000000204e350c g     F .ro	00000000000000fc psci_warmboot_entrypoint
00000000204e2e08 g     F .ro	0000000000000014 sve_disable_per_world
00000000204e0fe8 g     F .ro	000000000000004c gicv3_rdistif_mark_core_awake
00000000204ea410 g       .ro	0000000000000000 __pubsub_cm_exited_normal_world_start
00000000204e9048  w    F .ro	0000000000000010 plat_set_my_stack
00000000204e026c g     F .ro	0000000000000038 cm_set_context_by_index
00000000204ea3d8 g       .ro	0000000000000000 __RT_SVC_DESCS_END__
00000000204e4fb8  w    F .ro	0000000000000048 plat_interrupt_type_to_line
00000000204e8c5c g     F .ro	0000000000000014 cortex_a55_core_pwr_dwn
00000000204eb408 g     O .data	0000000000000040 trdc_mgr_blks
00000000204e8880 g     F .ro	0000000000000030 asm_print_hex
00000000204e6a04 g     F .ro	0000000000000108 bl31_plat_arch_setup
00000000204e2e4c g     F .ro	0000000000000018 per_cpu_cur_compute
00000000204e034c g     F .ro	00000000000000c0 bl31_main
00000000204e6414 g     F .ro	0000000000000018 self_refresh_enter
00000000204f0640 g     O .per_cpu	0000000000000010 psci_cpu_pd_nodes
00000000204e7658 g     F .ro	00000000000000e4 wakeupmix_pwr_down
00000000204e3634 g     F .ro	0000000000000030 psci_pwrdown_cpu_end_terminal
00000000204e8868 g     F .ro	0000000000000018 asm_print_str
00000000204e9024  w    F .ro	0000000000000004 bl31_plat_enable_mmu
00000000204e280c g     F .ro	0000000000000004 cm_init
00000000204e8fc8 g     F .ro	0000000000000054 plat_crash_console_flush
00000000204ea800 g       .ro	0000000000000000 runtime_exceptions
00000000204e7e74 g     F .ro	000000000000005c disable_wdog
00000000204e59e4 g     F .ro	0000000000000044 dram_hwffc_half_speed
00000000204e0ed8 g     F .ro	0000000000000014 gicd_write_nsacr
00000000204e6188 g     F .ro	000000000000006c ddrc_apply_reg_config
00000000204e0eec g     F .ro	0000000000000014 gicr_write_ipriorityr
00000000204ea410 g       .ro	0000000000000000 __pubsub_cm_exited_secure_world_start
00000000204e3608 g     F .ro	0000000000000024 psci_spd_migrate_info
00000000204e6c28 g     F .ro	000000000000001c imx_system_off
00000000204e362c g     F .ro	0000000000000004 psci_print_power_domain_map
00000000204eb000 g       .ro	0000000000000000 __RO_END_UNALIGNED__
00000000204e0000 g       .ro	0000000000000000 RAM_REGION_START
00000000204e5048 g     F .ro	0000000000000028 plat_get_target_pwr_state
00000000204e1cfc g     F .ro	00000000000000a8 console_putc
00000000204e4f30  w    F .ro	0000000000000008 plat_get_soc_name
00000000204e0fb0 g     F .ro	0000000000000038 gicr_set_icfgr
00000000204e180c g     F .ro	00000000000001f4 gicv3_distif_save
00000000204e0dc8 g     F .ro	0000000000000014 gicd_write_icfgr
00000000204e9028  w    F .ro	0000000000000004 plat_handle_el3_ea
00000000204e2f14 g     F .ro	0000000000000074 psci_is_last_on_cpu
00000000204e8efc g     F .ro	0000000000000048 plat_crash_console_init
00000000204eae80 g     F .ro	0000000000000000 irq_aarch32
00000000204e88ec g     F .ro	0000000000000038 flush_dcache_range
00000000204e1e88 g     F .ro	000000000000000c timer_init
00000000204e6964 g     F .ro	00000000000000a0 bl31_early_platform_setup2
00000000204eb7b5 g     O .data	00000000000004b6 trdc_n_mbc
00000000204eb61c g     O .data	0000000000000004 trdc_mgr_num
00000000204e2dec g     F .ro	000000000000000c sve_init_el3
00000000204ea3d8 g       .ro	0000000000000000 __PMF_SVC_DESCS_END__
00000000204ebd60 g       .data	0000000000000000 __RELA_END__
00000000204e7ed0 g     F .ro	0000000000000168 imx_src_handler
00000000204ebd60 g       .data	0000000000000000 __RELA_START__
00000000204fd000 g       .xlat_table	0000000000000000 RAM_REGION_END
00000000204e90e0 g     F .ro	0000000000000004 console_lpuart_flush
00000000204f0650 g       .per_cpu	0000000000000000 __PER_CPU_UNIT_UNALIGNED_END_UNIT__
00000000204e16f0 g     F .ro	000000000000011c gicv3_rdistif_init_restore
00000000204e773c g     F .ro	00000000000000b8 wakeupmix_pwr_up
00000000204e71e0 g     F .ro	00000000000000ec nicmix_pwr_down
00000000204ea980 g     F .ro	0000000000000000 serror_sp_el0
00000000204e8b94 g     F .ro	0000000000000018 cortex_a55_reset_func
00000000204e928c g     F .ro	00000000000004a0 vprintf
00000000204e2724 g     F .ro	0000000000000068 find_erratum_entry
00000000204e0818 g     F .ro	0000000000000094 set_routing_model
00000000204e8658 g     F .ro	0000000000000004 report_unhandled_exception
00000000204e3f80 g     F .ro	00000000000000e4 psci_cpu_on_finish
00000000204e8a90 g     F .ro	0000000000000014 dcsw_op_all
00000000204e38f4 g     F .ro	0000000000000008 psci_cpu_off
00000000204e90f8 g     F .ro	000000000000004c plat_reset_handler
00000000204e5070 g     F .ro	000000000000005c imx_bl31_params_parse
00000000204e8ea4 g     F .ro	0000000000000058 enable_mmu_direct_el3
00000000204e72cc g     F .ro	00000000000000bc nicmix_pwr_up
00000000204e2d58 g     F .ro	0000000000000014 mpam_enable_per_world
00000000204e1488 g     F .ro	0000000000000090 gicv3_rdistif_init
00000000204ea410 g       .ro	0000000000000000 __pubsub_cm_entering_normal_world_end
00000000204e8c70 g     F .ro	0000000000000048 get_cpu_ops_ptr
00000000204e0c6c g     F .ro	0000000000000024 gicv3_apply_errata_wa_2384374
00000000204e0000 g     F .ro	000000000000016c bl31_entrypoint
00000000204e90a8 g     F .ro	0000000000000038 console_lpuart_putc
00000000204e0f00 g     F .ro	0000000000000018 gicr_set_ipriorityr
00000000204e2aac g     F .ro	0000000000000030 cm_init_my_context
00000000204ead80 g     F .ro	0000000000000000 serror_aarch64
00000000204e544c g     F .ro	00000000000000a8 ele_program_bbsm
00000000204e4f9c  w    F .ro	000000000000000c plat_ic_acknowledge_interrupt
00000000204e0f18 g     F .ro	0000000000000028 gicr_clr_igroupr
00000000204e4800 g     F .ro	000000000000000c xlat_arch_current_el
00000000204e1170 g     F .ro	00000000000000ec gicv3_secure_spis_config_props
0000000000000000 g       *ABS*	0000000000000000 __PERCPU_BAKERY_LOCK_SIZE__
00000000204e2dd0 g     F .ro	000000000000001c spe_disable_secure
00000000204f02ff g     O .bss	0000000000000001 restore_all
00000000204e0db4 g     F .ro	0000000000000014 gicd_read_icfgr
00000000204e478c g     F .ro	0000000000000014 xlat_arch_get_pas
00000000204e2318 g     F .ro	00000000000000a4 trdc_mgr_mbc_setup
00000000204e0e2c g     F .ro	0000000000000010 gicd_read_ipriorityr
00000000204e3ce8 g     F .ro	0000000000000124 psci_do_cpu_off
00000000204e6d38 g     F .ro	0000000000000084 imx_pwr_domain_off
00000000204f012c g     O .bss	0000000000000004 psci_caps
00000000204e0424 g     F .ro	0000000000000008 handle_sysreg_trap
00000000204e2810 g     F .ro	00000000000001bc cm_setup_context
00000000204e0000 g       .ro	0000000000000000 __BL31_START__
00000000204eaa80 g     F .ro	0000000000000000 irq_sp_elx
00000000204f0340 g       .bss	0000000000000000 __PMF_PERCPU_TIMESTAMP_END__
00000000204ea900 g     F .ro	0000000000000000 fiq_sp_el0
00000000204ebd5c g       .data	0000000000000000 __DATA_END__
00000000204e8884 g       .ro	0000000000000000 asm_print_hex_bits
00000000204f0340 g       .bss	0000000000000000 __BASE_XLAT_TABLE_START__
00000000204e0d3c g     F .ro	0000000000000024 gicd_set_igrpmodr
00000000204eb710 g     O .data	0000000000000030 trdc_w_mrc
00000000204ea3d8 g       .ro	0000000000000000 __CPU_OPS_START__
00000000204e1e20 g     F .ro	0000000000000068 udelay
00000000204eb760 g     O .data	0000000000000020 trdc_a_mrc
00000000204e2284 g     F .ro	0000000000000094 trdc_mrc_rgn_config
00000000204eb790 g     O .data	0000000000000020 trdc_a_mbc_glbac
00000000204e47a0 g     F .ro	000000000000004c tcr_physical_addr_size_bits
00000000204e125c g     F .ro	0000000000000070 gicv3_ppi_sgi_config_defaults
00000000204e3630 g     F .ro	0000000000000004 psci_pwrdown_cpu_start
00000000204e895c g     F .ro	0000000000000038 inv_dcache_range
00000000204e79a4 g     F .ro	0000000000000098 imx_pwr_domain_on
00000000204e3af4 g     F .ro	000000000000014c psci_smc_handler
00000000204e1f0c g     F .ro	000000000000005c generic_delay_timer_init
00000000204e44b0 g     F .ro	00000000000001b8 psci_cpu_suspend_start
00000000204e2f88 g     F .ro	000000000000003c psci_init_req_local_pwr_states
00000000204ea410 g       .ro	0000000000000000 __pubsub_cm_entering_secure_world_end
00000000204e7168 g     F .ro	0000000000000078 wakeupmix_qos_init
00000000204e8248 g     F .ro	0000000000000078 trdc_w_reinit
00000000204e1ed4 g     F .ro	0000000000000038 generic_delay_timer_init_args
00000000204f0340 g       .bss	0000000000000000 __BAKERY_LOCK_END__
00000000204e3060 g     F .ro	0000000000000080 psci_set_target_local_pwr_states
00000000204e8cb8 g     F .ro	0000000000000010 cpu_get_rev_var
00000000204e7cc8 g     F .ro	00000000000001ac pwr_sys_init
00000000204e3e0c g     F .ro	0000000000000174 psci_cpu_on_start
00000000204e32d4 g     F .ro	000000000000004c psci_find_max_off_lvl
00000000204e491c g     F .ro	00000000000000ec xlat_desc
00000000204e0ce4 g     F .ro	0000000000000034 gicd_set_icfgr
00000000204f0108 g     O .bss	0000000000000020 psci_non_cpu_pd_nodes
00000000204e88b8 g     F .ro	0000000000000004 elx_panic
00000000204f0360 g       .bss	0000000000000000 __BSS_END__
00000000204ea410 g       .ro	0000000000000000 __CPU_OPS_END__
00000000204e266c g     F .ro	00000000000000b8 trdc_try_lockup
00000000204e52b0 g     F .ro	0000000000000040 plat_gic_init
00000000204e0e04 g     F .ro	0000000000000014 gicd_read_igrpmodr
00000000204e2c94 g     F .ro	0000000000000024 cm_set_next_eret_context
00000000204ea410 g       .ro	0000000000000000 __pubsub_cm_entering_secure_world_start
00000000204e0e74 g     F .ro	0000000000000014 gicd_read_isenabler
00000000204e36bc g     F .ro	0000000000000084 psci_cpu_on
00000000204e20c8 g     F .ro	00000000000000a4 trdc_mbc_set_control
00000000204eb604 g     O .data	0000000000000018 fuse_data
00000000204e02d8 g     F .ro	0000000000000074 bl31_prepare_next_image_entry
00000000204e6bf0 g     F .ro	0000000000000038 imx_system_reset
00000000204ebc6b g     O .data	0000000000000078 trdc_w_mbc
00000000204e216c g     F .ro	00000000000000dc trdc_mbc_blk_config
00000000204f0128 g     O .bss	0000000000000004 psci_plat_core_count
00000000204e3a90 g     F .ro	0000000000000064 psci_features
00000000204ea410 g       .ro	0000000000000000 __GOT_END__
00000000204e9780 g     F .ro	0000000000000074 memset
00000000204ea3d8 g       .ro	0000000000000000 __PARSER_LIB_DESCS_END__
00000000204f0340 g       .bss	0000000000000000 __BAKERY_LOCK_START__
00000000204e2fc4 g     F .ro	000000000000009c psci_get_target_local_pwr_states
00000000204e6b7c g     F .ro	000000000000005c imx_validate_power_state
00000000204e2c50 g     F .ro	0000000000000044 cm_write_scr_el3_bit
00000000204f0380 g       .per_cpu	0000000000000000 __PER_CPU_UNIT_START__
00000000204ea410 g       .ro	0000000000000000 __pubsub_cm_exited_normal_world_end
00000000204e53cc g     F .ro	0000000000000080 ele_get_soc_info
00000000204eb750 g     O .data	0000000000000010 trdc_w_mbc_glbac
00000000204ed460 g     O .bss	0000000000000008 psci_plat_pm_ops
00000000204e4f28  w    F .ro	0000000000000008 plat_get_soc_revision
00000000204e2460 g     F .ro	000000000000020c trdc_setup
00000000204ea410 g       .ro	0000000000000000 __pubsub_psci_suspend_pwrdown_start_start
00000000204e7388 g     F .ro	0000000000000078 set_gpio_secure
00000000204e90a0 g     F .ro	0000000000000008 console_lpuart_init
00000000204eb740 g     O .data	0000000000000010 trdc_w_mrc_glbac
00000000204e440c g     F .ro	00000000000000a4 psci_cpu_suspend_to_powerdown_finish
00000000204e4fa8  w    F .ro	0000000000000010 plat_ic_end_of_interrupt
00000000204ea410 g       .ro	0000000000000000 __GOT_START__
00000000204e0f68 g     F .ro	0000000000000028 gicr_clr_igrpmodr
00000000204e02a4 g     F .ro	000000000000000c get_arm_std_svc_args
00000000204ea410 g       .ro	0000000000000000 __pubsub_cm_entering_normal_world_start
0000000000000000 g       *ABS*	0000000000000000 __PERCPU_TIMESTAMP_SIZE__
00000000204e600c g     F .ro	0000000000000078 check_ddrc_idle
00000000204e7004 g     F .ro	000000000000012c imx_set_sys_wakeup
00000000204e2db4 g     F .ro	000000000000001c spe_enable_ns
00000000204e3c40 g     F .ro	0000000000000060 psci_mem_protect
00000000204ea3d8 g       .ro	0000000000000000 __FCONF_POPULATOR_END__
00000000204e6ecc g     F .ro	00000000000000e8 pll_pwr_down
00000000204e2a0c g     F .ro	000000000000009c cm_manage_extensions_per_world
00000000204e678c g     F .ro	00000000000000a4 ddrc_init
00000000204e0914 g     F .ro	000000000000003c get_interrupt_type_handler
00000000204e7ca0 g     F .ro	000000000000000c plat_get_power_domain_tree_desc
00000000204e0e3c g     F .ro	0000000000000010 gicd_write_ipriorityr
00000000204e5758 g     F .ro	0000000000000270 ddr_swffc
00000000204e29cc g     F .ro	0000000000000040 cm_manage_extensions_el3
00000000204ed930 g     O .bss	00000000000027d0 imx_gicv3_ctx
00000000204e3a38 g     F .ro	0000000000000058 psci_node_hw_state
00000000204f0360 g       .bss	0000000000000000 __BASE_XLAT_TABLE_END__
00000000204e6b68 g     F .ro	0000000000000014 imx_validate_ns_entrypoint
00000000204f0380 g       .per_cpu	0000000000000000 __PER_CPU_START__
00000000204e0e60 g     F .ro	0000000000000014 gicd_write_isactiver
00000000204e1dcc g     F .ro	0000000000000054 console_flush
00000000204eab00 g     F .ro	0000000000000000 fiq_sp_elx
00000000204eb000 g       .ro	0000000000000000 __RO_END__
00000000204ed848 g     O .bss	0000000000000008 timing_info
00000000204eac00 g     F .ro	0000000000000000 sync_exception_aarch64
00000000204ead00 g     F .ro	0000000000000000 fiq_aarch64
00000000204e8e88 g     F .ro	000000000000001c per_cpu_base
00000000204e0ddc g     F .ro	0000000000000014 gicd_read_igroupr
00000000204e1cd8 g     F .ro	000000000000000c console_switch_state
00000000204e77f4 g     F .ro	0000000000000198 imx_pwr_domain_suspend_finish
00000000204e513c g     F .ro	0000000000000090 imx_bbsm_handler
00000000204e2808 g     F .ro	0000000000000004 print_errata_status
00000000204e8e80 g     F .ro	0000000000000008 spin_unlock
00000000204e8cc8 g     F .ro	000000000000009c prepare_el3_entry
00000000204ed380 g       .bss	0000000000000000 __BSS_START__
00000000204e0000 g       .ro	0000000000000000 __RO_START__
00000000204e50d8 g     F .ro	0000000000000064 imx_kernel_entry_handler
00000000204e4bd8 g     F .ro	0000000000000230 mmap_add_region_ctx
00000000204ea3d8 g       .ro	0000000000000000 __PMF_SVC_DESCS_START__
00000000204e8f44 g     F .ro	0000000000000084 plat_crash_console_putc
00000000204f0380 g     O .per_cpu	0000000000000040 percpu_data
00000000204e8090 g     F .ro	00000000000001b8 trdc_config
00000000204e0c2c g     F .ro	0000000000000040 gicv3_rdistif_on
00000000204e6830 g     F .ro	0000000000000098 ddrphy_coldreset
00000000204e8e60 g     F .ro	0000000000000020 spin_lock
00000000204e1c78 g     F .ro	000000000000002c console_is_registered
00000000204e1608 g     F .ro	000000000000000c gicv3_get_pending_interrupt_type
00000000204e0f90 g     F .ro	0000000000000020 gicr_set_isenabler
00000000204e644c g     F .ro	000000000000023c dram_enter_retention
00000000204ed440 g     O .bss	0000000000000020 per_world_context
00000000204e532c g     F .ro	0000000000000034 plat_gic_save
00000000204e2f00 g     F .ro	0000000000000014 psci_query_sys_suspend_pwrstate
00000000204e042c g     F .ro	0000000000000284 create_spsr
00000000204eb270 g     O .data	00000000000000c0 fuse_info
00000000204ea35d g     O .ro	0000000000000003 imx_power_domain_tree_desc
00000000204e5318 g     F .ro	0000000000000014 plat_gic_pcpu_init
00000000204e0b34 g     F .ro	0000000000000094 tf_log
00000000204e0f40 g     F .ro	0000000000000028 gicr_set_igrpmodr
00000000204f0680 g       .per_cpu	0000000000000000 __PER_CPU_UNIT_END__
00000000204ea410 g       .ro	0000000000000000 __pubsub_psci_cpu_on_finish_start
00000000204e23bc g     F .ro	00000000000000a4 trdc_mgr_fused_slot_setup
00000000204ea3d8 g       .ro	0000000000000000 __FCONF_POPULATOR_START__
000000000003c000 g       *ABS*	0000000000000000 RAM_REGION_LENGTH
00000000204e07ec g     F .ro	000000000000002c get_scr_el3_from_routing_model
00000000204fd000 g       .xlat_table	0000000000000000 __RW_END__
00000000204eb330 g     O .data	00000000000000d8 trdc_cfg_info
00000000204e6084 g     F .ro	0000000000000104 ddrc_mrs
00000000204e5398 g     F .ro	0000000000000034 imx9_soc_info_handler
00000000204e02b0 g     F .ro	0000000000000028 bl31_warmboot
00000000204e6b0c g     F .ro	0000000000000028 bl31_platform_setup
00000000204ebd80 g       .stacks	0000000000000000 __STACKS_START__
00000000204e798c g     F .ro	0000000000000018 imx_set_cpu_boot_entry
00000000204e1a00 g     F .ro	0000000000000210 gicv3_distif_init_restore
00000000204e31c4 g     F .ro	0000000000000110 psci_do_state_coordination
00000000204e46e0 g     F .ro	00000000000000ac psci_system_reset2
00000000204e48d4 g     F .ro	0000000000000048 enable_mmu_el3
00000000204eaf80 g     F .ro	0000000000000000 serror_aarch32
00000000204e2d70 g     F .ro	0000000000000028 pmuv3_enable
00000000204f0340 g       .bss	0000000000000000 __PMF_TIMESTAMP_END__
00000000204e1c10 g     F .ro	0000000000000068 gicv3_raise_sgi
00000000204e4e44 g     F .ro	00000000000000d0 init_xlat_tables_ctx
00000000204e6dbc g     F .ro	0000000000000004 arm_gicv3_distif_pre_save
00000000204ea410 g       .ro	0000000000000000 __pubsub_psci_suspend_pwrdown_finish_start
00000000204e10d8 g     F .ro	0000000000000098 gicv3_spis_config_defaults
00000000204e0d60 g     F .ro	0000000000000024 gicd_clr_igrpmodr
00000000204eb6e0 g     O .data	0000000000000030 trdc_n_mbc_glbac
00000000204fd000 g       .xlat_table	0000000000000000 __XLAT_TABLE_END__
00000000204e90e4 g     F .ro	0000000000000010 plat_my_core_pos
00000000204e12cc g     F .ro	00000000000000cc gicv3_secure_ppi_sgi_config_props
00000000204e561c g     F .ro	00000000000000d8 ddr_pll_bypass
00000000204e82c0 g     F .ro	000000000000006c trdc_n_reinit
00000000204e0a00 g     F .ro	0000000000000134 runtime_svc_init
00000000204e0e9c g     F .ro	0000000000000014 gicd_read_ispendr
00000000204eac80 g     F .ro	0000000000000000 irq_aarch64
00000000204e39f0 g     F .ro	000000000000001c psci_migrate_info_type
00000000204e2d14 g     F .ro	0000000000000044 cpu_data_init_cpu_ops
00000000204e4f20  w    F .ro	0000000000000008 plat_get_soc_version
00000000204e5abc g     F .ro	0000000000000084 ddr_hwffc
00000000204eb780 g     O .data	0000000000000010 trdc_a_mrc_glbac
00000000204e6fb4 g     F .ro	0000000000000050 s401_request_pwrdown
00000000204e0c24 g     F .ro	0000000000000004 gicv3_distif_pre_save
00000000204e500c  w    F .ro	000000000000000c plat_ic_raise_el3_sgi
00000000204e6688 g     F .ro	0000000000000104 dram_phy_init
00000000204e3ca0 g     F .ro	0000000000000048 psci_mem_chk_range
00000000204e88bc g     F .ro	0000000000000030 el3_panic
00000000204e5304 g     F .ro	0000000000000014 plat_gic_cpuif_disable
00000000204e0d18 g     F .ro	0000000000000024 gicd_clr_igroupr
00000000204e08ac g     F .ro	0000000000000068 register_interrupt_type_handler
00000000204ed408 g     O .bss	0000000000000008 gicv3_driver_data
00000000204e4f14 g     F .ro	0000000000000004 xlat_mmap_print
00000000204e9058 g     F .ro	0000000000000048 console_lpuart_register
00000000204e3354 g     F .ro	000000000000006c psci_acquire_pwr_domain_locks
00000000204e6278 g     F .ro	0000000000000168 dram_dvfs_handler
00000000204e2248 g     F .ro	000000000000003c trdc_mrc_set_control
00000000204ea410 g       .ro	0000000000000000 __pubsub_psci_cpu_on_finish_end
00000000204e0954 g     F .ro	00000000000000ac bl31_params_parse_helper
00000000204ed410 g     O .bss	0000000000000008 console_list
00000000204e313c g     F .ro	0000000000000088 psci_set_pwr_domains_to_run
00000000204e1518 g     F .ro	0000000000000090 gicv3_cpuif_enable
00000000204e6dc0 g     F .ro	0000000000000004 arm_gicv3_distif_post_restore
00000000204e0df0 g     F .ro	0000000000000014 gicd_write_igroupr
00000000204e8658 g       .ro	0000000000000000 report_unhandled_interrupt
00000000204e50cc g     F .ro	000000000000000c imx_buildinfo_handler
00000000204eaf00 g     F .ro	0000000000000000 fiq_aarch32
00000000204f0340 g       .bss	0000000000000000 __PERCPU_BAKERY_LOCK_START__
00000000204e1fb4 g     F .ro	0000000000000084 trdc_mda_set_cpu
00000000204e902c  w    F .ro	000000000000001c plat_get_my_stack
00000000204e0e4c g     F .ro	0000000000000014 gicd_read_isactiver
00000000204e1614 g     F .ro	00000000000000dc gicv3_rdistif_save
00000000204ea3d8 g       .ro	0000000000000000 __PARSER_LIB_DESCS_START__
00000000204ed468 g     O .bss	0000000000000008 psci_spd_pm
00000000204e52a4 g     F .ro	000000000000000c plat_gic_driver_init
00000000204e52f0 g     F .ro	0000000000000014 plat_gic_cpuif_enable



Disassembly of section .ro:

00000000204e0000 <bl31_entrypoint>:
    204e0000:	aa0003f4 	mov	x20, x0
    204e0004:	aa0103f5 	mov	x21, x1
    204e0008:	aa0203f6 	mov	x22, x2
    204e000c:	aa0303f7 	mov	x23, x3
    204e0010:	d2810600 	mov	x0, #0x830                 	// #2096
    204e0014:	f2a618a0 	movk	x0, #0x30c5, lsl #16
    204e0018:	d51e1000 	msr	sctlr_el3, x0
    204e001c:	d5033fdf 	isb
    204e0020:	10053f00 	adr	x0, 204ea800 <sync_exception_sp_el0>
    204e0024:	d51ec000 	msr	vbar_el3, x0
    204e0028:	d5033fdf 	isb
    204e002c:	94002433 	bl	204e90f8 <plat_reset_handler>
    204e0030:	94002310 	bl	204e8c70 <get_cpu_ops_ptr>
    204e0034:	f9400402 	ldr	x2, [x0, #8]
    204e0038:	d63f0040 	blr	x2
    204e003c:	d2820141 	mov	x1, #0x100a                	// #4106
    204e0040:	d53e1000 	mrs	x0, sctlr_el3
    204e0044:	aa010000 	orr	x0, x0, x1
    204e0048:	d51e1000 	msr	sctlr_el3, x0
    204e004c:	d5033fdf 	isb
    204e0050:	94002425 	bl	204e90e4 <plat_my_core_pos>
    204e0054:	9400238d 	bl	204e8e88 <per_cpu_base>
    204e0058:	d51ed040 	msr	tpidr_el3, x0
    204e005c:	d2800600 	mov	x0, #0x30                  	// #48
    204e0060:	d51e1100 	msr	scr_el3, x0
    204e0064:	d2a20000 	mov	x0, #0x10000000            	// #268435456
    204e0068:	d51e1320 	msr	mdcr_el3, x0
    204e006c:	d2a80200 	mov	x0, #0x40100000            	// #1074790400
    204e0070:	d51e1140 	msr	cptr_el3, x0
    204e0074:	d50344ff 	msr	daifclr, #0x4
    204e0078:	d53e132f 	mrs	x15, mdcr_el3
    204e007c:	b27001ef 	orr	x15, x15, #0x10000
    204e0080:	d51e132f 	msr	mdcr_el3, x15
    204e0084:	d53e110f 	mrs	x15, scr_el3
    204e0088:	b27d01ef 	orr	x15, x15, #0x8
    204e008c:	b27701ef 	orr	x15, x15, #0x200
    204e0090:	9257f9ef 	and	x15, x15, #0xfffffeffffffffff
    204e0094:	d51e110f 	msr	scr_el3, x15
    204e0098:	d53b9c0f 	mrs	x15, pmcr_el0
    204e009c:	b27b01ef 	orr	x15, x15, #0x20
    204e00a0:	d51b9c0f 	msr	pmcr_el0, x15
    204e00a4:	d53e114f 	mrs	x15, cptr_el3
    204e00a8:	b27801ef 	orr	x15, x15, #0x100
    204e00ac:	b27401ef 	orr	x15, x15, #0x1000
    204e00b0:	d51e114f 	msr	cptr_el3, x15
    204e00b4:	d5033fdf 	isb
    204e00b8:	9400240f 	bl	204e90f4 <platform_mem_init>
    204e00bc:	f0000040 	adrp	x0, 204eb000 <__RO_END_UNALIGNED__>
    204e00c0:	91000000 	add	x0, x0, #0x0
    204e00c4:	b00000e1 	adrp	x1, 204fd000 <RAM_REGION_END>
    204e00c8:	91000021 	add	x1, x1, #0x0
    204e00cc:	cb000021 	sub	x1, x1, x0
    204e00d0:	94002223 	bl	204e895c <inv_dcache_range>
    204e00d4:	90000080 	adrp	x0, 204f0000 <imx_gicv3_ctx+0x26d0>
    204e00d8:	910e0000 	add	x0, x0, #0x380
    204e00dc:	90000081 	adrp	x1, 204f0000 <imx_gicv3_ctx+0x26d0>
    204e00e0:	91260021 	add	x1, x1, #0x980
    204e00e4:	cb000021 	sub	x1, x1, x0
    204e00e8:	9400226f 	bl	204e8aa4 <zeromem>
    204e00ec:	b0000060 	adrp	x0, 204ed000 <__STACKS_START__+0x1280>
    204e00f0:	910e0000 	add	x0, x0, #0x380
    204e00f4:	90000081 	adrp	x1, 204f0000 <imx_gicv3_ctx+0x26d0>
    204e00f8:	910d8021 	add	x1, x1, #0x360
    204e00fc:	cb000021 	sub	x1, x1, x0
    204e0100:	94002269 	bl	204e8aa4 <zeromem>
    204e0104:	d50040bf 	msr	spsel, #0x0
    204e0108:	940023d0 	bl	204e9048 <plat_set_my_stack>
    204e010c:	aa1403e0 	mov	x0, x20
    204e0110:	aa1503e1 	mov	x1, x21
    204e0114:	aa1603e2 	mov	x2, x22
    204e0118:	aa1703e3 	mov	x3, x23
    204e011c:	9400008c 	bl	204e034c <bl31_main>
    204e0120:	f0000040 	adrp	x0, 204eb000 <__RO_END_UNALIGNED__>
    204e0124:	91000000 	add	x0, x0, #0x0
    204e0128:	f0000041 	adrp	x1, 204eb000 <__RO_END_UNALIGNED__>
    204e012c:	91357021 	add	x1, x1, #0xd5c
    204e0130:	cb000021 	sub	x1, x1, x0
    204e0134:	940021fc 	bl	204e8924 <clean_dcache_range>
    204e0138:	b0000060 	adrp	x0, 204ed000 <__STACKS_START__+0x1280>
    204e013c:	910e0000 	add	x0, x0, #0x380
    204e0140:	90000081 	adrp	x1, 204f0000 <imx_gicv3_ctx+0x26d0>
    204e0144:	910d8021 	add	x1, x1, #0x360
    204e0148:	cb000021 	sub	x1, x1, x0
    204e014c:	940021f6 	bl	204e8924 <clean_dcache_range>
    204e0150:	90000080 	adrp	x0, 204f0000 <imx_gicv3_ctx+0x26d0>
    204e0154:	910e0000 	add	x0, x0, #0x380
    204e0158:	90000081 	adrp	x1, 204f0000 <imx_gicv3_ctx+0x26d0>
    204e015c:	91260021 	add	x1, x1, #0x980
    204e0160:	cb000021 	sub	x1, x1, x0
    204e0164:	940021f0 	bl	204e8924 <clean_dcache_range>
    204e0168:	14002313 	b	204e8db4 <el3_exit>
    204e016c:	d503201f 	nop

00000000204e0170 <stm>:
    204e0170:	5d1b0020 	.word	0x5d1b0020
    204e0174:	00000000 	.word	0x00000000

00000000204e0178 <bl31_warm_entrypoint>:
    204e0178:	d2810600 	mov	x0, #0x830                 	// #2096
    204e017c:	f2a618a0 	movk	x0, #0x30c5, lsl #16
    204e0180:	d51e1000 	msr	sctlr_el3, x0
    204e0184:	d5033fdf 	isb
    204e0188:	100533c0 	adr	x0, 204ea800 <sync_exception_sp_el0>
    204e018c:	d51ec000 	msr	vbar_el3, x0
    204e0190:	d5033fdf 	isb
    204e0194:	940023d9 	bl	204e90f8 <plat_reset_handler>
    204e0198:	940022b6 	bl	204e8c70 <get_cpu_ops_ptr>
    204e019c:	f9400402 	ldr	x2, [x0, #8]
    204e01a0:	d63f0040 	blr	x2
    204e01a4:	d2820141 	mov	x1, #0x100a                	// #4106
    204e01a8:	d53e1000 	mrs	x0, sctlr_el3
    204e01ac:	aa010000 	orr	x0, x0, x1
    204e01b0:	d51e1000 	msr	sctlr_el3, x0
    204e01b4:	d5033fdf 	isb
    204e01b8:	940023cb 	bl	204e90e4 <plat_my_core_pos>
    204e01bc:	94002333 	bl	204e8e88 <per_cpu_base>
    204e01c0:	d51ed040 	msr	tpidr_el3, x0
    204e01c4:	d2800600 	mov	x0, #0x30                  	// #48
    204e01c8:	d51e1100 	msr	scr_el3, x0
    204e01cc:	d2a20000 	mov	x0, #0x10000000            	// #268435456
    204e01d0:	d51e1320 	msr	mdcr_el3, x0
    204e01d4:	d2a80200 	mov	x0, #0x40100000            	// #1074790400
    204e01d8:	d51e1140 	msr	cptr_el3, x0
    204e01dc:	d50344ff 	msr	daifclr, #0x4
    204e01e0:	d53e132f 	mrs	x15, mdcr_el3
    204e01e4:	b27001ef 	orr	x15, x15, #0x10000
    204e01e8:	d51e132f 	msr	mdcr_el3, x15
    204e01ec:	d53e110f 	mrs	x15, scr_el3
    204e01f0:	b27d01ef 	orr	x15, x15, #0x8
    204e01f4:	b27701ef 	orr	x15, x15, #0x200
    204e01f8:	9257f9ef 	and	x15, x15, #0xfffffeffffffffff
    204e01fc:	d51e110f 	msr	scr_el3, x15
    204e0200:	d53b9c0f 	mrs	x15, pmcr_el0
    204e0204:	b27b01ef 	orr	x15, x15, #0x20
    204e0208:	d51b9c0f 	msr	pmcr_el0, x15
    204e020c:	d53e114f 	mrs	x15, cptr_el3
    204e0210:	b27801ef 	orr	x15, x15, #0x100
    204e0214:	b27401ef 	orr	x15, x15, #0x1000
    204e0218:	d51e114f 	msr	cptr_el3, x15
    204e021c:	d5033fdf 	isb
    204e0220:	d50040bf 	msr	spsel, #0x0
    204e0224:	94002389 	bl	204e9048 <plat_set_my_stack>
    204e0228:	aa1f03e0 	mov	x0, xzr
    204e022c:	9400237e 	bl	204e9024 <bl31_plat_enable_mmu>
    204e0230:	94000020 	bl	204e02b0 <bl31_warmboot>
    204e0234:	140022e0 	b	204e8db4 <el3_exit>

00000000204e0238 <cm_get_context>:
    204e0238:	a9be7bfd 	stp	x29, x30, [sp, #-32]!
    204e023c:	910003fd 	mov	x29, sp
    204e0240:	f9000bf3 	str	x19, [sp, #16]
    204e0244:	aa0003f3 	mov	x19, x0
    204e0248:	90000080 	adrp	x0, 204f0000 <imx_gicv3_ctx+0x26d0>
    204e024c:	910e0000 	add	x0, x0, #0x380
    204e0250:	94000aff 	bl	204e2e4c <per_cpu_cur_compute>
    204e0254:	f100027f 	cmp	x19, #0x0
    204e0258:	9a9f07e1 	cset	x1, ne	// ne = any
    204e025c:	f9400bf3 	ldr	x19, [sp, #16]
    204e0260:	f8617800 	ldr	x0, [x0, x1, lsl #3]
    204e0264:	a8c27bfd 	ldp	x29, x30, [sp], #32
    204e0268:	d65f03c0 	ret

00000000204e026c <cm_set_context_by_index>:
    204e026c:	a9be7bfd 	stp	x29, x30, [sp, #-32]!
    204e0270:	910003fd 	mov	x29, sp
    204e0274:	a90153f3 	stp	x19, x20, [sp, #16]
    204e0278:	2a0203f4 	mov	w20, w2
    204e027c:	aa0103f3 	mov	x19, x1
    204e0280:	90000081 	adrp	x1, 204f0000 <imx_gicv3_ctx+0x26d0>
    204e0284:	910e0021 	add	x1, x1, #0x380
    204e0288:	94000ae5 	bl	204e2e1c <per_cpu_by_index_compute>
    204e028c:	7100029f 	cmp	w20, #0x0
    204e0290:	9a9f07e1 	cset	x1, ne	// ne = any
    204e0294:	f8217813 	str	x19, [x0, x1, lsl #3]
    204e0298:	a94153f3 	ldp	x19, x20, [sp, #16]
    204e029c:	a8c27bfd 	ldp	x29, x30, [sp], #32
    204e02a0:	d65f03c0 	ret

00000000204e02a4 <get_arm_std_svc_args>:
    204e02a4:	b0000040 	adrp	x0, 204e9000 <flush_continue>
    204e02a8:	911fe000 	add	x0, x0, #0x7f8
    204e02ac:	d65f03c0 	ret

00000000204e02b0 <bl31_warmboot>:
    204e02b0:	a9be7bfd 	stp	x29, x30, [sp, #-32]!
    204e02b4:	910003fd 	mov	x29, sp
    204e02b8:	f9000bf3 	str	x19, [sp, #16]
    204e02bc:	9400238a 	bl	204e90e4 <plat_my_core_pos>
    204e02c0:	2a0003f3 	mov	w19, w0
    204e02c4:	940009c2 	bl	204e29cc <cm_manage_extensions_el3>
    204e02c8:	2a1303e0 	mov	w0, w19
    204e02cc:	f9400bf3 	ldr	x19, [sp, #16]
    204e02d0:	a8c27bfd 	ldp	x29, x30, [sp], #32
    204e02d4:	14000c8e 	b	204e350c <psci_warmboot_entrypoint>

00000000204e02d8 <bl31_prepare_next_image_entry>:
    204e02d8:	a9be7bfd 	stp	x29, x30, [sp, #-32]!
    204e02dc:	d5380400 	mrs	x0, id_aa64pfr0_el1
    204e02e0:	910003fd 	mov	x29, sp
    204e02e4:	927c0c00 	and	x0, x0, #0xf0
    204e02e8:	a90153f3 	stp	x19, x20, [sp, #16]
    204e02ec:	f100401f 	cmp	x0, #0x10
    204e02f0:	540000c1 	b.ne	204e0308 <bl31_prepare_next_image_entry+0x30>  // b.any
    204e02f4:	d0000040 	adrp	x0, 204ea000 <wakeupmix_irq_mask+0x2c>
    204e02f8:	91009000 	add	x0, x0, #0x24
    204e02fc:	9400020e 	bl	204e0b34 <tf_log>
    204e0300:	940006b3 	bl	204e1dcc <console_flush>
    204e0304:	9400216e 	bl	204e88bc <el3_panic>
    204e0308:	f0000040 	adrp	x0, 204eb000 <__RO_END_UNALIGNED__>
    204e030c:	b9447013 	ldr	w19, [x0, #1136]
    204e0310:	2a1303e0 	mov	w0, w19
    204e0314:	94001a08 	bl	204e6b34 <bl31_plat_get_next_image_ep_info>
    204e0318:	aa0003f4 	mov	x20, x0
    204e031c:	9400018d 	bl	204e0950 <print_entry_point_info>
    204e0320:	aa1403e0 	mov	x0, x20
    204e0324:	940009e2 	bl	204e2aac <cm_init_my_context>
    204e0328:	7100067f 	cmp	w19, #0x1
    204e032c:	54000081 	b.ne	204e033c <bl31_prepare_next_image_entry+0x64>  // b.any
    204e0330:	a94153f3 	ldp	x19, x20, [sp, #16]
    204e0334:	a8c27bfd 	ldp	x29, x30, [sp], #32
    204e0338:	14000a75 	b	204e2d0c <cm_prepare_el3_exit_ns>
    204e033c:	2a1303e0 	mov	w0, w19
    204e0340:	a94153f3 	ldp	x19, x20, [sp, #16]
    204e0344:	a8c27bfd 	ldp	x29, x30, [sp], #32
    204e0348:	14000a5c 	b	204e2cb8 <cm_prepare_el3_exit>

00000000204e034c <bl31_main>:
    204e034c:	a9bc7bfd 	stp	x29, x30, [sp, #-64]!
    204e0350:	910003fd 	mov	x29, sp
    204e0354:	a90153f3 	stp	x19, x20, [sp, #16]
    204e0358:	aa0003f4 	mov	x20, x0
    204e035c:	a9025bf5 	stp	x21, x22, [sp, #32]
    204e0360:	aa0103f5 	mov	x21, x1
    204e0364:	aa0203f6 	mov	x22, x2
    204e0368:	f9001bf7 	str	x23, [sp, #48]
    204e036c:	aa0303f7 	mov	x23, x3
    204e0370:	9400235d 	bl	204e90e4 <plat_my_core_pos>
    204e0374:	2a0003f3 	mov	w19, w0
    204e0378:	aa1703e3 	mov	x3, x23
    204e037c:	aa1603e2 	mov	x2, x22
    204e0380:	aa1503e1 	mov	x1, x21
    204e0384:	aa1403e0 	mov	x0, x20
    204e0388:	94001977 	bl	204e6964 <bl31_early_platform_setup2>
    204e038c:	9400199e 	bl	204e6a04 <bl31_plat_arch_setup>
    204e0390:	2a1303e0 	mov	w0, w19
    204e0394:	d0000053 	adrp	x19, 204ea000 <wakeupmix_irq_mask+0x2c>
    204e0398:	9400098d 	bl	204e29cc <cm_manage_extensions_el3>
    204e039c:	9101d273 	add	x19, x19, #0x74
    204e03a0:	9400099b 	bl	204e2a0c <cm_manage_extensions_per_world>
    204e03a4:	aa1303e0 	mov	x0, x19
    204e03a8:	d0000041 	adrp	x1, 204ea000 <wakeupmix_irq_mask+0x2c>
    204e03ac:	910ca421 	add	x1, x1, #0x329
    204e03b0:	940001e1 	bl	204e0b34 <tf_log>
    204e03b4:	aa1303e0 	mov	x0, x19
    204e03b8:	d0000041 	adrp	x1, 204ea000 <wakeupmix_irq_mask+0x2c>
    204e03bc:	910cec21 	add	x1, x1, #0x33b
    204e03c0:	b0000073 	adrp	x19, 204ed000 <__STACKS_START__+0x1280>
    204e03c4:	940001dc 	bl	204e0b34 <tf_log>
    204e03c8:	940019d1 	bl	204e6b0c <bl31_platform_setup>
    204e03cc:	94000910 	bl	204e280c <cm_init>
    204e03d0:	9400018c 	bl	204e0a00 <runtime_svc_init>
    204e03d4:	f941c260 	ldr	x0, [x19, #896]
    204e03d8:	b4000080 	cbz	x0, 204e03e8 <bl31_main+0x9c>
    204e03dc:	9400067c 	bl	204e1dcc <console_flush>
    204e03e0:	f941c260 	ldr	x0, [x19, #896]
    204e03e4:	d63f0000 	blr	x0
    204e03e8:	97ffffbc 	bl	204e02d8 <bl31_prepare_next_image_entry>
    204e03ec:	940012cc 	bl	204e4f1c <bl31_plat_runtime_setup>
    204e03f0:	94000677 	bl	204e1dcc <console_flush>
    204e03f4:	a94153f3 	ldp	x19, x20, [sp, #16]
    204e03f8:	52800040 	mov	w0, #0x2                   	// #2
    204e03fc:	a9425bf5 	ldp	x21, x22, [sp, #32]
    204e0400:	f9401bf7 	ldr	x23, [sp, #48]
    204e0404:	a8c47bfd 	ldp	x29, x30, [sp], #64
    204e0408:	14000634 	b	204e1cd8 <console_switch_state>

00000000204e040c <is_tge_enabled>:
    204e040c:	d53c1100 	mrs	x0, hcr_el2
    204e0410:	d5380721 	mrs	x1, id_aa64mmfr1_el1
    204e0414:	531b6c00 	ubfx	w0, w0, #27, #1
    204e0418:	72180c3f 	tst	w1, #0xf00
    204e041c:	1a9f1000 	csel	w0, w0, wzr, ne	// ne = any
    204e0420:	d65f03c0 	ret

00000000204e0424 <handle_sysreg_trap>:
    204e0424:	12800000 	mov	w0, #0xffffffff            	// #-1
    204e0428:	d65f03c0 	ret

00000000204e042c <create_spsr>:
    204e042c:	aa0003e2 	mov	x2, x0
    204e0430:	2a0103e4 	mov	w4, w1
    204e0434:	7100083f 	cmp	w1, #0x2
    204e0438:	54000b21 	b.ne	204e059c <create_spsr+0x170>  // b.any
    204e043c:	d53c1005 	mrs	x5, sctlr_el2
    204e0440:	d2800121 	mov	x1, #0x9                   	// #9
    204e0444:	92760440 	and	x0, x2, #0xc00
    204e0448:	12818006 	mov	w6, #0xfffff3ff            	// #-3073
    204e044c:	aa010000 	orr	x0, x0, x1
    204e0450:	b27a0c03 	orr	x3, x0, #0x3c0
    204e0454:	8a060000 	and	x0, x0, x6
    204e0458:	b27a0c00 	orr	x0, x0, #0x3c0
    204e045c:	d5380421 	mrs	x1, id_aa64pfr1_el1
    204e0460:	f2400c3f 	tst	x1, #0xf
    204e0464:	9a831000 	csel	x0, x0, x3, ne	// ne = any
    204e0468:	92740043 	and	x3, x2, #0x1000
    204e046c:	aa000063 	orr	x3, x3, x0
    204e0470:	721c0c3f 	tst	w1, #0xf0
    204e0474:	540000a0 	b.eq	204e0488 <create_spsr+0x5c>  // b.none
    204e0478:	b2740060 	orr	x0, x3, #0x1000
    204e047c:	f25400bf 	tst	x5, #0x100000000000
    204e0480:	9273f863 	and	x3, x3, #0xffffffffffffefff
    204e0484:	9a800063 	csel	x3, x3, x0, eq	// eq = none
    204e0488:	92730040 	and	x0, x2, #0x2000
    204e048c:	aa030000 	orr	x0, x0, x3
    204e0490:	d5380421 	mrs	x1, id_aa64pfr1_el1
    204e0494:	f25c0c3f 	tst	x1, #0xf000000000
    204e0498:	540000a0 	b.eq	204e04ac <create_spsr+0x80>  // b.none
    204e049c:	9272f801 	and	x1, x0, #0xffffffffffffdfff
    204e04a0:	f24200bf 	tst	x5, #0x4000000000000000
    204e04a4:	b2730000 	orr	x0, x0, #0x2000
    204e04a8:	9a810000 	csel	x0, x0, x1, eq	// eq = none
    204e04ac:	926a0043 	and	x3, x2, #0x400000
    204e04b0:	aa000063 	orr	x3, x3, x0
    204e04b4:	d5380720 	mrs	x0, id_aa64mmfr1_el1
    204e04b8:	720c0c1f 	tst	w0, #0xf00000
    204e04bc:	540000a0 	b.eq	204e04d0 <create_spsr+0xa4>  // b.none
    204e04c0:	7100049f 	cmp	w4, #0x1
    204e04c4:	54000721 	b.ne	204e05a8 <create_spsr+0x17c>  // b.any
    204e04c8:	37b80045 	tbnz	w5, #23, 204e04d0 <create_spsr+0xa4>
    204e04cc:	b26a0063 	orr	x3, x3, #0x400000
    204e04d0:	92690041 	and	x1, x2, #0x800000
    204e04d4:	aa030021 	orr	x1, x1, x3
    204e04d8:	d5380740 	mrs	x0, id_aa64mmfr2_el1
    204e04dc:	721c0c1f 	tst	w0, #0xf0
    204e04e0:	54000040 	b.eq	204e04e8 <create_spsr+0xbc>  // b.none
    204e04e4:	9268f821 	and	x1, x1, #0xffffffffff7fffff
    204e04e8:	92680440 	and	x0, x2, #0x3000000
    204e04ec:	aa010000 	orr	x0, x0, x1
    204e04f0:	d5380421 	mrs	x1, id_aa64pfr1_el1
    204e04f4:	d348fc21 	lsr	x1, x1, #8
    204e04f8:	f27f083f 	tst	x1, #0xe
    204e04fc:	54000040 	b.eq	204e0504 <create_spsr+0xd8>  // b.none
    204e0500:	b2670000 	orr	x0, x0, #0x2000000
    204e0504:	92641041 	and	x1, x2, #0x1f0000000
    204e0508:	aa000021 	orr	x1, x1, x0
    204e050c:	d5380520 	mrs	x0, id_aa64dfr1_el1
    204e0510:	f2500c1f 	tst	x0, #0xf000000000000
    204e0514:	54000040 	b.eq	204e051c <create_spsr+0xf0>  // b.none
    204e0518:	b2600021 	orr	x1, x1, #0x100000000
    204e051c:	925f0040 	and	x0, x2, #0x200000000
    204e0520:	aa010000 	orr	x0, x0, x1
    204e0524:	d5380501 	mrs	x1, id_aa64dfr0_el1
    204e0528:	72080c3f 	tst	w1, #0xf000000
    204e052c:	54000040 	b.eq	204e0534 <create_spsr+0x108>  // b.none
    204e0530:	925ef800 	and	x0, x0, #0xfffffffdffffffff
    204e0534:	925e0041 	and	x1, x2, #0x400000000
    204e0538:	aa000021 	orr	x1, x1, x0
    204e053c:	d5380420 	mrs	x0, id_aa64pfr1_el1
    204e0540:	f2540c1f 	tst	x0, #0xf00000000000
    204e0544:	540000e0 	b.eq	204e0560 <create_spsr+0x134>  // b.none
    204e0548:	7100089f 	cmp	w4, #0x2
    204e054c:	54000ac1 	b.ne	204e06a4 <create_spsr+0x278>  // b.any
    204e0550:	d53c2500 	mrs	x0, gcscr_el2
    204e0554:	d3648c00 	lsl	x0, x0, #28
    204e0558:	925e0000 	and	x0, x0, #0x400000000
    204e055c:	aa000021 	orr	x1, x1, x0
    204e0560:	925d0040 	and	x0, x2, #0x800000000
    204e0564:	aa010000 	orr	x0, x0, x1
    204e0568:	d5380621 	mrs	x1, id_aa64isar1_el1
    204e056c:	53082c22 	ubfx	w2, w1, #8, #4
    204e0570:	7100185f 	cmp	w2, #0x6
    204e0574:	54000100 	b.eq	204e0594 <create_spsr+0x168>  // b.none
    204e0578:	53041c21 	ubfx	w1, w1, #4, #4
    204e057c:	7100183f 	cmp	w1, #0x6
    204e0580:	540000a0 	b.eq	204e0594 <create_spsr+0x168>  // b.none
    204e0584:	d5380641 	mrs	x1, id_aa64isar2_el1
    204e0588:	530c3c21 	ubfx	w1, w1, #12, #4
    204e058c:	7100183f 	cmp	w1, #0x6
    204e0590:	540008e1 	b.ne	204e06ac <create_spsr+0x280>  // b.any
    204e0594:	925cf800 	and	x0, x0, #0xfffffff7ffffffff
    204e0598:	d65f03c0 	ret
    204e059c:	d5381005 	mrs	x5, sctlr_el1
    204e05a0:	d28000a1 	mov	x1, #0x5                   	// #5
    204e05a4:	17ffffa8 	b	204e0444 <create_spsr+0x18>
    204e05a8:	7100089f 	cmp	w4, #0x2
    204e05ac:	54fff921 	b.ne	204e04d0 <create_spsr+0xa4>  // b.any
    204e05b0:	a9bf7bfd 	stp	x29, x30, [sp, #-16]!
    204e05b4:	910003fd 	mov	x29, sp
    204e05b8:	97ffff95 	bl	204e040c <is_tge_enabled>
    204e05bc:	36000040 	tbz	w0, #0, 204e05c4 <create_spsr+0x198>
    204e05c0:	36b806a5 	tbz	w5, #23, 204e0694 <create_spsr+0x268>
    204e05c4:	92690041 	and	x1, x2, #0x800000
    204e05c8:	aa030021 	orr	x1, x1, x3
    204e05cc:	d5380740 	mrs	x0, id_aa64mmfr2_el1
    204e05d0:	721c0c1f 	tst	w0, #0xf0
    204e05d4:	54000040 	b.eq	204e05dc <create_spsr+0x1b0>  // b.none
    204e05d8:	9268f821 	and	x1, x1, #0xffffffffff7fffff
    204e05dc:	92680440 	and	x0, x2, #0x3000000
    204e05e0:	aa010000 	orr	x0, x0, x1
    204e05e4:	d5380421 	mrs	x1, id_aa64pfr1_el1
    204e05e8:	d348fc21 	lsr	x1, x1, #8
    204e05ec:	f27f083f 	tst	x1, #0xe
    204e05f0:	54000040 	b.eq	204e05f8 <create_spsr+0x1cc>  // b.none
    204e05f4:	b2670000 	orr	x0, x0, #0x2000000
    204e05f8:	92641041 	and	x1, x2, #0x1f0000000
    204e05fc:	aa000021 	orr	x1, x1, x0
    204e0600:	d5380520 	mrs	x0, id_aa64dfr1_el1
    204e0604:	f2500c1f 	tst	x0, #0xf000000000000
    204e0608:	54000040 	b.eq	204e0610 <create_spsr+0x1e4>  // b.none
    204e060c:	b2600021 	orr	x1, x1, #0x100000000
    204e0610:	925f0040 	and	x0, x2, #0x200000000
    204e0614:	aa010000 	orr	x0, x0, x1
    204e0618:	d5380501 	mrs	x1, id_aa64dfr0_el1
    204e061c:	72080c3f 	tst	w1, #0xf000000
    204e0620:	54000040 	b.eq	204e0628 <create_spsr+0x1fc>  // b.none
    204e0624:	925ef800 	and	x0, x0, #0xfffffffdffffffff
    204e0628:	925e0041 	and	x1, x2, #0x400000000
    204e062c:	aa000021 	orr	x1, x1, x0
    204e0630:	d5380420 	mrs	x0, id_aa64pfr1_el1
    204e0634:	f2540c1f 	tst	x0, #0xf00000000000
    204e0638:	540000e0 	b.eq	204e0654 <create_spsr+0x228>  // b.none
    204e063c:	7100089f 	cmp	w4, #0x2
    204e0640:	540002e1 	b.ne	204e069c <create_spsr+0x270>  // b.any
    204e0644:	d53c2500 	mrs	x0, gcscr_el2
    204e0648:	d3648c00 	lsl	x0, x0, #28
    204e064c:	925e0000 	and	x0, x0, #0x400000000
    204e0650:	aa000021 	orr	x1, x1, x0
    204e0654:	925d0040 	and	x0, x2, #0x800000000
    204e0658:	aa010000 	orr	x0, x0, x1
    204e065c:	d5380621 	mrs	x1, id_aa64isar1_el1
    204e0660:	53082c22 	ubfx	w2, w1, #8, #4
    204e0664:	7100185f 	cmp	w2, #0x6
    204e0668:	54000100 	b.eq	204e0688 <create_spsr+0x25c>  // b.none
    204e066c:	53041c21 	ubfx	w1, w1, #4, #4
    204e0670:	7100183f 	cmp	w1, #0x6
    204e0674:	540000a0 	b.eq	204e0688 <create_spsr+0x25c>  // b.none
    204e0678:	d5380641 	mrs	x1, id_aa64isar2_el1
    204e067c:	530c3c21 	ubfx	w1, w1, #12, #4
    204e0680:	7100183f 	cmp	w1, #0x6
    204e0684:	54000041 	b.ne	204e068c <create_spsr+0x260>  // b.any
    204e0688:	925cf800 	and	x0, x0, #0xfffffff7ffffffff
    204e068c:	a8c17bfd 	ldp	x29, x30, [sp], #16
    204e0690:	d65f03c0 	ret
    204e0694:	b26a0063 	orr	x3, x3, #0x400000
    204e0698:	17ffffcb 	b	204e05c4 <create_spsr+0x198>
    204e069c:	d5382500 	mrs	x0, gcscr_el1
    204e06a0:	17ffffea 	b	204e0648 <create_spsr+0x21c>
    204e06a4:	d5382500 	mrs	x0, gcscr_el1
    204e06a8:	17ffffab 	b	204e0554 <create_spsr+0x128>
    204e06ac:	d65f03c0 	ret

00000000204e06b0 <inject_undef64>:
    204e06b0:	91040008 	add	x8, x0, #0x100
    204e06b4:	a9bf7bfd 	stp	x29, x30, [sp, #-16]!
    204e06b8:	910003fd 	mov	x29, sp
    204e06bc:	a9411502 	ldp	x2, x5, [x8, #16]
    204e06c0:	f9408003 	ldr	x3, [x0, #256]
    204e06c4:	53020c44 	ubfx	w4, w2, #2, #2
    204e06c8:	371802a2 	tbnz	w2, #3, 204e071c <inject_undef64+0x6c>
    204e06cc:	97ffff50 	bl	204e040c <is_tge_enabled>
    204e06d0:	36000440 	tbz	w0, #0, 204e0758 <inject_undef64+0xa8>
    204e06d4:	92404860 	and	x0, x3, #0x7ffff
    204e06d8:	926eb800 	and	x0, x0, #0xfffffffffffc0001
    204e06dc:	b40003e0 	cbz	x0, 204e0758 <inject_undef64+0xa8>
    204e06e0:	d51c4025 	msr	elr_el2, x5
    204e06e4:	d53cc007 	mrs	x7, vbar_el2
    204e06e8:	7100089f 	cmp	w4, #0x2
    204e06ec:	54000321 	b.ne	204e0750 <inject_undef64+0xa0>  // b.any
    204e06f0:	36000042 	tbz	w2, #0, 204e06f8 <inject_undef64+0x48>
    204e06f4:	910800e7 	add	x7, x7, #0x200
    204e06f8:	d2a04000 	mov	x0, #0x2000000             	// #33554432
    204e06fc:	d51c5200 	msr	esr_el2, x0
    204e0700:	d51c4002 	msr	spsr_el2, x2
    204e0704:	52800041 	mov	w1, #0x2                   	// #2
    204e0708:	aa0203e0 	mov	x0, x2
    204e070c:	97ffff48 	bl	204e042c <create_spsr>
    204e0710:	a9011d00 	stp	x0, x7, [x8, #16]
    204e0714:	a8c17bfd 	ldp	x29, x30, [sp], #16
    204e0718:	d65f03c0 	ret
    204e071c:	7100089f 	cmp	w4, #0x2
    204e0720:	54fffe00 	b.eq	204e06e0 <inject_undef64+0x30>  // b.none
    204e0724:	2a0403e1 	mov	w1, w4
    204e0728:	d5184025 	msr	elr_el1, x5
    204e072c:	d538c007 	mrs	x7, vbar_el1
    204e0730:	6b01009f 	cmp	w4, w1
    204e0734:	54000161 	b.ne	204e0760 <inject_undef64+0xb0>  // b.any
    204e0738:	36000042 	tbz	w2, #0, 204e0740 <inject_undef64+0x90>
    204e073c:	910800e7 	add	x7, x7, #0x200
    204e0740:	d2a04000 	mov	x0, #0x2000000             	// #33554432
    204e0744:	d5185200 	msr	esr_el1, x0
    204e0748:	d5184002 	msr	spsr_el1, x2
    204e074c:	17ffffef 	b	204e0708 <inject_undef64+0x58>
    204e0750:	911000e7 	add	x7, x7, #0x400
    204e0754:	17ffffe9 	b	204e06f8 <inject_undef64+0x48>
    204e0758:	52800021 	mov	w1, #0x1                   	// #1
    204e075c:	17fffff3 	b	204e0728 <inject_undef64+0x78>
    204e0760:	911000e7 	add	x7, x7, #0x400
    204e0764:	17fffff7 	b	204e0740 <inject_undef64+0x90>

00000000204e0768 <set_scr_el3_from_rm>:
    204e0768:	a9bd7bfd 	stp	x29, x30, [sp, #-48]!
    204e076c:	1ac22421 	lsr	w1, w1, w2
    204e0770:	910003fd 	mov	x29, sp
    204e0774:	a90153f3 	stp	x19, x20, [sp, #16]
    204e0778:	2a0003f3 	mov	w19, w0
    204e077c:	2a0203f4 	mov	w20, w2
    204e0780:	d37e7e73 	ubfiz	x19, x19, #2, #32
    204e0784:	a9025bf5 	stp	x21, x22, [sp, #32]
    204e0788:	8b344273 	add	x19, x19, w20, uxtw
    204e078c:	12000035 	and	w21, w1, #0x1
    204e0790:	2a0203e1 	mov	w1, w2
    204e0794:	94001209 	bl	204e4fb8 <plat_interrupt_type_to_line>
    204e0798:	2a0003f6 	mov	w22, w0
    204e079c:	b0000060 	adrp	x0, 204ed000 <__STACKS_START__+0x1280>
    204e07a0:	910e2000 	add	x0, x0, #0x388
    204e07a4:	8b130c13 	add	x19, x0, x19, lsl #3
    204e07a8:	2a1503e0 	mov	w0, w21
    204e07ac:	9ad62000 	lsl	x0, x0, x22
    204e07b0:	f9000660 	str	x0, [x19, #8]
    204e07b4:	2a1403e0 	mov	w0, w20
    204e07b8:	97fffea0 	bl	204e0238 <cm_get_context>
    204e07bc:	b4000100 	cbz	x0, 204e07dc <set_scr_el3_from_rm+0x74>
    204e07c0:	2a1503e2 	mov	w2, w21
    204e07c4:	2a1603e1 	mov	w1, w22
    204e07c8:	a9425bf5 	ldp	x21, x22, [sp, #32]
    204e07cc:	2a1403e0 	mov	w0, w20
    204e07d0:	a94153f3 	ldp	x19, x20, [sp, #16]
    204e07d4:	a8c37bfd 	ldp	x29, x30, [sp], #48
    204e07d8:	1400091e 	b	204e2c50 <cm_write_scr_el3_bit>
    204e07dc:	a94153f3 	ldp	x19, x20, [sp, #16]
    204e07e0:	a9425bf5 	ldp	x21, x22, [sp, #32]
    204e07e4:	a8c37bfd 	ldp	x29, x30, [sp], #48
    204e07e8:	d65f03c0 	ret

00000000204e07ec <get_scr_el3_from_routing_model>:
    204e07ec:	b0000061 	adrp	x1, 204ed000 <__STACKS_START__+0x1280>
    204e07f0:	910e2021 	add	x1, x1, #0x388
    204e07f4:	8b000c22 	add	x2, x1, x0, lsl #3
    204e07f8:	8b000c23 	add	x3, x1, x0, lsl #3
    204e07fc:	8b000c20 	add	x0, x1, x0, lsl #3
    204e0800:	f9400463 	ldr	x3, [x3, #8]
    204e0804:	f9402442 	ldr	x2, [x2, #72]
    204e0808:	f9401400 	ldr	x0, [x0, #40]
    204e080c:	aa030042 	orr	x2, x2, x3
    204e0810:	aa000040 	orr	x0, x2, x0
    204e0814:	d65f03c0 	ret

00000000204e0818 <set_routing_model>:
    204e0818:	a9be7bfd 	stp	x29, x30, [sp, #-32]!
    204e081c:	910003fd 	mov	x29, sp
    204e0820:	a90153f3 	stp	x19, x20, [sp, #16]
    204e0824:	2a0003f3 	mov	w19, w0
    204e0828:	2a0103f4 	mov	w20, w1
    204e082c:	940011f5 	bl	204e5000 <plat_ic_has_interrupt_type>
    204e0830:	36000340 	tbz	w0, #0, 204e0898 <set_routing_model+0x80>
    204e0834:	12000680 	and	w0, w20, #0x3
    204e0838:	350002b3 	cbnz	w19, 204e088c <set_routing_model+0x74>
    204e083c:	51000800 	sub	w0, w0, #0x2
    204e0840:	7100041f 	cmp	w0, #0x1
    204e0844:	540002a8 	b.hi	204e0898 <set_routing_model+0x80>  // b.pmore
    204e0848:	d37b7e61 	ubfiz	x1, x19, #5, #32
    204e084c:	b0000060 	adrp	x0, 204ed000 <__STACKS_START__+0x1280>
    204e0850:	910e2000 	add	x0, x0, #0x388
    204e0854:	52800002 	mov	w2, #0x0                   	// #0
    204e0858:	8b010000 	add	x0, x0, x1
    204e085c:	2a1403e1 	mov	w1, w20
    204e0860:	b9001814 	str	w20, [x0, #24]
    204e0864:	2a1303e0 	mov	w0, w19
    204e0868:	97ffffc0 	bl	204e0768 <set_scr_el3_from_rm>
    204e086c:	2a1303e0 	mov	w0, w19
    204e0870:	2a1403e1 	mov	w1, w20
    204e0874:	52800022 	mov	w2, #0x1                   	// #1
    204e0878:	97ffffbc 	bl	204e0768 <set_scr_el3_from_rm>
    204e087c:	52800000 	mov	w0, #0x0                   	// #0
    204e0880:	a94153f3 	ldp	x19, x20, [sp, #16]
    204e0884:	a8c27bfd 	ldp	x29, x30, [sp], #32
    204e0888:	d65f03c0 	ret
    204e088c:	71000a7f 	cmp	w19, #0x2
    204e0890:	54000081 	b.ne	204e08a0 <set_routing_model+0x88>  // b.any
    204e0894:	360ffdb4 	tbz	w20, #1, 204e0848 <set_routing_model+0x30>
    204e0898:	128002a0 	mov	w0, #0xffffffea            	// #-22
    204e089c:	17fffff9 	b	204e0880 <set_routing_model+0x68>
    204e08a0:	7100067f 	cmp	w19, #0x1
    204e08a4:	54fffcc0 	b.eq	204e083c <set_routing_model+0x24>  // b.none
    204e08a8:	17fffffc 	b	204e0898 <set_routing_model+0x80>

00000000204e08ac <register_interrupt_type_handler>:
    204e08ac:	a9bd7bfd 	stp	x29, x30, [sp, #-48]!
    204e08b0:	910003fd 	mov	x29, sp
    204e08b4:	a90153f3 	stp	x19, x20, [sp, #16]
    204e08b8:	f90013f5 	str	x21, [sp, #32]
    204e08bc:	aa0103f5 	mov	x21, x1
    204e08c0:	b4000221 	cbz	x1, 204e0904 <register_interrupt_type_handler+0x58>
    204e08c4:	2a0203e1 	mov	w1, w2
    204e08c8:	71000c5f 	cmp	w2, #0x3
    204e08cc:	540001c8 	b.hi	204e0904 <register_interrupt_type_handler+0x58>  // b.pmore
    204e08d0:	2a0003f3 	mov	w19, w0
    204e08d4:	b0000074 	adrp	x20, 204ed000 <__STACKS_START__+0x1280>
    204e08d8:	910e2294 	add	x20, x20, #0x388
    204e08dc:	d37b7e73 	ubfiz	x19, x19, #5, #32
    204e08e0:	f8736a82 	ldr	x2, [x20, x19]
    204e08e4:	b5000142 	cbnz	x2, 204e090c <register_interrupt_type_handler+0x60>
    204e08e8:	97ffffcc 	bl	204e0818 <set_routing_model>
    204e08ec:	35000040 	cbnz	w0, 204e08f4 <register_interrupt_type_handler+0x48>
    204e08f0:	f8336a95 	str	x21, [x20, x19]
    204e08f4:	a94153f3 	ldp	x19, x20, [sp, #16]
    204e08f8:	f94013f5 	ldr	x21, [sp, #32]
    204e08fc:	a8c37bfd 	ldp	x29, x30, [sp], #48
    204e0900:	d65f03c0 	ret
    204e0904:	128002a0 	mov	w0, #0xffffffea            	// #-22
    204e0908:	17fffffb 	b	204e08f4 <register_interrupt_type_handler+0x48>
    204e090c:	12800480 	mov	w0, #0xffffffdb            	// #-37
    204e0910:	17fffff9 	b	204e08f4 <register_interrupt_type_handler+0x48>

00000000204e0914 <get_interrupt_type_handler>:
    204e0914:	a9be7bfd 	stp	x29, x30, [sp, #-32]!
    204e0918:	910003fd 	mov	x29, sp
    204e091c:	f9000bf3 	str	x19, [sp, #16]
    204e0920:	2a0003f3 	mov	w19, w0
    204e0924:	940011b7 	bl	204e5000 <plat_ic_has_interrupt_type>
    204e0928:	36000100 	tbz	w0, #0, 204e0948 <get_interrupt_type_handler+0x34>
    204e092c:	d37b7e73 	ubfiz	x19, x19, #5, #32
    204e0930:	b0000060 	adrp	x0, 204ed000 <__STACKS_START__+0x1280>
    204e0934:	910e2000 	add	x0, x0, #0x388
    204e0938:	f8736800 	ldr	x0, [x0, x19]
    204e093c:	f9400bf3 	ldr	x19, [sp, #16]
    204e0940:	a8c27bfd 	ldp	x29, x30, [sp], #32
    204e0944:	d65f03c0 	ret
    204e0948:	d2800000 	mov	x0, #0x0                   	// #0
    204e094c:	17fffffc 	b	204e093c <get_interrupt_type_handler+0x28>

00000000204e0950 <print_entry_point_info>:
    204e0950:	d65f03c0 	ret

00000000204e0954 <bl31_params_parse_helper>:
    204e0954:	a9bd7bfd 	stp	x29, x30, [sp, #-48]!
    204e0958:	910003fd 	mov	x29, sp
    204e095c:	a90153f3 	stp	x19, x20, [sp, #16]
    204e0960:	aa0003f3 	mov	x19, x0
    204e0964:	aa0103f4 	mov	x20, x1
    204e0968:	f90013f5 	str	x21, [sp, #32]
    204e096c:	aa0203f5 	mov	x21, x2
    204e0970:	39400400 	ldrb	w0, [x0, #1]
    204e0974:	7100041f 	cmp	w0, #0x1
    204e0978:	540001e1 	b.ne	204e09b4 <bl31_params_parse_helper+0x60>  // b.any
    204e097c:	b40000a1 	cbz	x1, 204e0990 <bl31_params_parse_helper+0x3c>
    204e0980:	aa0103e0 	mov	x0, x1
    204e0984:	d2800b02 	mov	x2, #0x58                  	// #88
    204e0988:	f9400a61 	ldr	x1, [x19, #16]
    204e098c:	940021ee 	bl	204e9144 <memcpy>
    204e0990:	b40000b5 	cbz	x21, 204e09a4 <bl31_params_parse_helper+0x50>
    204e0994:	f9401261 	ldr	x1, [x19, #32]
    204e0998:	aa1503e0 	mov	x0, x21
    204e099c:	d2800b02 	mov	x2, #0x58                  	// #88
    204e09a0:	940021e9 	bl	204e9144 <memcpy>
    204e09a4:	a94153f3 	ldp	x19, x20, [sp, #16]
    204e09a8:	f94013f5 	ldr	x21, [sp, #32]
    204e09ac:	a8c37bfd 	ldp	x29, x30, [sp], #48
    204e09b0:	d65f03c0 	ret
    204e09b4:	f9400673 	ldr	x19, [x19, #8]
    204e09b8:	b4ffff73 	cbz	x19, 204e09a4 <bl31_params_parse_helper+0x50>
    204e09bc:	b9400260 	ldr	w0, [x19]
    204e09c0:	7100101f 	cmp	w0, #0x4
    204e09c4:	54000101 	b.ne	204e09e4 <bl31_params_parse_helper+0x90>  // b.any
    204e09c8:	b40000b4 	cbz	x20, 204e09dc <bl31_params_parse_helper+0x88>
    204e09cc:	f9400a61 	ldr	x1, [x19, #16]
    204e09d0:	aa1403e0 	mov	x0, x20
    204e09d4:	d2800b02 	mov	x2, #0x58                  	// #88
    204e09d8:	940021db 	bl	204e9144 <memcpy>
    204e09dc:	f9400e73 	ldr	x19, [x19, #24]
    204e09e0:	17fffff6 	b	204e09b8 <bl31_params_parse_helper+0x64>
    204e09e4:	7100141f 	cmp	w0, #0x5
    204e09e8:	54ffffa1 	b.ne	204e09dc <bl31_params_parse_helper+0x88>  // b.any
    204e09ec:	b4ffff95 	cbz	x21, 204e09dc <bl31_params_parse_helper+0x88>
    204e09f0:	f9400a61 	ldr	x1, [x19, #16]
    204e09f4:	aa1503e0 	mov	x0, x21
    204e09f8:	d2800b02 	mov	x2, #0x58                  	// #88
    204e09fc:	17fffff7 	b	204e09d8 <bl31_params_parse_helper+0x84>

00000000204e0a00 <runtime_svc_init>:
    204e0a00:	a9bb7bfd 	stp	x29, x30, [sp, #-80]!
    204e0a04:	910003fd 	mov	x29, sp
    204e0a08:	a90153f3 	stp	x19, x20, [sp, #16]
    204e0a0c:	d0000054 	adrp	x20, 204ea000 <wakeupmix_irq_mask+0x2c>
    204e0a10:	910f6294 	add	x20, x20, #0x3d8
    204e0a14:	a9025bf5 	stp	x21, x22, [sp, #32]
    204e0a18:	d0000055 	adrp	x21, 204ea000 <wakeupmix_irq_mask+0x2c>
    204e0a1c:	910de2b5 	add	x21, x21, #0x378
    204e0a20:	cb150294 	sub	x20, x20, x21
    204e0a24:	a90363f7 	stp	x23, x24, [sp, #48]
    204e0a28:	f90023f9 	str	x25, [sp, #64]
    204e0a2c:	f1007e9f 	cmp	x20, #0x1f
    204e0a30:	54000569 	b.ls	204e0adc <runtime_svc_init+0xdc>  // b.plast
    204e0a34:	d0000057 	adrp	x23, 204ea000 <wakeupmix_irq_mask+0x2c>
    204e0a38:	d345fe94 	lsr	x20, x20, #5
    204e0a3c:	91029ef7 	add	x23, x23, #0xa7
    204e0a40:	52800018 	mov	w24, #0x0                   	// #0
    204e0a44:	d2800013 	mov	x19, #0x0                   	// #0
    204e0a48:	90000096 	adrp	x22, 204f0000 <imx_gicv3_ctx+0x26d0>
    204e0a4c:	9109e2d6 	add	x22, x22, #0x278
    204e0a50:	d2801002 	mov	x2, #0x80                  	// #128
    204e0a54:	aa1603e0 	mov	x0, x22
    204e0a58:	12800001 	mov	w1, #0xffffffff            	// #-1
    204e0a5c:	94002349 	bl	204e9780 <memset>
    204e0a60:	d37bea79 	lsl	x25, x19, #5
    204e0a64:	8b1316b3 	add	x19, x21, x19, lsl #5
    204e0a68:	38796aa1 	ldrb	w1, [x21, x25]
    204e0a6c:	39400660 	ldrb	w0, [x19, #1]
    204e0a70:	6b00003f 	cmp	w1, w0
    204e0a74:	54000148 	b.hi	204e0a9c <runtime_svc_init+0x9c>  // b.pmore
    204e0a78:	7100fc1f 	cmp	w0, #0x3f
    204e0a7c:	54000108 	b.hi	204e0a9c <runtime_svc_init+0x9c>  // b.pmore
    204e0a80:	39400a60 	ldrb	w0, [x19, #2]
    204e0a84:	7100041f 	cmp	w0, #0x1
    204e0a88:	540000a8 	b.hi	204e0a9c <runtime_svc_init+0x9c>  // b.pmore
    204e0a8c:	f9400a60 	ldr	x0, [x19, #16]
    204e0a90:	b5000120 	cbnz	x0, 204e0ab4 <runtime_svc_init+0xb4>
    204e0a94:	f9400e60 	ldr	x0, [x19, #24]
    204e0a98:	b50002e0 	cbnz	x0, 204e0af4 <runtime_svc_init+0xf4>
    204e0a9c:	aa1303e1 	mov	x1, x19
    204e0aa0:	d0000040 	adrp	x0, 204ea000 <wakeupmix_irq_mask+0x2c>
    204e0aa4:	9101fc00 	add	x0, x0, #0x7f
    204e0aa8:	94000023 	bl	204e0b34 <tf_log>
    204e0aac:	940004c8 	bl	204e1dcc <console_flush>
    204e0ab0:	94001f83 	bl	204e88bc <el3_panic>
    204e0ab4:	d63f0000 	blr	x0
    204e0ab8:	340001e0 	cbz	w0, 204e0af4 <runtime_svc_init+0xf4>
    204e0abc:	f9400661 	ldr	x1, [x19, #8]
    204e0ac0:	aa1703e0 	mov	x0, x23
    204e0ac4:	9400001c 	bl	204e0b34 <tf_log>
    204e0ac8:	11000700 	add	w0, w24, #0x1
    204e0acc:	12001c18 	and	w24, w0, #0xff
    204e0ad0:	92401c13 	and	x19, x0, #0xff
    204e0ad4:	eb20029f 	cmp	x20, w0, uxtb
    204e0ad8:	54fffc48 	b.hi	204e0a60 <runtime_svc_init+0x60>  // b.pmore
    204e0adc:	a94153f3 	ldp	x19, x20, [sp, #16]
    204e0ae0:	a9425bf5 	ldp	x21, x22, [sp, #32]
    204e0ae4:	a94363f7 	ldp	x23, x24, [sp, #48]
    204e0ae8:	f94023f9 	ldr	x25, [sp, #64]
    204e0aec:	a8c57bfd 	ldp	x29, x30, [sp], #80
    204e0af0:	d65f03c0 	ret
    204e0af4:	39400a63 	ldrb	w3, [x19, #2]
    204e0af8:	38796aa1 	ldrb	w1, [x21, x25]
    204e0afc:	39400662 	ldrb	w2, [x19, #1]
    204e0b00:	531a0063 	ubfiz	w3, w3, #6, #1
    204e0b04:	12001421 	and	w1, w1, #0x3f
    204e0b08:	2a030020 	orr	w0, w1, w3
    204e0b0c:	12001442 	and	w2, w2, #0x3f
    204e0b10:	2a0003e1 	mov	w1, w0
    204e0b14:	2a030042 	orr	w2, w2, w3
    204e0b18:	8b0002c0 	add	x0, x22, x0
    204e0b1c:	6b02003f 	cmp	w1, w2
    204e0b20:	54fffd48 	b.hi	204e0ac8 <runtime_svc_init+0xc8>  // b.pmore
    204e0b24:	11000421 	add	w1, w1, #0x1
    204e0b28:	38001418 	strb	w24, [x0], #1
    204e0b2c:	12001c21 	and	w1, w1, #0xff
    204e0b30:	17fffffb 	b	204e0b1c <runtime_svc_init+0x11c>

00000000204e0b34 <tf_log>:
    204e0b34:	a9b67bfd 	stp	x29, x30, [sp, #-160]!
    204e0b38:	910003fd 	mov	x29, sp
    204e0b3c:	a90153f3 	stp	x19, x20, [sp, #16]
    204e0b40:	aa0003f4 	mov	x20, x0
    204e0b44:	a9068be1 	stp	x1, x2, [sp, #104]
    204e0b48:	f0000041 	adrp	x1, 204eb000 <__RO_END_UNALIGNED__>
    204e0b4c:	a90793e3 	stp	x3, x4, [sp, #120]
    204e0b50:	b9447421 	ldr	w1, [x1, #1140]
    204e0b54:	a9089be5 	stp	x5, x6, [sp, #136]
    204e0b58:	f9004fe7 	str	x7, [sp, #152]
    204e0b5c:	39400000 	ldrb	w0, [x0]
    204e0b60:	6b00003f 	cmp	w1, w0
    204e0b64:	54000263 	b.cc	204e0bb0 <tf_log+0x7c>  // b.lo, b.ul, b.last
    204e0b68:	9400112c 	bl	204e5018 <plat_log_get_prefix>
    204e0b6c:	aa0003f3 	mov	x19, x0
    204e0b70:	39400260 	ldrb	w0, [x19]
    204e0b74:	35000240 	cbnz	w0, 204e0bbc <tf_log+0x88>
    204e0b78:	910283e0 	add	x0, sp, #0xa0
    204e0b7c:	a90403e0 	stp	x0, x0, [sp, #64]
    204e0b80:	910183e0 	add	x0, sp, #0x60
    204e0b84:	f9002be0 	str	x0, [sp, #80]
    204e0b88:	128006e0 	mov	w0, #0xffffffc8            	// #-56
    204e0b8c:	b9005be0 	str	w0, [sp, #88]
    204e0b90:	b9005fff 	str	wzr, [sp, #92]
    204e0b94:	a94407e0 	ldp	x0, x1, [sp, #64]
    204e0b98:	a90207e0 	stp	x0, x1, [sp, #32]
    204e0b9c:	a94507e0 	ldp	x0, x1, [sp, #80]
    204e0ba0:	a90307e0 	stp	x0, x1, [sp, #48]
    204e0ba4:	910083e1 	add	x1, sp, #0x20
    204e0ba8:	91000680 	add	x0, x20, #0x1
    204e0bac:	940021b8 	bl	204e928c <vprintf>
    204e0bb0:	a94153f3 	ldp	x19, x20, [sp, #16]
    204e0bb4:	a8ca7bfd 	ldp	x29, x30, [sp], #160
    204e0bb8:	d65f03c0 	ret
    204e0bbc:	91000673 	add	x19, x19, #0x1
    204e0bc0:	94000479 	bl	204e1da4 <putchar>
    204e0bc4:	17ffffeb 	b	204e0b70 <tf_log+0x3c>

00000000204e0bc8 <gicr_wait_group_not_in_transit>:
    204e0bc8:	b9402401 	ldr	w1, [x0, #36]
    204e0bcc:	53037c22 	lsr	w2, w1, #3
    204e0bd0:	4a410841 	eor	w1, w2, w1, lsr #2
    204e0bd4:	3707ffa1 	tbnz	w1, #0, 204e0bc8 <gicr_wait_group_not_in_transit>
    204e0bd8:	d65f03c0 	ret

00000000204e0bdc <gicv3_redists_need_power_mgmt>:
    204e0bdc:	b9400400 	ldr	w0, [x0, #4]
    204e0be0:	52808761 	mov	w1, #0x43b                 	// #1083
    204e0be4:	72a04001 	movk	w1, #0x200, lsl #16
    204e0be8:	12074802 	and	w2, w0, #0xfe000fff
    204e0bec:	6b01005f 	cmp	w2, w1
    204e0bf0:	54000160 	b.eq	204e0c1c <gicv3_redists_need_power_mgmt+0x40>  // b.none
    204e0bf4:	52808761 	mov	w1, #0x43b                 	// #1083
    204e0bf8:	12084c00 	and	w0, w0, #0xff000fff
    204e0bfc:	72a08001 	movk	w1, #0x400, lsl #16
    204e0c00:	6b01001f 	cmp	w0, w1
    204e0c04:	540000c0 	b.eq	204e0c1c <gicv3_redists_need_power_mgmt+0x40>  // b.none
    204e0c08:	52808761 	mov	w1, #0x43b                 	// #1083
    204e0c0c:	72a0e001 	movk	w1, #0x700, lsl #16
    204e0c10:	6b01001f 	cmp	w0, w1
    204e0c14:	1a9f17e0 	cset	w0, eq	// eq = none
    204e0c18:	d65f03c0 	ret
    204e0c1c:	52800020 	mov	w0, #0x1                   	// #1
    204e0c20:	17fffffe 	b	204e0c18 <gicv3_redists_need_power_mgmt+0x3c>

00000000204e0c24 <gicv3_distif_pre_save>:
    204e0c24:	14001866 	b	204e6dbc <arm_gicv3_distif_pre_save>

00000000204e0c28 <gicv3_distif_post_restore>:
    204e0c28:	14001866 	b	204e6dc0 <arm_gicv3_distif_post_restore>

00000000204e0c2c <gicv3_rdistif_on>:
    204e0c2c:	a9bf7bfd 	stp	x29, x30, [sp, #-16]!
    204e0c30:	b0000061 	adrp	x1, 204ed000 <__STACKS_START__+0x1280>
    204e0c34:	910003fd 	mov	x29, sp
    204e0c38:	f9420421 	ldr	x1, [x1, #1032]
    204e0c3c:	f9401021 	ldr	x1, [x1, #32]
    204e0c40:	f8605823 	ldr	x3, [x1, w0, uxtw #3]
    204e0c44:	aa0303e0 	mov	x0, x3
    204e0c48:	97ffffe5 	bl	204e0bdc <gicv3_redists_need_power_mgmt>
    204e0c4c:	360000c0 	tbz	w0, #0, 204e0c64 <gicv3_rdistif_on+0x38>
    204e0c50:	aa0303e0 	mov	x0, x3
    204e0c54:	97ffffdd 	bl	204e0bc8 <gicr_wait_group_not_in_transit>
    204e0c58:	b900247f 	str	wzr, [x3, #36]
    204e0c5c:	b9402460 	ldr	w0, [x3, #36]
    204e0c60:	17fffffb 	b	204e0c4c <gicv3_rdistif_on+0x20>
    204e0c64:	a8c17bfd 	ldp	x29, x30, [sp], #16
    204e0c68:	d65f03c0 	ret

00000000204e0c6c <gicv3_apply_errata_wa_2384374>:
    204e0c6c:	90000081 	adrp	x1, 204f0000 <imx_gicv3_ctx+0x26d0>
    204e0c70:	394be021 	ldrb	w1, [x1, #760]
    204e0c74:	360000c1 	tbz	w1, #0, 204e0c8c <gicv3_apply_errata_wa_2384374+0x20>
    204e0c78:	b9400001 	ldr	w1, [x0]
    204e0c7c:	32080822 	orr	w2, w1, #0x7000000
    204e0c80:	b9000002 	str	w2, [x0]
    204e0c84:	12057021 	and	w1, w1, #0xf8ffffff
    204e0c88:	b9000001 	str	w1, [x0]
    204e0c8c:	d65f03c0 	ret

00000000204e0c90 <gicv3_check_erratas_applies>:
    204e0c90:	a9be7bfd 	stp	x29, x30, [sp, #-32]!
    204e0c94:	910003fd 	mov	x29, sp
    204e0c98:	910073e1 	add	x1, sp, #0x1c
    204e0c9c:	91006fe2 	add	x2, sp, #0x1b
    204e0ca0:	940001be 	bl	204e1398 <gicv3_get_component_prodid_rev>
    204e0ca4:	b9401fe1 	ldr	w1, [sp, #28]
    204e0ca8:	51000820 	sub	w0, w1, #0x2
    204e0cac:	7100041f 	cmp	w0, #0x1
    204e0cb0:	54000128 	b.hi	204e0cd4 <gicv3_check_erratas_applies+0x44>  // b.pmore
    204e0cb4:	39406fe0 	ldrb	w0, [sp, #27]
    204e0cb8:	7100083f 	cmp	w1, #0x2
    204e0cbc:	54000101 	b.ne	204e0cdc <gicv3_check_erratas_applies+0x4c>  // b.any
    204e0cc0:	71005c1f 	cmp	w0, #0x17
    204e0cc4:	54000088 	b.hi	204e0cd4 <gicv3_check_erratas_applies+0x44>  // b.pmore
    204e0cc8:	90000080 	adrp	x0, 204f0000 <imx_gicv3_ctx+0x26d0>
    204e0ccc:	52800021 	mov	w1, #0x1                   	// #1
    204e0cd0:	390be001 	strb	w1, [x0, #760]
    204e0cd4:	a8c27bfd 	ldp	x29, x30, [sp], #32
    204e0cd8:	d65f03c0 	ret
    204e0cdc:	7100101f 	cmp	w0, #0x4
    204e0ce0:	17fffff9 	b	204e0cc4 <gicv3_check_erratas_applies+0x34>

00000000204e0ce4 <gicd_set_icfgr>:
    204e0ce4:	531f0c24 	ubfiz	w4, w1, #1, #4
    204e0ce8:	53047c21 	lsr	w1, w1, #4
    204e0cec:	91300000 	add	x0, x0, #0xc00
    204e0cf0:	12000442 	and	w2, w2, #0x3
    204e0cf4:	d37ef421 	lsl	x1, x1, #2
    204e0cf8:	52800063 	mov	w3, #0x3                   	// #3
    204e0cfc:	1ac42063 	lsl	w3, w3, w4
    204e0d00:	1ac42042 	lsl	w2, w2, w4
    204e0d04:	b8606825 	ldr	w5, [x1, x0]
    204e0d08:	0a2300a3 	bic	w3, w5, w3
    204e0d0c:	2a020063 	orr	w3, w3, w2
    204e0d10:	b8206823 	str	w3, [x1, x0]
    204e0d14:	d65f03c0 	ret

00000000204e0d18 <gicd_clr_igroupr>:
    204e0d18:	53057c23 	lsr	w3, w1, #5
    204e0d1c:	91020000 	add	x0, x0, #0x80
    204e0d20:	52800022 	mov	w2, #0x1                   	// #1
    204e0d24:	d37ef463 	lsl	x3, x3, #2
    204e0d28:	1ac12041 	lsl	w1, w2, w1
    204e0d2c:	b8606864 	ldr	w4, [x3, x0]
    204e0d30:	0a210081 	bic	w1, w4, w1
    204e0d34:	b8206861 	str	w1, [x3, x0]
    204e0d38:	d65f03c0 	ret

00000000204e0d3c <gicd_set_igrpmodr>:
    204e0d3c:	53057c23 	lsr	w3, w1, #5
    204e0d40:	91340000 	add	x0, x0, #0xd00
    204e0d44:	52800022 	mov	w2, #0x1                   	// #1
    204e0d48:	d37ef463 	lsl	x3, x3, #2
    204e0d4c:	1ac12041 	lsl	w1, w2, w1
    204e0d50:	b8606864 	ldr	w4, [x3, x0]
    204e0d54:	2a040021 	orr	w1, w1, w4
    204e0d58:	b8206861 	str	w1, [x3, x0]
    204e0d5c:	d65f03c0 	ret

00000000204e0d60 <gicd_clr_igrpmodr>:
    204e0d60:	53057c23 	lsr	w3, w1, #5
    204e0d64:	91340000 	add	x0, x0, #0xd00
    204e0d68:	52800022 	mov	w2, #0x1                   	// #1
    204e0d6c:	d37ef463 	lsl	x3, x3, #2
    204e0d70:	1ac12041 	lsl	w1, w2, w1
    204e0d74:	b8606864 	ldr	w4, [x3, x0]
    204e0d78:	0a210081 	bic	w1, w4, w1
    204e0d7c:	b8206861 	str	w1, [x3, x0]
    204e0d80:	d65f03c0 	ret

00000000204e0d84 <gicd_set_isenabler>:
    204e0d84:	52800022 	mov	w2, #0x1                   	// #1
    204e0d88:	91040000 	add	x0, x0, #0x100
    204e0d8c:	1ac12042 	lsl	w2, w2, w1
    204e0d90:	53057c21 	lsr	w1, w1, #5
    204e0d94:	d37ef421 	lsl	x1, x1, #2
    204e0d98:	b8206822 	str	w2, [x1, x0]
    204e0d9c:	d65f03c0 	ret

00000000204e0da0 <gicd_set_ipriorityr>:
    204e0da0:	91100000 	add	x0, x0, #0x400
    204e0da4:	2a0103e1 	mov	w1, w1
    204e0da8:	12001c42 	and	w2, w2, #0xff
    204e0dac:	38216802 	strb	w2, [x0, x1]
    204e0db0:	d65f03c0 	ret

00000000204e0db4 <gicd_read_icfgr>:
    204e0db4:	53047c21 	lsr	w1, w1, #4
    204e0db8:	91300000 	add	x0, x0, #0xc00
    204e0dbc:	d37ef421 	lsl	x1, x1, #2
    204e0dc0:	b8606820 	ldr	w0, [x1, x0]
    204e0dc4:	d65f03c0 	ret

00000000204e0dc8 <gicd_write_icfgr>:
    204e0dc8:	53047c21 	lsr	w1, w1, #4
    204e0dcc:	91300000 	add	x0, x0, #0xc00
    204e0dd0:	d37ef421 	lsl	x1, x1, #2
    204e0dd4:	b8206822 	str	w2, [x1, x0]
    204e0dd8:	d65f03c0 	ret

00000000204e0ddc <gicd_read_igroupr>:
    204e0ddc:	53057c21 	lsr	w1, w1, #5
    204e0de0:	91020000 	add	x0, x0, #0x80
    204e0de4:	d37ef421 	lsl	x1, x1, #2
    204e0de8:	b8606820 	ldr	w0, [x1, x0]
    204e0dec:	d65f03c0 	ret

00000000204e0df0 <gicd_write_igroupr>:
    204e0df0:	53057c21 	lsr	w1, w1, #5
    204e0df4:	91020000 	add	x0, x0, #0x80
    204e0df8:	d37ef421 	lsl	x1, x1, #2
    204e0dfc:	b8206822 	str	w2, [x1, x0]
    204e0e00:	d65f03c0 	ret

00000000204e0e04 <gicd_read_igrpmodr>:
    204e0e04:	53057c21 	lsr	w1, w1, #5
    204e0e08:	91340000 	add	x0, x0, #0xd00
    204e0e0c:	d37ef421 	lsl	x1, x1, #2
    204e0e10:	b8606820 	ldr	w0, [x1, x0]
    204e0e14:	d65f03c0 	ret

00000000204e0e18 <gicd_write_igrpmodr>:
    204e0e18:	53057c21 	lsr	w1, w1, #5
    204e0e1c:	91340000 	add	x0, x0, #0xd00
    204e0e20:	d37ef421 	lsl	x1, x1, #2
    204e0e24:	b8206822 	str	w2, [x1, x0]
    204e0e28:	d65f03c0 	ret

00000000204e0e2c <gicd_read_ipriorityr>:
    204e0e2c:	927e7421 	and	x1, x1, #0xfffffffc
    204e0e30:	91100000 	add	x0, x0, #0x400
    204e0e34:	b8606820 	ldr	w0, [x1, x0]
    204e0e38:	d65f03c0 	ret

00000000204e0e3c <gicd_write_ipriorityr>:
    204e0e3c:	927e7421 	and	x1, x1, #0xfffffffc
    204e0e40:	91100000 	add	x0, x0, #0x400
    204e0e44:	b8206822 	str	w2, [x1, x0]
    204e0e48:	d65f03c0 	ret

00000000204e0e4c <gicd_read_isactiver>:
    204e0e4c:	53057c21 	lsr	w1, w1, #5
    204e0e50:	910c0000 	add	x0, x0, #0x300
    204e0e54:	d37ef421 	lsl	x1, x1, #2
    204e0e58:	b8606820 	ldr	w0, [x1, x0]
    204e0e5c:	d65f03c0 	ret

00000000204e0e60 <gicd_write_isactiver>:
    204e0e60:	53057c21 	lsr	w1, w1, #5
    204e0e64:	910c0000 	add	x0, x0, #0x300
    204e0e68:	d37ef421 	lsl	x1, x1, #2
    204e0e6c:	b8206822 	str	w2, [x1, x0]
    204e0e70:	d65f03c0 	ret

00000000204e0e74 <gicd_read_isenabler>:
    204e0e74:	53057c21 	lsr	w1, w1, #5
    204e0e78:	91040000 	add	x0, x0, #0x100
    204e0e7c:	d37ef421 	lsl	x1, x1, #2
    204e0e80:	b8606820 	ldr	w0, [x1, x0]
    204e0e84:	d65f03c0 	ret

00000000204e0e88 <gicd_write_isenabler>:
    204e0e88:	53057c21 	lsr	w1, w1, #5
    204e0e8c:	91040000 	add	x0, x0, #0x100
    204e0e90:	d37ef421 	lsl	x1, x1, #2
    204e0e94:	b8206822 	str	w2, [x1, x0]
    204e0e98:	d65f03c0 	ret

00000000204e0e9c <gicd_read_ispendr>:
    204e0e9c:	53057c21 	lsr	w1, w1, #5
    204e0ea0:	91080000 	add	x0, x0, #0x200
    204e0ea4:	d37ef421 	lsl	x1, x1, #2
    204e0ea8:	b8606820 	ldr	w0, [x1, x0]
    204e0eac:	d65f03c0 	ret

00000000204e0eb0 <gicd_write_ispendr>:
    204e0eb0:	53057c21 	lsr	w1, w1, #5
    204e0eb4:	91080000 	add	x0, x0, #0x200
    204e0eb8:	d37ef421 	lsl	x1, x1, #2
    204e0ebc:	b8206822 	str	w2, [x1, x0]
    204e0ec0:	d65f03c0 	ret

00000000204e0ec4 <gicd_read_nsacr>:
    204e0ec4:	53047c21 	lsr	w1, w1, #4
    204e0ec8:	91380000 	add	x0, x0, #0xe00
    204e0ecc:	d37ef421 	lsl	x1, x1, #2
    204e0ed0:	b8606820 	ldr	w0, [x1, x0]
    204e0ed4:	d65f03c0 	ret

00000000204e0ed8 <gicd_write_nsacr>:
    204e0ed8:	53047c21 	lsr	w1, w1, #4
    204e0edc:	91380000 	add	x0, x0, #0xe00
    204e0ee0:	d37ef421 	lsl	x1, x1, #2
    204e0ee4:	b8206822 	str	w2, [x1, x0]
    204e0ee8:	d65f03c0 	ret

00000000204e0eec <gicr_write_ipriorityr>:
    204e0eec:	91404000 	add	x0, x0, #0x10, lsl #12
    204e0ef0:	927e7421 	and	x1, x1, #0xfffffffc
    204e0ef4:	91100000 	add	x0, x0, #0x400
    204e0ef8:	b8206822 	str	w2, [x1, x0]
    204e0efc:	d65f03c0 	ret

00000000204e0f00 <gicr_set_ipriorityr>:
    204e0f00:	91404000 	add	x0, x0, #0x10, lsl #12
    204e0f04:	2a0103e1 	mov	w1, w1
    204e0f08:	91100000 	add	x0, x0, #0x400
    204e0f0c:	12001c42 	and	w2, w2, #0xff
    204e0f10:	38216802 	strb	w2, [x0, x1]
    204e0f14:	d65f03c0 	ret

00000000204e0f18 <gicr_clr_igroupr>:
    204e0f18:	53057c23 	lsr	w3, w1, #5
    204e0f1c:	91404000 	add	x0, x0, #0x10, lsl #12
    204e0f20:	91020000 	add	x0, x0, #0x80
    204e0f24:	52800022 	mov	w2, #0x1                   	// #1
    204e0f28:	d37ef463 	lsl	x3, x3, #2
    204e0f2c:	1ac12041 	lsl	w1, w2, w1
    204e0f30:	b8606864 	ldr	w4, [x3, x0]
    204e0f34:	0a210081 	bic	w1, w4, w1
    204e0f38:	b8206861 	str	w1, [x3, x0]
    204e0f3c:	d65f03c0 	ret

00000000204e0f40 <gicr_set_igrpmodr>:
    204e0f40:	53057c23 	lsr	w3, w1, #5
    204e0f44:	91404000 	add	x0, x0, #0x10, lsl #12
    204e0f48:	91340000 	add	x0, x0, #0xd00
    204e0f4c:	52800022 	mov	w2, #0x1                   	// #1
    204e0f50:	d37ef463 	lsl	x3, x3, #2
    204e0f54:	1ac12041 	lsl	w1, w2, w1
    204e0f58:	b8606864 	ldr	w4, [x3, x0]
    204e0f5c:	2a040021 	orr	w1, w1, w4
    204e0f60:	b8206861 	str	w1, [x3, x0]
    204e0f64:	d65f03c0 	ret

00000000204e0f68 <gicr_clr_igrpmodr>:
    204e0f68:	53057c23 	lsr	w3, w1, #5
    204e0f6c:	91404000 	add	x0, x0, #0x10, lsl #12
    204e0f70:	91340000 	add	x0, x0, #0xd00
    204e0f74:	52800022 	mov	w2, #0x1                   	// #1
    204e0f78:	d37ef463 	lsl	x3, x3, #2
    204e0f7c:	1ac12041 	lsl	w1, w2, w1
    204e0f80:	b8606864 	ldr	w4, [x3, x0]
    204e0f84:	0a210081 	bic	w1, w4, w1
    204e0f88:	b8206861 	str	w1, [x3, x0]
    204e0f8c:	d65f03c0 	ret

00000000204e0f90 <gicr_set_isenabler>:
    204e0f90:	52800022 	mov	w2, #0x1                   	// #1
    204e0f94:	91404000 	add	x0, x0, #0x10, lsl #12
    204e0f98:	1ac12042 	lsl	w2, w2, w1
    204e0f9c:	53057c21 	lsr	w1, w1, #5
    204e0fa0:	91040000 	add	x0, x0, #0x100
    204e0fa4:	d37ef421 	lsl	x1, x1, #2
    204e0fa8:	b8206822 	str	w2, [x1, x0]
    204e0fac:	d65f03c0 	ret

00000000204e0fb0 <gicr_set_icfgr>:
    204e0fb0:	531f0c24 	ubfiz	w4, w1, #1, #4
    204e0fb4:	53047c21 	lsr	w1, w1, #4
    204e0fb8:	91404000 	add	x0, x0, #0x10, lsl #12
    204e0fbc:	12000442 	and	w2, w2, #0x3
    204e0fc0:	d37ef421 	lsl	x1, x1, #2
    204e0fc4:	91300000 	add	x0, x0, #0xc00
    204e0fc8:	52800063 	mov	w3, #0x3                   	// #3
    204e0fcc:	1ac42042 	lsl	w2, w2, w4
    204e0fd0:	1ac42063 	lsl	w3, w3, w4
    204e0fd4:	b8606825 	ldr	w5, [x1, x0]
    204e0fd8:	0a2300a3 	bic	w3, w5, w3
    204e0fdc:	2a020063 	orr	w3, w3, w2
    204e0fe0:	b8206823 	str	w3, [x1, x0]
    204e0fe4:	d65f03c0 	ret

00000000204e0fe8 <gicv3_rdistif_mark_core_awake>:
    204e0fe8:	b9401402 	ldr	w2, [x0, #20]
    204e0fec:	91005001 	add	x1, x0, #0x14
    204e0ff0:	36080202 	tbz	w2, #1, 204e1030 <gicv3_rdistif_mark_core_awake+0x48>
    204e0ff4:	37100062 	tbnz	w2, #2, 204e1000 <gicv3_rdistif_mark_core_awake+0x18>
    204e0ff8:	b9400022 	ldr	w2, [x1]
    204e0ffc:	17fffffe 	b	204e0ff4 <gicv3_rdistif_mark_core_awake+0xc>
    204e1000:	b9401402 	ldr	w2, [x0, #20]
    204e1004:	36f800c2 	tbz	w2, #31, 204e101c <gicv3_rdistif_mark_core_awake+0x34>
    204e1008:	b9401402 	ldr	w2, [x0, #20]
    204e100c:	121f7842 	and	w2, w2, #0xfffffffe
    204e1010:	b9001402 	str	w2, [x0, #20]
    204e1014:	b9400022 	ldr	w2, [x1]
    204e1018:	37ffffe2 	tbnz	w2, #31, 204e1014 <gicv3_rdistif_mark_core_awake+0x2c>
    204e101c:	b9401402 	ldr	w2, [x0, #20]
    204e1020:	121e7842 	and	w2, w2, #0xfffffffd
    204e1024:	b9001402 	str	w2, [x0, #20]
    204e1028:	b9400020 	ldr	w0, [x1]
    204e102c:	3717ffe0 	tbnz	w0, #2, 204e1028 <gicv3_rdistif_mark_core_awake+0x40>
    204e1030:	d65f03c0 	ret

00000000204e1034 <gicv3_rdistif_mark_core_asleep>:
    204e1034:	b9401401 	ldr	w1, [x0, #20]
    204e1038:	91005002 	add	x2, x0, #0x14
    204e103c:	321f0021 	orr	w1, w1, #0x2
    204e1040:	b9001401 	str	w1, [x0, #20]
    204e1044:	b9400040 	ldr	w0, [x2]
    204e1048:	3617ffe0 	tbz	w0, #2, 204e1044 <gicv3_rdistif_mark_core_asleep+0x10>
    204e104c:	d65f03c0 	ret

00000000204e1050 <gicv3_rdistif_base_addrs_probe>:
    204e1050:	a9bc7bfd 	stp	x29, x30, [sp, #-64]!
    204e1054:	910003fd 	mov	x29, sp
    204e1058:	a90153f3 	stp	x19, x20, [sp, #16]
    204e105c:	aa0203f3 	mov	x19, x2
    204e1060:	a9025bf5 	stp	x21, x22, [sp, #32]
    204e1064:	aa0003f6 	mov	x22, x0
    204e1068:	aa0303f5 	mov	x21, x3
    204e106c:	f9001bf7 	str	x23, [sp, #48]
    204e1070:	2a0103f7 	mov	w23, w1
    204e1074:	f9400674 	ldr	x20, [x19, #8]
    204e1078:	b40001f5 	cbz	x21, 204e10b4 <gicv3_rdistif_base_addrs_probe+0x64>
    204e107c:	d360de81 	ubfx	x1, x20, #32, #24
    204e1080:	d378fe80 	lsr	x0, x20, #56
    204e1084:	aa008020 	orr	x0, x1, x0, lsl #32
    204e1088:	d63f02a0 	blr	x21
    204e108c:	6b17001f 	cmp	w0, w23
    204e1090:	54000042 	b.cs	204e1098 <gicv3_rdistif_base_addrs_probe+0x48>  // b.hs, b.nlast
    204e1094:	f8205ad3 	str	x19, [x22, w0, uxtw #3]
    204e1098:	91408273 	add	x19, x19, #0x20, lsl #12
    204e109c:	3627fed4 	tbz	w20, #4, 204e1074 <gicv3_rdistif_base_addrs_probe+0x24>
    204e10a0:	a94153f3 	ldp	x19, x20, [sp, #16]
    204e10a4:	a9425bf5 	ldp	x21, x22, [sp, #32]
    204e10a8:	f9401bf7 	ldr	x23, [sp, #48]
    204e10ac:	a8c47bfd 	ldp	x29, x30, [sp], #64
    204e10b0:	d65f03c0 	ret
    204e10b4:	53085e80 	ubfx	w0, w20, #8, #16
    204e10b8:	17fffff5 	b	204e108c <gicv3_rdistif_base_addrs_probe+0x3c>

00000000204e10bc <gicv3_get_spi_limit>:
    204e10bc:	b9400400 	ldr	w0, [x0, #4]
    204e10c0:	52807f81 	mov	w1, #0x3fc                 	// #1020
    204e10c4:	531b1000 	ubfiz	w0, w0, #5, #5
    204e10c8:	11008000 	add	w0, w0, #0x20
    204e10cc:	710ff01f 	cmp	w0, #0x3fc
    204e10d0:	1a819000 	csel	w0, w0, w1, ls	// ls = plast
    204e10d4:	d65f03c0 	ret

00000000204e10d8 <gicv3_spis_config_defaults>:
    204e10d8:	a9bd7bfd 	stp	x29, x30, [sp, #-48]!
    204e10dc:	910003fd 	mov	x29, sp
    204e10e0:	a90153f3 	stp	x19, x20, [sp, #16]
    204e10e4:	aa0003f4 	mov	x20, x0
    204e10e8:	f90013f5 	str	x21, [sp, #32]
    204e10ec:	97fffff4 	bl	204e10bc <gicv3_get_spi_limit>
    204e10f0:	2a0003f3 	mov	w19, w0
    204e10f4:	52800415 	mov	w21, #0x20                  	// #32
    204e10f8:	6b1302bf 	cmp	w21, w19
    204e10fc:	54000163 	b.cc	204e1128 <gicv3_spis_config_defaults+0x50>  // b.lo, b.ul, b.last
    204e1100:	52800415 	mov	w21, #0x20                  	// #32
    204e1104:	6b1302bf 	cmp	w21, w19
    204e1108:	540001c3 	b.cc	204e1140 <gicv3_spis_config_defaults+0x68>  // b.lo, b.ul, b.last
    204e110c:	52800415 	mov	w21, #0x20                  	// #32
    204e1110:	6b1302bf 	cmp	w21, w19
    204e1114:	54000223 	b.cc	204e1158 <gicv3_spis_config_defaults+0x80>  // b.lo, b.ul, b.last
    204e1118:	a94153f3 	ldp	x19, x20, [sp, #16]
    204e111c:	f94013f5 	ldr	x21, [sp, #32]
    204e1120:	a8c37bfd 	ldp	x29, x30, [sp], #48
    204e1124:	d65f03c0 	ret
    204e1128:	2a1503e1 	mov	w1, w21
    204e112c:	aa1403e0 	mov	x0, x20
    204e1130:	12800002 	mov	w2, #0xffffffff            	// #-1
    204e1134:	110082b5 	add	w21, w21, #0x20
    204e1138:	97ffff2e 	bl	204e0df0 <gicd_write_igroupr>
    204e113c:	17ffffef 	b	204e10f8 <gicv3_spis_config_defaults+0x20>
    204e1140:	2a1503e1 	mov	w1, w21
    204e1144:	aa1403e0 	mov	x0, x20
    204e1148:	3201c3e2 	mov	w2, #0x80808080            	// #-2139062144
    204e114c:	110012b5 	add	w21, w21, #0x4
    204e1150:	97ffff3b 	bl	204e0e3c <gicd_write_ipriorityr>
    204e1154:	17ffffec 	b	204e1104 <gicv3_spis_config_defaults+0x2c>
    204e1158:	2a1503e1 	mov	w1, w21
    204e115c:	aa1403e0 	mov	x0, x20
    204e1160:	52800002 	mov	w2, #0x0                   	// #0
    204e1164:	110042b5 	add	w21, w21, #0x10
    204e1168:	97ffff18 	bl	204e0dc8 <gicd_write_icfgr>
    204e116c:	17ffffe9 	b	204e1110 <gicv3_spis_config_defaults+0x38>

00000000204e1170 <gicv3_secure_spis_config_props>:
    204e1170:	a9bb7bfd 	stp	x29, x30, [sp, #-80]!
    204e1174:	910003fd 	mov	x29, sp
    204e1178:	a90153f3 	stp	x19, x20, [sp, #16]
    204e117c:	aa0103f3 	mov	x19, x1
    204e1180:	a9025bf5 	stp	x21, x22, [sp, #32]
    204e1184:	aa0003f5 	mov	x21, x0
    204e1188:	52800016 	mov	w22, #0x0                   	// #0
    204e118c:	a90363f7 	stp	x23, x24, [sp, #48]
    204e1190:	b2409ff8 	mov	x24, #0xffffffffff          	// #1099511627775
    204e1194:	8b224837 	add	x23, x1, w2, uxtw #2
    204e1198:	f90023f9 	str	x25, [sp, #64]
    204e119c:	91401819 	add	x25, x0, #0x6, lsl #12
    204e11a0:	f2a01ff8 	movk	x24, #0xff, lsl #16
    204e11a4:	eb17027f 	cmp	x19, x23
    204e11a8:	54000101 	b.ne	204e11c8 <gicv3_secure_spis_config_props+0x58>  // b.any
    204e11ac:	a94153f3 	ldp	x19, x20, [sp, #16]
    204e11b0:	2a1603e0 	mov	w0, w22
    204e11b4:	a9425bf5 	ldp	x21, x22, [sp, #32]
    204e11b8:	a94363f7 	ldp	x23, x24, [sp, #48]
    204e11bc:	f94023f9 	ldr	x25, [sp, #64]
    204e11c0:	a8c57bfd 	ldp	x29, x30, [sp], #80
    204e11c4:	d65f03c0 	ret
    204e11c8:	b9400274 	ldr	w20, [x19]
    204e11cc:	12003294 	and	w20, w20, #0x1fff
    204e11d0:	51008280 	sub	w0, w20, #0x20
    204e11d4:	710f6c1f 	cmp	w0, #0x3db
    204e11d8:	54000388 	b.hi	204e1248 <gicv3_secure_spis_config_props+0xd8>  // b.pmore
    204e11dc:	2a1403e1 	mov	w1, w20
    204e11e0:	aa1503e0 	mov	x0, x21
    204e11e4:	97fffecd 	bl	204e0d18 <gicd_clr_igroupr>
    204e11e8:	b9400260 	ldr	w0, [x19]
    204e11ec:	2a1403e1 	mov	w1, w20
    204e11f0:	720b041f 	tst	w0, #0x600000
    204e11f4:	aa1503e0 	mov	x0, x21
    204e11f8:	540002c1 	b.ne	204e1250 <gicv3_secure_spis_config_props+0xe0>  // b.any
    204e11fc:	321e02d6 	orr	w22, w22, #0x4
    204e1200:	97fffecf 	bl	204e0d3c <gicd_set_igrpmodr>
    204e1204:	b9400262 	ldr	w2, [x19]
    204e1208:	2a1403e1 	mov	w1, w20
    204e120c:	aa1503e0 	mov	x0, x21
    204e1210:	d3576042 	ubfx	x2, x2, #23, #2
    204e1214:	97fffeb4 	bl	204e0ce4 <gicd_set_icfgr>
    204e1218:	b9400262 	ldr	w2, [x19]
    204e121c:	2a1403e1 	mov	w1, w20
    204e1220:	aa1503e0 	mov	x0, x21
    204e1224:	d34d5042 	ubfx	x2, x2, #13, #8
    204e1228:	97fffede 	bl	204e0da0 <gicd_set_ipriorityr>
    204e122c:	d53800a0 	mrs	x0, mpidr_el1
    204e1230:	d37d3281 	ubfiz	x1, x20, #3, #13
    204e1234:	8a180000 	and	x0, x0, x24
    204e1238:	f8216b20 	str	x0, [x25, x1]
    204e123c:	2a1403e1 	mov	w1, w20
    204e1240:	aa1503e0 	mov	x0, x21
    204e1244:	97fffed0 	bl	204e0d84 <gicd_set_isenabler>
    204e1248:	91001273 	add	x19, x19, #0x4
    204e124c:	17ffffd6 	b	204e11a4 <gicv3_secure_spis_config_props+0x34>
    204e1250:	320002d6 	orr	w22, w22, #0x1
    204e1254:	97fffec3 	bl	204e0d60 <gicd_clr_igrpmodr>
    204e1258:	17ffffeb 	b	204e1204 <gicv3_secure_spis_config_props+0x94>

00000000204e125c <gicv3_ppi_sgi_config_defaults>:
    204e125c:	a9be7bfd 	stp	x29, x30, [sp, #-32]!
    204e1260:	12800001 	mov	w1, #0xffffffff            	// #-1
    204e1264:	910003fd 	mov	x29, sp
    204e1268:	a90153f3 	stp	x19, x20, [sp, #16]
    204e126c:	aa0003f3 	mov	x19, x0
    204e1270:	d2803000 	mov	x0, #0x180                 	// #384
    204e1274:	f2a00020 	movk	x0, #0x1, lsl #16
    204e1278:	b8206a61 	str	w1, [x19, x0]
    204e127c:	b9400260 	ldr	w0, [x19]
    204e1280:	121d0014 	and	w20, w0, #0x8
    204e1284:	371fffc0 	tbnz	w0, #3, 204e127c <gicv3_ppi_sgi_config_defaults+0x20>
    204e1288:	d2801000 	mov	x0, #0x80                  	// #128
    204e128c:	12800001 	mov	w1, #0xffffffff            	// #-1
    204e1290:	f2a00020 	movk	x0, #0x1, lsl #16
    204e1294:	b8206a61 	str	w1, [x19, x0]
    204e1298:	2a1403e1 	mov	w1, w20
    204e129c:	aa1303e0 	mov	x0, x19
    204e12a0:	3201c3e2 	mov	w2, #0x80808080            	// #-2139062144
    204e12a4:	11001294 	add	w20, w20, #0x4
    204e12a8:	97ffff11 	bl	204e0eec <gicr_write_ipriorityr>
    204e12ac:	7100829f 	cmp	w20, #0x20
    204e12b0:	54ffff41 	b.ne	204e1298 <gicv3_ppi_sgi_config_defaults+0x3c>  // b.any
    204e12b4:	d2818080 	mov	x0, #0xc04                 	// #3076
    204e12b8:	f2a00020 	movk	x0, #0x1, lsl #16
    204e12bc:	b8206a7f 	str	wzr, [x19, x0]
    204e12c0:	a94153f3 	ldp	x19, x20, [sp, #16]
    204e12c4:	a8c27bfd 	ldp	x29, x30, [sp], #32
    204e12c8:	d65f03c0 	ret

00000000204e12cc <gicv3_secure_ppi_sgi_config_props>:
    204e12cc:	a9bc7bfd 	stp	x29, x30, [sp, #-64]!
    204e12d0:	910003fd 	mov	x29, sp
    204e12d4:	a90153f3 	stp	x19, x20, [sp, #16]
    204e12d8:	aa0103f3 	mov	x19, x1
    204e12dc:	a9025bf5 	stp	x21, x22, [sp, #32]
    204e12e0:	aa0003f5 	mov	x21, x0
    204e12e4:	52800016 	mov	w22, #0x0                   	// #0
    204e12e8:	f9001bf7 	str	x23, [sp, #48]
    204e12ec:	8b224837 	add	x23, x1, w2, uxtw #2
    204e12f0:	eb17027f 	cmp	x19, x23
    204e12f4:	540000e1 	b.ne	204e1310 <gicv3_secure_ppi_sgi_config_props+0x44>  // b.any
    204e12f8:	a94153f3 	ldp	x19, x20, [sp, #16]
    204e12fc:	2a1603e0 	mov	w0, w22
    204e1300:	a9425bf5 	ldp	x21, x22, [sp, #32]
    204e1304:	f9401bf7 	ldr	x23, [sp, #48]
    204e1308:	a8c47bfd 	ldp	x29, x30, [sp], #64
    204e130c:	d65f03c0 	ret
    204e1310:	b9400274 	ldr	w20, [x19]
    204e1314:	12003294 	and	w20, w20, #0x1fff
    204e1318:	71007e9f 	cmp	w20, #0x1f
    204e131c:	54000348 	b.hi	204e1384 <gicv3_secure_ppi_sgi_config_props+0xb8>  // b.pmore
    204e1320:	2a1403e1 	mov	w1, w20
    204e1324:	aa1503e0 	mov	x0, x21
    204e1328:	97fffefc 	bl	204e0f18 <gicr_clr_igroupr>
    204e132c:	b9400260 	ldr	w0, [x19]
    204e1330:	2a1403e1 	mov	w1, w20
    204e1334:	720b041f 	tst	w0, #0x600000
    204e1338:	aa1503e0 	mov	x0, x21
    204e133c:	54000281 	b.ne	204e138c <gicv3_secure_ppi_sgi_config_props+0xc0>  // b.any
    204e1340:	321e02d6 	orr	w22, w22, #0x4
    204e1344:	97fffeff 	bl	204e0f40 <gicr_set_igrpmodr>
    204e1348:	b9400262 	ldr	w2, [x19]
    204e134c:	2a1403e1 	mov	w1, w20
    204e1350:	aa1503e0 	mov	x0, x21
    204e1354:	d34d5042 	ubfx	x2, x2, #13, #8
    204e1358:	97fffeea 	bl	204e0f00 <gicr_set_ipriorityr>
    204e135c:	71003e9f 	cmp	w20, #0xf
    204e1360:	540000c9 	b.ls	204e1378 <gicv3_secure_ppi_sgi_config_props+0xac>  // b.plast
    204e1364:	b9400262 	ldr	w2, [x19]
    204e1368:	2a1403e1 	mov	w1, w20
    204e136c:	aa1503e0 	mov	x0, x21
    204e1370:	d3576042 	ubfx	x2, x2, #23, #2
    204e1374:	97ffff0f 	bl	204e0fb0 <gicr_set_icfgr>
    204e1378:	2a1403e1 	mov	w1, w20
    204e137c:	aa1503e0 	mov	x0, x21
    204e1380:	97ffff04 	bl	204e0f90 <gicr_set_isenabler>
    204e1384:	91001273 	add	x19, x19, #0x4
    204e1388:	17ffffda 	b	204e12f0 <gicv3_secure_ppi_sgi_config_props+0x24>
    204e138c:	320002d6 	orr	w22, w22, #0x1
    204e1390:	97fffef6 	bl	204e0f68 <gicr_clr_igrpmodr>
    204e1394:	17ffffed 	b	204e1348 <gicv3_secure_ppi_sgi_config_props+0x7c>

00000000204e1398 <gicv3_get_component_prodid_rev>:
    204e1398:	b9400800 	ldr	w0, [x0, #8]
    204e139c:	53187c03 	lsr	w3, w0, #24
    204e13a0:	b9000023 	str	w3, [x1]
    204e13a4:	530c7c00 	lsr	w0, w0, #12
    204e13a8:	39000040 	strb	w0, [x2]
    204e13ac:	d65f03c0 	ret

00000000204e13b0 <gicd_wait_for_pending_write>:
    204e13b0:	b9400001 	ldr	w1, [x0]
    204e13b4:	37ffffe1 	tbnz	w1, #31, 204e13b0 <gicd_wait_for_pending_write>
    204e13b8:	d65f03c0 	ret

00000000204e13bc <gicr_wait_for_pending_write>:
    204e13bc:	b9400001 	ldr	w1, [x0]
    204e13c0:	371fffe1 	tbnz	w1, #3, 204e13bc <gicr_wait_for_pending_write>
    204e13c4:	d65f03c0 	ret

00000000204e13c8 <gicv3_driver_init>:
    204e13c8:	a9be7bfd 	stp	x29, x30, [sp, #-32]!
    204e13cc:	d29ffd01 	mov	x1, #0xffe8                	// #65512
    204e13d0:	910003fd 	mov	x29, sp
    204e13d4:	f9000bf3 	str	x19, [sp, #16]
    204e13d8:	aa0003f3 	mov	x19, x0
    204e13dc:	f9400000 	ldr	x0, [x0]
    204e13e0:	f9400662 	ldr	x2, [x19, #8]
    204e13e4:	b8616801 	ldr	w1, [x0, x1]
    204e13e8:	b9400000 	ldr	w0, [x0]
    204e13ec:	b4000082 	cbz	x2, 204e13fc <gicv3_driver_init+0x34>
    204e13f0:	a9420e60 	ldp	x0, x3, [x19, #32]
    204e13f4:	b9401e61 	ldr	w1, [x19, #28]
    204e13f8:	97ffff16 	bl	204e1050 <gicv3_rdistif_base_addrs_probe>
    204e13fc:	90000060 	adrp	x0, 204ed000 <__STACKS_START__+0x1280>
    204e1400:	f9020413 	str	x19, [x0, #1032]
    204e1404:	f9400260 	ldr	x0, [x19]
    204e1408:	f9400bf3 	ldr	x19, [sp, #16]
    204e140c:	a8c27bfd 	ldp	x29, x30, [sp], #32
    204e1410:	17fffe20 	b	204e0c90 <gicv3_check_erratas_applies>

00000000204e1414 <gicv3_distif_init>:
    204e1414:	a9be7bfd 	stp	x29, x30, [sp, #-32]!
    204e1418:	910003fd 	mov	x29, sp
    204e141c:	f9000bf3 	str	x19, [sp, #16]
    204e1420:	90000073 	adrp	x19, 204ed000 <__STACKS_START__+0x1280>
    204e1424:	f9420660 	ldr	x0, [x19, #1032]
    204e1428:	f9400000 	ldr	x0, [x0]
    204e142c:	b9400001 	ldr	w1, [x0]
    204e1430:	121d7021 	and	w1, w1, #0xfffffff8
    204e1434:	b9000001 	str	w1, [x0]
    204e1438:	97ffffde 	bl	204e13b0 <gicd_wait_for_pending_write>
    204e143c:	b9400001 	ldr	w1, [x0]
    204e1440:	321c0421 	orr	w1, w1, #0x30
    204e1444:	b9000001 	str	w1, [x0]
    204e1448:	97ffffda 	bl	204e13b0 <gicd_wait_for_pending_write>
    204e144c:	97ffff23 	bl	204e10d8 <gicv3_spis_config_defaults>
    204e1450:	f9420660 	ldr	x0, [x19, #1032]
    204e1454:	f9400801 	ldr	x1, [x0, #16]
    204e1458:	b9401802 	ldr	w2, [x0, #24]
    204e145c:	f9400000 	ldr	x0, [x0]
    204e1460:	97ffff44 	bl	204e1170 <gicv3_secure_spis_config_props>
    204e1464:	f9420661 	ldr	x1, [x19, #1032]
    204e1468:	f9400bf3 	ldr	x19, [sp, #16]
    204e146c:	f9400021 	ldr	x1, [x1]
    204e1470:	b9400022 	ldr	w2, [x1]
    204e1474:	2a020000 	orr	w0, w0, w2
    204e1478:	b9000020 	str	w0, [x1]
    204e147c:	aa0103e0 	mov	x0, x1
    204e1480:	a8c27bfd 	ldp	x29, x30, [sp], #32
    204e1484:	17ffffcb 	b	204e13b0 <gicd_wait_for_pending_write>

00000000204e1488 <gicv3_rdistif_init>:
    204e1488:	a9bd7bfd 	stp	x29, x30, [sp, #-48]!
    204e148c:	910003fd 	mov	x29, sp
    204e1490:	a90153f3 	stp	x19, x20, [sp, #16]
    204e1494:	90000073 	adrp	x19, 204ed000 <__STACKS_START__+0x1280>
    204e1498:	2a0003f4 	mov	w20, w0
    204e149c:	f9420661 	ldr	x1, [x19, #1032]
    204e14a0:	f9400021 	ldr	x1, [x1]
    204e14a4:	f90013f5 	str	x21, [sp, #32]
    204e14a8:	b9400035 	ldr	w21, [x1]
    204e14ac:	97fffde0 	bl	204e0c2c <gicv3_rdistif_on>
    204e14b0:	f9420660 	ldr	x0, [x19, #1032]
    204e14b4:	f9401000 	ldr	x0, [x0, #32]
    204e14b8:	f8745814 	ldr	x20, [x0, w20, uxtw #3]
    204e14bc:	aa1403e0 	mov	x0, x20
    204e14c0:	97ffff67 	bl	204e125c <gicv3_ppi_sgi_config_defaults>
    204e14c4:	f9420660 	ldr	x0, [x19, #1032]
    204e14c8:	f9400801 	ldr	x1, [x0, #16]
    204e14cc:	b9401802 	ldr	w2, [x0, #24]
    204e14d0:	aa1403e0 	mov	x0, x20
    204e14d4:	97ffff7e 	bl	204e12cc <gicv3_secure_ppi_sgi_config_props>
    204e14d8:	6a35001f 	bics	wzr, w0, w21
    204e14dc:	54000160 	b.eq	204e1508 <gicv3_rdistif_init+0x80>  // b.none
    204e14e0:	2a0003e1 	mov	w1, w0
    204e14e4:	f9420660 	ldr	x0, [x19, #1032]
    204e14e8:	a94153f3 	ldp	x19, x20, [sp, #16]
    204e14ec:	f9400000 	ldr	x0, [x0]
    204e14f0:	f94013f5 	ldr	x21, [sp, #32]
    204e14f4:	b9400002 	ldr	w2, [x0]
    204e14f8:	2a020021 	orr	w1, w1, w2
    204e14fc:	b9000001 	str	w1, [x0]
    204e1500:	a8c37bfd 	ldp	x29, x30, [sp], #48
    204e1504:	17ffffab 	b	204e13b0 <gicd_wait_for_pending_write>
    204e1508:	a94153f3 	ldp	x19, x20, [sp, #16]
    204e150c:	f94013f5 	ldr	x21, [sp, #32]
    204e1510:	a8c37bfd 	ldp	x29, x30, [sp], #48
    204e1514:	d65f03c0 	ret

00000000204e1518 <gicv3_cpuif_enable>:
    204e1518:	a9bf7bfd 	stp	x29, x30, [sp, #-16]!
    204e151c:	90000061 	adrp	x1, 204ed000 <__STACKS_START__+0x1280>
    204e1520:	910003fd 	mov	x29, sp
    204e1524:	f9420421 	ldr	x1, [x1, #1032]
    204e1528:	f9401021 	ldr	x1, [x1, #32]
    204e152c:	f8605820 	ldr	x0, [x1, w0, uxtw #3]
    204e1530:	97fffeae 	bl	204e0fe8 <gicv3_rdistif_mark_core_awake>
    204e1534:	d53ecca0 	mrs	x0, icc_sre_el3
    204e1538:	b2400c00 	orr	x0, x0, #0xf
    204e153c:	d51ecca0 	msr	icc_sre_el3, x0
    204e1540:	d53e1100 	mrs	x0, scr_el3
    204e1544:	b2400001 	orr	x1, x0, #0x1
    204e1548:	d51e1101 	msr	scr_el3, x1
    204e154c:	d5033fdf 	isb
    204e1550:	d53cc9a1 	mrs	x1, icc_sre_el2
    204e1554:	b2400c21 	orr	x1, x1, #0xf
    204e1558:	d51cc9a1 	msr	icc_sre_el2, x1
    204e155c:	d2800021 	mov	x1, #0x1                   	// #1
    204e1560:	d518cca1 	msr	icc_sre_el1, x1
    204e1564:	d5033fdf 	isb
    204e1568:	927ff802 	and	x2, x0, #0xfffffffffffffffe
    204e156c:	d51e1102 	msr	scr_el3, x2
    204e1570:	d5033fdf 	isb
    204e1574:	d518cca1 	msr	icc_sre_el1, x1
    204e1578:	d5033fdf 	isb
    204e157c:	d2801fe2 	mov	x2, #0xff                  	// #255
    204e1580:	d5184602 	msr	icc_pmr_el1, x2
    204e1584:	d518ccc1 	msr	icc_igrpen0_el1, x1
    204e1588:	d53ecce1 	mrs	x1, icc_igrpen1_el3
    204e158c:	b27f0021 	orr	x1, x1, #0x2
    204e1590:	d51ecce1 	msr	icc_igrpen1_el3, x1
    204e1594:	d51e1100 	msr	scr_el3, x0
    204e1598:	d5033fdf 	isb
    204e159c:	d5033f9f 	dsb	sy
    204e15a0:	a8c17bfd 	ldp	x29, x30, [sp], #16
    204e15a4:	d65f03c0 	ret

00000000204e15a8 <gicv3_cpuif_disable>:
    204e15a8:	a9be7bfd 	stp	x29, x30, [sp, #-32]!
    204e15ac:	910003fd 	mov	x29, sp
    204e15b0:	f9000bf3 	str	x19, [sp, #16]
    204e15b4:	d53ecca1 	mrs	x1, icc_sre_el3
    204e15b8:	b27f0421 	orr	x1, x1, #0x6
    204e15bc:	d51ecca1 	msr	icc_sre_el3, x1
    204e15c0:	d538ccc1 	mrs	x1, icc_igrpen0_el1
    204e15c4:	927f7821 	and	x1, x1, #0xfffffffe
    204e15c8:	d518ccc1 	msr	icc_igrpen0_el1, x1
    204e15cc:	d53ecce1 	mrs	x1, icc_igrpen1_el3
    204e15d0:	927e7421 	and	x1, x1, #0xfffffffc
    204e15d4:	d51ecce1 	msr	icc_igrpen1_el3, x1
    204e15d8:	d5033fdf 	isb
    204e15dc:	d5033f9f 	dsb	sy
    204e15e0:	90000061 	adrp	x1, 204ed000 <__STACKS_START__+0x1280>
    204e15e4:	f9420421 	ldr	x1, [x1, #1032]
    204e15e8:	f9401021 	ldr	x1, [x1, #32]
    204e15ec:	f8605833 	ldr	x19, [x1, w0, uxtw #3]
    204e15f0:	aa1303e0 	mov	x0, x19
    204e15f4:	97fffd9e 	bl	204e0c6c <gicv3_apply_errata_wa_2384374>
    204e15f8:	aa1303e0 	mov	x0, x19
    204e15fc:	f9400bf3 	ldr	x19, [sp, #16]
    204e1600:	a8c27bfd 	ldp	x29, x30, [sp], #32
    204e1604:	17fffe8c 	b	204e1034 <gicv3_rdistif_mark_core_asleep>

00000000204e1608 <gicv3_get_pending_interrupt_type>:
    204e1608:	d538c840 	mrs	x0, icc_hppir0_el1
    204e160c:	12005c00 	and	w0, w0, #0xffffff
    204e1610:	d65f03c0 	ret

00000000204e1614 <gicv3_rdistif_save>:
    204e1614:	a9bf7bfd 	stp	x29, x30, [sp, #-16]!
    204e1618:	2a0003e3 	mov	w3, w0
    204e161c:	90000060 	adrp	x0, 204ed000 <__STACKS_START__+0x1280>
    204e1620:	910003fd 	mov	x29, sp
    204e1624:	f9420400 	ldr	x0, [x0, #1032]
    204e1628:	aa0103e2 	mov	x2, x1
    204e162c:	f9401000 	ldr	x0, [x0, #32]
    204e1630:	f8635800 	ldr	x0, [x0, w3, uxtw #3]
    204e1634:	97ffff62 	bl	204e13bc <gicr_wait_for_pending_write>
    204e1638:	b9400001 	ldr	w1, [x0]
    204e163c:	b9001041 	str	w1, [x2, #16]
    204e1640:	f9403801 	ldr	x1, [x0, #112]
    204e1644:	f9000041 	str	x1, [x2]
    204e1648:	f9403c01 	ldr	x1, [x0, #120]
    204e164c:	f9000441 	str	x1, [x2, #8]
    204e1650:	d2801001 	mov	x1, #0x80                  	// #128
    204e1654:	f2a00021 	movk	x1, #0x1, lsl #16
    204e1658:	b8616804 	ldr	w4, [x0, x1]
    204e165c:	91020021 	add	x1, x1, #0x80
    204e1660:	b9001444 	str	w4, [x2, #20]
    204e1664:	b8616804 	ldr	w4, [x0, x1]
    204e1668:	b9001844 	str	w4, [x2, #24]
    204e166c:	91040024 	add	x4, x1, #0x100
    204e1670:	b8646804 	ldr	w4, [x0, x4]
    204e1674:	b9001c44 	str	w4, [x2, #28]
    204e1678:	91080024 	add	x4, x1, #0x200
    204e167c:	b8646804 	ldr	w4, [x0, x4]
    204e1680:	b9002044 	str	w4, [x2, #32]
    204e1684:	91300024 	add	x4, x1, #0xc00
    204e1688:	b8646804 	ldr	w4, [x0, x4]
    204e168c:	b9004c44 	str	w4, [x2, #76]
    204e1690:	912c0024 	add	x4, x1, #0xb00
    204e1694:	b8646804 	ldr	w4, [x0, x4]
    204e1698:	b9004444 	str	w4, [x2, #68]
    204e169c:	912c1024 	add	x4, x1, #0xb04
    204e16a0:	91340021 	add	x1, x1, #0xd00
    204e16a4:	b8646804 	ldr	w4, [x0, x4]
    204e16a8:	b9004844 	str	w4, [x2, #72]
    204e16ac:	91404004 	add	x4, x0, #0x10, lsl #12
    204e16b0:	91108084 	add	x4, x4, #0x420
    204e16b4:	b8616801 	ldr	w1, [x0, x1]
    204e16b8:	b9005041 	str	w1, [x2, #80]
    204e16bc:	cb000042 	sub	x2, x2, x0
    204e16c0:	91404001 	add	x1, x0, #0x10, lsl #12
    204e16c4:	d1404042 	sub	x2, x2, #0x10, lsl #12
    204e16c8:	91100021 	add	x1, x1, #0x400
    204e16cc:	d10f7042 	sub	x2, x2, #0x3dc
    204e16d0:	b9400020 	ldr	w0, [x1]
    204e16d4:	b8216840 	str	w0, [x2, x1]
    204e16d8:	91001021 	add	x1, x1, #0x4
    204e16dc:	eb04003f 	cmp	x1, x4
    204e16e0:	54ffff81 	b.ne	204e16d0 <gicv3_rdistif_save+0xbc>  // b.any
    204e16e4:	a8c17bfd 	ldp	x29, x30, [sp], #16
    204e16e8:	2a0303e0 	mov	w0, w3
    204e16ec:	17fffd4e 	b	204e0c24 <gicv3_distif_pre_save>

00000000204e16f0 <gicv3_rdistif_init_restore>:
    204e16f0:	a9bd7bfd 	stp	x29, x30, [sp, #-48]!
    204e16f4:	910003fd 	mov	x29, sp
    204e16f8:	a90153f3 	stp	x19, x20, [sp, #16]
    204e16fc:	aa0103f4 	mov	x20, x1
    204e1700:	90000061 	adrp	x1, 204ed000 <__STACKS_START__+0x1280>
    204e1704:	f9420421 	ldr	x1, [x1, #1032]
    204e1708:	f9401021 	ldr	x1, [x1, #32]
    204e170c:	f90013f5 	str	x21, [sp, #32]
    204e1710:	2a0003f5 	mov	w21, w0
    204e1714:	f8755833 	ldr	x19, [x1, w21, uxtw #3]
    204e1718:	97fffd45 	bl	204e0c2c <gicv3_rdistif_on>
    204e171c:	2a1503e0 	mov	w0, w21
    204e1720:	97fffd42 	bl	204e0c28 <gicv3_distif_post_restore>
    204e1724:	d2803002 	mov	x2, #0x180                 	// #384
    204e1728:	12800000 	mov	w0, #0xffffffff            	// #-1
    204e172c:	f2a00022 	movk	x2, #0x1, lsl #16
    204e1730:	b8226a60 	str	w0, [x19, x2]
    204e1734:	aa1303e0 	mov	x0, x19
    204e1738:	d1040042 	sub	x2, x2, #0x100
    204e173c:	97ffff20 	bl	204e13bc <gicr_wait_for_pending_write>
    204e1740:	b9401281 	ldr	w1, [x20, #16]
    204e1744:	121f7821 	and	w1, w1, #0xfffffffe
    204e1748:	b9000261 	str	w1, [x19]
    204e174c:	97ffff1c 	bl	204e13bc <gicr_wait_for_pending_write>
    204e1750:	f9400280 	ldr	x0, [x20]
    204e1754:	f9003a60 	str	x0, [x19, #112]
    204e1758:	cb130281 	sub	x1, x20, x19
    204e175c:	f9400680 	ldr	x0, [x20, #8]
    204e1760:	f9003e60 	str	x0, [x19, #120]
    204e1764:	b9401680 	ldr	w0, [x20, #20]
    204e1768:	d1404021 	sub	x1, x1, #0x10, lsl #12
    204e176c:	b8226a60 	str	w0, [x19, x2]
    204e1770:	91320042 	add	x2, x2, #0xc80
    204e1774:	d10f7021 	sub	x1, x1, #0x3dc
    204e1778:	b9404e80 	ldr	w0, [x20, #76]
    204e177c:	b8226a60 	str	w0, [x19, x2]
    204e1780:	91404260 	add	x0, x19, #0x10, lsl #12
    204e1784:	91404262 	add	x2, x19, #0x10, lsl #12
    204e1788:	91100000 	add	x0, x0, #0x400
    204e178c:	91108042 	add	x2, x2, #0x420
    204e1790:	b8606823 	ldr	w3, [x1, x0]
    204e1794:	b8004403 	str	w3, [x0], #4
    204e1798:	eb02001f 	cmp	x0, x2
    204e179c:	54ffffa1 	b.ne	204e1790 <gicv3_rdistif_init_restore+0xa0>  // b.any
    204e17a0:	d2818002 	mov	x2, #0xc00                 	// #3072
    204e17a4:	b9404680 	ldr	w0, [x20, #68]
    204e17a8:	f2a00022 	movk	x2, #0x1, lsl #16
    204e17ac:	b8226a60 	str	w0, [x19, x2]
    204e17b0:	91001042 	add	x2, x2, #0x4
    204e17b4:	b9404a80 	ldr	w0, [x20, #72]
    204e17b8:	b8226a60 	str	w0, [x19, x2]
    204e17bc:	9107f040 	add	x0, x2, #0x1fc
    204e17c0:	b9405281 	ldr	w1, [x20, #80]
    204e17c4:	b8206a61 	str	w1, [x19, x0]
    204e17c8:	d1281040 	sub	x0, x2, #0xa04
    204e17cc:	b9401e81 	ldr	w1, [x20, #28]
    204e17d0:	b8206a61 	str	w1, [x19, x0]
    204e17d4:	d1241040 	sub	x0, x2, #0x904
    204e17d8:	d12c1042 	sub	x2, x2, #0xb04
    204e17dc:	b9402281 	ldr	w1, [x20, #32]
    204e17e0:	b8206a61 	str	w1, [x19, x0]
    204e17e4:	aa1303e0 	mov	x0, x19
    204e17e8:	97fffef2 	bl	204e13b0 <gicd_wait_for_pending_write>
    204e17ec:	b9401a81 	ldr	w1, [x20, #24]
    204e17f0:	b8226a61 	str	w1, [x19, x2]
    204e17f4:	f94013f5 	ldr	x21, [sp, #32]
    204e17f8:	b9401281 	ldr	w1, [x20, #16]
    204e17fc:	a94153f3 	ldp	x19, x20, [sp, #16]
    204e1800:	b9000001 	str	w1, [x0]
    204e1804:	a8c37bfd 	ldp	x29, x30, [sp], #48
    204e1808:	17fffeed 	b	204e13bc <gicr_wait_for_pending_write>

00000000204e180c <gicv3_distif_save>:
    204e180c:	a9bd7bfd 	stp	x29, x30, [sp, #-48]!
    204e1810:	910003fd 	mov	x29, sp
    204e1814:	a90153f3 	stp	x19, x20, [sp, #16]
    204e1818:	aa0003f4 	mov	x20, x0
    204e181c:	90000060 	adrp	x0, 204ed000 <__STACKS_START__+0x1280>
    204e1820:	a9025bf5 	stp	x21, x22, [sp, #32]
    204e1824:	52800416 	mov	w22, #0x20                  	// #32
    204e1828:	f9420400 	ldr	x0, [x0, #1032]
    204e182c:	f9400013 	ldr	x19, [x0]
    204e1830:	aa1303e0 	mov	x0, x19
    204e1834:	97fffe22 	bl	204e10bc <gicv3_get_spi_limit>
    204e1838:	2a0003f5 	mov	w21, w0
    204e183c:	aa1303e0 	mov	x0, x19
    204e1840:	97fffedc 	bl	204e13b0 <gicd_wait_for_pending_write>
    204e1844:	b9400260 	ldr	w0, [x19]
    204e1848:	b91ee280 	str	w0, [x20, #7904]
    204e184c:	6b1502df 	cmp	w22, w21
    204e1850:	54000403 	b.cc	204e18d0 <gicv3_distif_save+0xc4>  // b.lo, b.ul, b.last
    204e1854:	52800416 	mov	w22, #0x20                  	// #32
    204e1858:	6b1502df 	cmp	w22, w21
    204e185c:	540004c3 	b.cc	204e18f4 <gicv3_distif_save+0xe8>  // b.lo, b.ul, b.last
    204e1860:	52800416 	mov	w22, #0x20                  	// #32
    204e1864:	6b1502df 	cmp	w22, w21
    204e1868:	54000583 	b.cc	204e1918 <gicv3_distif_save+0x10c>  // b.lo, b.ul, b.last
    204e186c:	52800416 	mov	w22, #0x20                  	// #32
    204e1870:	6b1502df 	cmp	w22, w21
    204e1874:	54000643 	b.cc	204e193c <gicv3_distif_save+0x130>  // b.lo, b.ul, b.last
    204e1878:	52800416 	mov	w22, #0x20                  	// #32
    204e187c:	6b1502df 	cmp	w22, w21
    204e1880:	54000703 	b.cc	204e1960 <gicv3_distif_save+0x154>  // b.lo, b.ul, b.last
    204e1884:	52800416 	mov	w22, #0x20                  	// #32
    204e1888:	6b1502df 	cmp	w22, w21
    204e188c:	540007c3 	b.cc	204e1984 <gicv3_distif_save+0x178>  // b.lo, b.ul, b.last
    204e1890:	52800416 	mov	w22, #0x20                  	// #32
    204e1894:	6b1502df 	cmp	w22, w21
    204e1898:	54000883 	b.cc	204e19a8 <gicv3_distif_save+0x19c>  // b.lo, b.ul, b.last
    204e189c:	52800416 	mov	w22, #0x20                  	// #32
    204e18a0:	6b1502df 	cmp	w22, w21
    204e18a4:	54000943 	b.cc	204e19cc <gicv3_distif_save+0x1c0>  // b.lo, b.ul, b.last
    204e18a8:	d28c2000 	mov	x0, #0x6100                	// #24832
    204e18ac:	8b000273 	add	x19, x19, x0
    204e18b0:	d2800000 	mov	x0, #0x0                   	// #0
    204e18b4:	11008001 	add	w1, w0, #0x20
    204e18b8:	6b0102bf 	cmp	w21, w1
    204e18bc:	540009a8 	b.hi	204e19f0 <gicv3_distif_save+0x1e4>  // b.pmore
    204e18c0:	a94153f3 	ldp	x19, x20, [sp, #16]
    204e18c4:	a9425bf5 	ldp	x21, x22, [sp, #32]
    204e18c8:	a8c37bfd 	ldp	x29, x30, [sp], #48
    204e18cc:	d65f03c0 	ret
    204e18d0:	2a1603e1 	mov	w1, w22
    204e18d4:	aa1303e0 	mov	x0, x19
    204e18d8:	97fffd41 	bl	204e0ddc <gicd_read_igroupr>
    204e18dc:	510082c1 	sub	w1, w22, #0x20
    204e18e0:	110082d6 	add	w22, w22, #0x20
    204e18e4:	53057c21 	lsr	w1, w1, #5
    204e18e8:	8b010a81 	add	x1, x20, x1, lsl #2
    204e18ec:	b91ee420 	str	w0, [x1, #7908]
    204e18f0:	17ffffd7 	b	204e184c <gicv3_distif_save+0x40>
    204e18f4:	2a1603e1 	mov	w1, w22
    204e18f8:	aa1303e0 	mov	x0, x19
    204e18fc:	97fffd5e 	bl	204e0e74 <gicd_read_isenabler>
    204e1900:	510082c1 	sub	w1, w22, #0x20
    204e1904:	110082d6 	add	w22, w22, #0x20
    204e1908:	53057c21 	lsr	w1, w1, #5
    204e190c:	911f6021 	add	x1, x1, #0x7d8
    204e1910:	b8217a80 	str	w0, [x20, x1, lsl #2]
    204e1914:	17ffffd1 	b	204e1858 <gicv3_distif_save+0x4c>
    204e1918:	2a1603e1 	mov	w1, w22
    204e191c:	aa1303e0 	mov	x0, x19
    204e1920:	97fffd5f 	bl	204e0e9c <gicd_read_ispendr>
    204e1924:	510082c1 	sub	w1, w22, #0x20
    204e1928:	110082d6 	add	w22, w22, #0x20
    204e192c:	53057c21 	lsr	w1, w1, #5
    204e1930:	8b010a81 	add	x1, x20, x1, lsl #2
    204e1934:	b91fdc20 	str	w0, [x1, #8156]
    204e1938:	17ffffcb 	b	204e1864 <gicv3_distif_save+0x58>
    204e193c:	2a1603e1 	mov	w1, w22
    204e1940:	aa1303e0 	mov	x0, x19
    204e1944:	97fffd42 	bl	204e0e4c <gicd_read_isactiver>
    204e1948:	510082c1 	sub	w1, w22, #0x20
    204e194c:	110082d6 	add	w22, w22, #0x20
    204e1950:	53057c21 	lsr	w1, w1, #5
    204e1954:	8b010a81 	add	x1, x20, x1, lsl #2
    204e1958:	b9205820 	str	w0, [x1, #8280]
    204e195c:	17ffffc5 	b	204e1870 <gicv3_distif_save+0x64>
    204e1960:	2a1603e1 	mov	w1, w22
    204e1964:	aa1303e0 	mov	x0, x19
    204e1968:	97fffd31 	bl	204e0e2c <gicd_read_ipriorityr>
    204e196c:	510082c1 	sub	w1, w22, #0x20
    204e1970:	110012d6 	add	w22, w22, #0x4
    204e1974:	927e7421 	and	x1, x1, #0xfffffffc
    204e1978:	8b010281 	add	x1, x20, x1
    204e197c:	b920d420 	str	w0, [x1, #8404]
    204e1980:	17ffffbf 	b	204e187c <gicv3_distif_save+0x70>
    204e1984:	2a1603e1 	mov	w1, w22
    204e1988:	aa1303e0 	mov	x0, x19
    204e198c:	97fffd0a 	bl	204e0db4 <gicd_read_icfgr>
    204e1990:	510082c1 	sub	w1, w22, #0x20
    204e1994:	110042d6 	add	w22, w22, #0x10
    204e1998:	53047c21 	lsr	w1, w1, #4
    204e199c:	9124b021 	add	x1, x1, #0x92c
    204e19a0:	b8217a80 	str	w0, [x20, x1, lsl #2]
    204e19a4:	17ffffb9 	b	204e1888 <gicv3_distif_save+0x7c>
    204e19a8:	2a1603e1 	mov	w1, w22
    204e19ac:	aa1303e0 	mov	x0, x19
    204e19b0:	97fffd15 	bl	204e0e04 <gicd_read_igrpmodr>
    204e19b4:	510082c1 	sub	w1, w22, #0x20
    204e19b8:	110082d6 	add	w22, w22, #0x20
    204e19bc:	53057c21 	lsr	w1, w1, #5
    204e19c0:	8b010a81 	add	x1, x20, x1, lsl #2
    204e19c4:	b925a820 	str	w0, [x1, #9640]
    204e19c8:	17ffffb3 	b	204e1894 <gicv3_distif_save+0x88>
    204e19cc:	2a1603e1 	mov	w1, w22
    204e19d0:	aa1303e0 	mov	x0, x19
    204e19d4:	97fffd3c 	bl	204e0ec4 <gicd_read_nsacr>
    204e19d8:	510082c1 	sub	w1, w22, #0x20
    204e19dc:	110042d6 	add	w22, w22, #0x10
    204e19e0:	53047c21 	lsr	w1, w1, #4
    204e19e4:	8b010a81 	add	x1, x20, x1, lsl #2
    204e19e8:	b9262420 	str	w0, [x1, #9764]
    204e19ec:	17ffffad 	b	204e18a0 <gicv3_distif_save+0x94>
    204e19f0:	f8408661 	ldr	x1, [x19], #8
    204e19f4:	f8207a81 	str	x1, [x20, x0, lsl #3]
    204e19f8:	91000400 	add	x0, x0, #0x1
    204e19fc:	17ffffae 	b	204e18b4 <gicv3_distif_save+0xa8>

00000000204e1a00 <gicv3_distif_init_restore>:
    204e1a00:	a9bd7bfd 	stp	x29, x30, [sp, #-48]!
    204e1a04:	910003fd 	mov	x29, sp
    204e1a08:	a90153f3 	stp	x19, x20, [sp, #16]
    204e1a0c:	aa0003f4 	mov	x20, x0
    204e1a10:	90000060 	adrp	x0, 204ed000 <__STACKS_START__+0x1280>
    204e1a14:	a9025bf5 	stp	x21, x22, [sp, #32]
    204e1a18:	52800416 	mov	w22, #0x20                  	// #32
    204e1a1c:	f9420400 	ldr	x0, [x0, #1032]
    204e1a20:	f9400013 	ldr	x19, [x0]
    204e1a24:	b9400260 	ldr	w0, [x19]
    204e1a28:	121d7000 	and	w0, w0, #0xfffffff8
    204e1a2c:	b9000260 	str	w0, [x19]
    204e1a30:	aa1303e0 	mov	x0, x19
    204e1a34:	97fffe5f 	bl	204e13b0 <gicd_wait_for_pending_write>
    204e1a38:	b9400261 	ldr	w1, [x19]
    204e1a3c:	321c0421 	orr	w1, w1, #0x30
    204e1a40:	b9000261 	str	w1, [x19]
    204e1a44:	97fffe5b 	bl	204e13b0 <gicd_wait_for_pending_write>
    204e1a48:	97fffd9d 	bl	204e10bc <gicv3_get_spi_limit>
    204e1a4c:	2a0003f5 	mov	w21, w0
    204e1a50:	6b1502df 	cmp	w22, w21
    204e1a54:	54000463 	b.cc	204e1ae0 <gicv3_distif_init_restore+0xe0>  // b.lo, b.ul, b.last
    204e1a58:	52800416 	mov	w22, #0x20                  	// #32
    204e1a5c:	6b1502df 	cmp	w22, w21
    204e1a60:	54000523 	b.cc	204e1b04 <gicv3_distif_init_restore+0x104>  // b.lo, b.ul, b.last
    204e1a64:	52800416 	mov	w22, #0x20                  	// #32
    204e1a68:	6b1502df 	cmp	w22, w21
    204e1a6c:	540005e3 	b.cc	204e1b28 <gicv3_distif_init_restore+0x128>  // b.lo, b.ul, b.last
    204e1a70:	52800416 	mov	w22, #0x20                  	// #32
    204e1a74:	6b1502df 	cmp	w22, w21
    204e1a78:	540006a3 	b.cc	204e1b4c <gicv3_distif_init_restore+0x14c>  // b.lo, b.ul, b.last
    204e1a7c:	52800416 	mov	w22, #0x20                  	// #32
    204e1a80:	6b1502df 	cmp	w22, w21
    204e1a84:	54000763 	b.cc	204e1b70 <gicv3_distif_init_restore+0x170>  // b.lo, b.ul, b.last
    204e1a88:	d28c2000 	mov	x0, #0x6100                	// #24832
    204e1a8c:	8b000261 	add	x1, x19, x0
    204e1a90:	d2800000 	mov	x0, #0x0                   	// #0
    204e1a94:	11008002 	add	w2, w0, #0x20
    204e1a98:	6b0202bf 	cmp	w21, w2
    204e1a9c:	540007c8 	b.hi	204e1b94 <gicv3_distif_init_restore+0x194>  // b.pmore
    204e1aa0:	52800416 	mov	w22, #0x20                  	// #32
    204e1aa4:	6b1502df 	cmp	w22, w21
    204e1aa8:	540007e3 	b.cc	204e1ba4 <gicv3_distif_init_restore+0x1a4>  // b.lo, b.ul, b.last
    204e1aac:	52800416 	mov	w22, #0x20                  	// #32
    204e1ab0:	6b1502df 	cmp	w22, w21
    204e1ab4:	540008a3 	b.cc	204e1bc8 <gicv3_distif_init_restore+0x1c8>  // b.lo, b.ul, b.last
    204e1ab8:	52800416 	mov	w22, #0x20                  	// #32
    204e1abc:	6b1502df 	cmp	w22, w21
    204e1ac0:	54000963 	b.cc	204e1bec <gicv3_distif_init_restore+0x1ec>  // b.lo, b.ul, b.last
    204e1ac4:	b95ee280 	ldr	w0, [x20, #7904]
    204e1ac8:	a9425bf5 	ldp	x21, x22, [sp, #32]
    204e1acc:	b9000260 	str	w0, [x19]
    204e1ad0:	aa1303e0 	mov	x0, x19
    204e1ad4:	a94153f3 	ldp	x19, x20, [sp, #16]
    204e1ad8:	a8c37bfd 	ldp	x29, x30, [sp], #48
    204e1adc:	17fffe35 	b	204e13b0 <gicd_wait_for_pending_write>
    204e1ae0:	510082c0 	sub	w0, w22, #0x20
    204e1ae4:	2a1603e1 	mov	w1, w22
    204e1ae8:	110082d6 	add	w22, w22, #0x20
    204e1aec:	53057c00 	lsr	w0, w0, #5
    204e1af0:	8b000a80 	add	x0, x20, x0, lsl #2
    204e1af4:	b95ee402 	ldr	w2, [x0, #7908]
    204e1af8:	aa1303e0 	mov	x0, x19
    204e1afc:	97fffcbd 	bl	204e0df0 <gicd_write_igroupr>
    204e1b00:	17ffffd4 	b	204e1a50 <gicv3_distif_init_restore+0x50>
    204e1b04:	510082c0 	sub	w0, w22, #0x20
    204e1b08:	2a1603e1 	mov	w1, w22
    204e1b0c:	927e7400 	and	x0, x0, #0xfffffffc
    204e1b10:	110012d6 	add	w22, w22, #0x4
    204e1b14:	8b000280 	add	x0, x20, x0
    204e1b18:	b960d402 	ldr	w2, [x0, #8404]
    204e1b1c:	aa1303e0 	mov	x0, x19
    204e1b20:	97fffcc7 	bl	204e0e3c <gicd_write_ipriorityr>
    204e1b24:	17ffffce 	b	204e1a5c <gicv3_distif_init_restore+0x5c>
    204e1b28:	510082c0 	sub	w0, w22, #0x20
    204e1b2c:	2a1603e1 	mov	w1, w22
    204e1b30:	110042d6 	add	w22, w22, #0x10
    204e1b34:	53047c00 	lsr	w0, w0, #4
    204e1b38:	9124b000 	add	x0, x0, #0x92c
    204e1b3c:	b8607a82 	ldr	w2, [x20, x0, lsl #2]
    204e1b40:	aa1303e0 	mov	x0, x19
    204e1b44:	97fffca1 	bl	204e0dc8 <gicd_write_icfgr>
    204e1b48:	17ffffc8 	b	204e1a68 <gicv3_distif_init_restore+0x68>
    204e1b4c:	510082c0 	sub	w0, w22, #0x20
    204e1b50:	2a1603e1 	mov	w1, w22
    204e1b54:	110082d6 	add	w22, w22, #0x20
    204e1b58:	53057c00 	lsr	w0, w0, #5
    204e1b5c:	8b000a80 	add	x0, x20, x0, lsl #2
    204e1b60:	b965a802 	ldr	w2, [x0, #9640]
    204e1b64:	aa1303e0 	mov	x0, x19
    204e1b68:	97fffcac 	bl	204e0e18 <gicd_write_igrpmodr>
    204e1b6c:	17ffffc2 	b	204e1a74 <gicv3_distif_init_restore+0x74>
    204e1b70:	510082c0 	sub	w0, w22, #0x20
    204e1b74:	2a1603e1 	mov	w1, w22
    204e1b78:	110042d6 	add	w22, w22, #0x10
    204e1b7c:	53047c00 	lsr	w0, w0, #4
    204e1b80:	8b000a80 	add	x0, x20, x0, lsl #2
    204e1b84:	b9662402 	ldr	w2, [x0, #9764]
    204e1b88:	aa1303e0 	mov	x0, x19
    204e1b8c:	97fffcd3 	bl	204e0ed8 <gicd_write_nsacr>
    204e1b90:	17ffffbc 	b	204e1a80 <gicv3_distif_init_restore+0x80>
    204e1b94:	f8607a82 	ldr	x2, [x20, x0, lsl #3]
    204e1b98:	91000400 	add	x0, x0, #0x1
    204e1b9c:	f8008422 	str	x2, [x1], #8
    204e1ba0:	17ffffbd 	b	204e1a94 <gicv3_distif_init_restore+0x94>
    204e1ba4:	510082c0 	sub	w0, w22, #0x20
    204e1ba8:	2a1603e1 	mov	w1, w22
    204e1bac:	110082d6 	add	w22, w22, #0x20
    204e1bb0:	53057c00 	lsr	w0, w0, #5
    204e1bb4:	911f6000 	add	x0, x0, #0x7d8
    204e1bb8:	b8607a82 	ldr	w2, [x20, x0, lsl #2]
    204e1bbc:	aa1303e0 	mov	x0, x19
    204e1bc0:	97fffcb2 	bl	204e0e88 <gicd_write_isenabler>
    204e1bc4:	17ffffb8 	b	204e1aa4 <gicv3_distif_init_restore+0xa4>
    204e1bc8:	510082c0 	sub	w0, w22, #0x20
    204e1bcc:	2a1603e1 	mov	w1, w22
    204e1bd0:	110082d6 	add	w22, w22, #0x20
    204e1bd4:	53057c00 	lsr	w0, w0, #5
    204e1bd8:	8b000a80 	add	x0, x20, x0, lsl #2
    204e1bdc:	b95fdc02 	ldr	w2, [x0, #8156]
    204e1be0:	aa1303e0 	mov	x0, x19
    204e1be4:	97fffcb3 	bl	204e0eb0 <gicd_write_ispendr>
    204e1be8:	17ffffb2 	b	204e1ab0 <gicv3_distif_init_restore+0xb0>
    204e1bec:	510082c0 	sub	w0, w22, #0x20
    204e1bf0:	2a1603e1 	mov	w1, w22
    204e1bf4:	110082d6 	add	w22, w22, #0x20
    204e1bf8:	53057c00 	lsr	w0, w0, #5
    204e1bfc:	8b000a80 	add	x0, x20, x0, lsl #2
    204e1c00:	b9605802 	ldr	w2, [x0, #8280]
    204e1c04:	aa1303e0 	mov	x0, x19
    204e1c08:	97fffc96 	bl	204e0e60 <gicd_write_isactiver>
    204e1c0c:	17ffffac 	b	204e1abc <gicv3_distif_init_restore+0xbc>

00000000204e1c10 <gicv3_raise_sgi>:
    204e1c10:	d3483c43 	ubfx	x3, x2, #8, #8
    204e1c14:	52800024 	mov	w4, #0x1                   	// #1
    204e1c18:	1ac22084 	lsl	w4, w4, w2
    204e1c1c:	92403c84 	and	x4, x4, #0xffff
    204e1c20:	aa034083 	orr	x3, x4, x3, lsl #16
    204e1c24:	d3609c44 	ubfx	x4, x2, #32, #8
    204e1c28:	d3505c42 	ubfx	x2, x2, #16, #8
    204e1c2c:	d3680c00 	ubfiz	x0, x0, #24, #4
    204e1c30:	d3607c42 	lsl	x2, x2, #32
    204e1c34:	aa04c042 	orr	x2, x2, x4, lsl #48
    204e1c38:	aa020062 	orr	x2, x3, x2
    204e1c3c:	aa000040 	orr	x0, x2, x0
    204e1c40:	d5033a9f 	dsb	ishst
    204e1c44:	7100043f 	cmp	w1, #0x1
    204e1c48:	54000100 	b.eq	204e1c68 <gicv3_raise_sgi+0x58>  // b.none
    204e1c4c:	7100083f 	cmp	w1, #0x2
    204e1c50:	54000080 	b.eq	204e1c60 <gicv3_raise_sgi+0x50>  // b.none
    204e1c54:	340000e1 	cbz	w1, 204e1c70 <gicv3_raise_sgi+0x60>
    204e1c58:	d5033fdf 	isb
    204e1c5c:	d65f03c0 	ret
    204e1c60:	d518cbe0 	msr	icc_sgi0r_el1, x0
    204e1c64:	17fffffd 	b	204e1c58 <gicv3_raise_sgi+0x48>
    204e1c68:	d518cbc0 	msr	icc_asgi1r_el1, x0
    204e1c6c:	17fffffb 	b	204e1c58 <gicv3_raise_sgi+0x48>
    204e1c70:	d518cba0 	msr	icc_sgi1r_el1, x0
    204e1c74:	17fffff9 	b	204e1c58 <gicv3_raise_sgi+0x48>

00000000204e1c78 <console_is_registered>:
    204e1c78:	90000061 	adrp	x1, 204ed000 <__STACKS_START__+0x1280>
    204e1c7c:	f9420821 	ldr	x1, [x1, #1040]
    204e1c80:	b5000061 	cbnz	x1, 204e1c8c <console_is_registered+0x14>
    204e1c84:	52800000 	mov	w0, #0x0                   	// #0
    204e1c88:	d65f03c0 	ret
    204e1c8c:	eb00003f 	cmp	x1, x0
    204e1c90:	54000060 	b.eq	204e1c9c <console_is_registered+0x24>  // b.none
    204e1c94:	f9400021 	ldr	x1, [x1]
    204e1c98:	17fffffa 	b	204e1c80 <console_is_registered+0x8>
    204e1c9c:	52800020 	mov	w0, #0x1                   	// #1
    204e1ca0:	17fffffa 	b	204e1c88 <console_is_registered+0x10>

00000000204e1ca4 <console_register>:
    204e1ca4:	a9bf7bfd 	stp	x29, x30, [sp, #-16]!
    204e1ca8:	aa0003e2 	mov	x2, x0
    204e1cac:	910003fd 	mov	x29, sp
    204e1cb0:	97fffff2 	bl	204e1c78 <console_is_registered>
    204e1cb4:	7100041f 	cmp	w0, #0x1
    204e1cb8:	540000a0 	b.eq	204e1ccc <console_register+0x28>  // b.none
    204e1cbc:	90000060 	adrp	x0, 204ed000 <__STACKS_START__+0x1280>
    204e1cc0:	f9420801 	ldr	x1, [x0, #1040]
    204e1cc4:	f9000041 	str	x1, [x2]
    204e1cc8:	f9020802 	str	x2, [x0, #1040]
    204e1ccc:	52800020 	mov	w0, #0x1                   	// #1
    204e1cd0:	a8c17bfd 	ldp	x29, x30, [sp], #16
    204e1cd4:	d65f03c0 	ret

00000000204e1cd8 <console_switch_state>:
    204e1cd8:	d0000041 	adrp	x1, 204eb000 <__RO_END_UNALIGNED__>
    204e1cdc:	b9047820 	str	w0, [x1, #1144]
    204e1ce0:	d65f03c0 	ret

00000000204e1ce4 <console_set_scope>:
    204e1ce4:	f9400402 	ldr	x2, [x0, #8]
    204e1ce8:	2a0103e1 	mov	w1, w1
    204e1cec:	9278dc42 	and	x2, x2, #0xffffffffffffff00
    204e1cf0:	aa010042 	orr	x2, x2, x1
    204e1cf4:	f9000402 	str	x2, [x0, #8]
    204e1cf8:	d65f03c0 	ret

00000000204e1cfc <console_putc>:
    204e1cfc:	a9bd7bfd 	stp	x29, x30, [sp, #-48]!
    204e1d00:	910003fd 	mov	x29, sp
    204e1d04:	a9025bf5 	stp	x21, x22, [sp, #32]
    204e1d08:	2a0003f5 	mov	w21, w0
    204e1d0c:	90000060 	adrp	x0, 204ed000 <__STACKS_START__+0x1280>
    204e1d10:	a90153f3 	stp	x19, x20, [sp, #16]
    204e1d14:	d0000056 	adrp	x22, 204eb000 <__RO_END_UNALIGNED__>
    204e1d18:	9111e2d6 	add	x22, x22, #0x478
    204e1d1c:	f9420813 	ldr	x19, [x0, #1040]
    204e1d20:	12800ff4 	mov	w20, #0xffffff80            	// #-128
    204e1d24:	b50000d3 	cbnz	x19, 204e1d3c <console_putc+0x40>
    204e1d28:	a9425bf5 	ldp	x21, x22, [sp, #32]
    204e1d2c:	2a1403e0 	mov	w0, w20
    204e1d30:	a94153f3 	ldp	x19, x20, [sp, #16]
    204e1d34:	a8c37bfd 	ldp	x29, x30, [sp], #48
    204e1d38:	d65f03c0 	ret
    204e1d3c:	f9400660 	ldr	x0, [x19, #8]
    204e1d40:	b94002c1 	ldr	w1, [x22]
    204e1d44:	ea00003f 	tst	x1, x0
    204e1d48:	54000060 	b.eq	204e1d54 <console_putc+0x58>  // b.none
    204e1d4c:	f9400a62 	ldr	x2, [x19, #16]
    204e1d50:	b50000a2 	cbnz	x2, 204e1d64 <console_putc+0x68>
    204e1d54:	2a1403e0 	mov	w0, w20
    204e1d58:	f9400273 	ldr	x19, [x19]
    204e1d5c:	2a0003f4 	mov	w20, w0
    204e1d60:	17fffff1 	b	204e1d24 <console_putc+0x28>
    204e1d64:	71002abf 	cmp	w21, #0xa
    204e1d68:	54000120 	b.eq	204e1d8c <console_putc+0x90>  // b.none
    204e1d6c:	f9400a62 	ldr	x2, [x19, #16]
    204e1d70:	aa1303e1 	mov	x1, x19
    204e1d74:	2a1503e0 	mov	w0, w21
    204e1d78:	d63f0040 	blr	x2
    204e1d7c:	3102029f 	cmn	w20, #0x80
    204e1d80:	7a401280 	ccmp	w20, w0, #0x0, ne	// ne = any
    204e1d84:	54fffe8d 	b.le	204e1d54 <console_putc+0x58>
    204e1d88:	17fffff4 	b	204e1d58 <console_putc+0x5c>
    204e1d8c:	3647ff00 	tbz	w0, #8, 204e1d6c <console_putc+0x70>
    204e1d90:	aa1303e1 	mov	x1, x19
    204e1d94:	528001a0 	mov	w0, #0xd                   	// #13
    204e1d98:	d63f0040 	blr	x2
    204e1d9c:	36fffe80 	tbz	w0, #31, 204e1d6c <console_putc+0x70>
    204e1da0:	17fffff7 	b	204e1d7c <console_putc+0x80>

00000000204e1da4 <putchar>:
    204e1da4:	a9be7bfd 	stp	x29, x30, [sp, #-32]!
    204e1da8:	910003fd 	mov	x29, sp
    204e1dac:	f9000bf3 	str	x19, [sp, #16]
    204e1db0:	2a0003f3 	mov	w19, w0
    204e1db4:	97ffffd2 	bl	204e1cfc <console_putc>
    204e1db8:	7100001f 	cmp	w0, #0x0
    204e1dbc:	5a9f0260 	csinv	w0, w19, wzr, eq	// eq = none
    204e1dc0:	f9400bf3 	ldr	x19, [sp, #16]
    204e1dc4:	a8c27bfd 	ldp	x29, x30, [sp], #32
    204e1dc8:	d65f03c0 	ret

00000000204e1dcc <console_flush>:
    204e1dcc:	a9be7bfd 	stp	x29, x30, [sp, #-32]!
    204e1dd0:	90000060 	adrp	x0, 204ed000 <__STACKS_START__+0x1280>
    204e1dd4:	910003fd 	mov	x29, sp
    204e1dd8:	a90153f3 	stp	x19, x20, [sp, #16]
    204e1ddc:	d0000054 	adrp	x20, 204eb000 <__RO_END_UNALIGNED__>
    204e1de0:	9111e294 	add	x20, x20, #0x478
    204e1de4:	f9420813 	ldr	x19, [x0, #1040]
    204e1de8:	b5000093 	cbnz	x19, 204e1df8 <console_flush+0x2c>
    204e1dec:	a94153f3 	ldp	x19, x20, [sp, #16]
    204e1df0:	a8c27bfd 	ldp	x29, x30, [sp], #32
    204e1df4:	d65f03c0 	ret
    204e1df8:	f9400660 	ldr	x0, [x19, #8]
    204e1dfc:	b9400281 	ldr	w1, [x20]
    204e1e00:	ea00003f 	tst	x1, x0
    204e1e04:	540000a0 	b.eq	204e1e18 <console_flush+0x4c>  // b.none
    204e1e08:	f9400e61 	ldr	x1, [x19, #24]
    204e1e0c:	b4000061 	cbz	x1, 204e1e18 <console_flush+0x4c>
    204e1e10:	aa1303e0 	mov	x0, x19
    204e1e14:	d63f0020 	blr	x1
    204e1e18:	f9400273 	ldr	x19, [x19]
    204e1e1c:	17fffff3 	b	204e1de8 <console_flush+0x1c>

00000000204e1e20 <udelay>:
    204e1e20:	a9bd7bfd 	stp	x29, x30, [sp, #-48]!
    204e1e24:	910003fd 	mov	x29, sp
    204e1e28:	f90013f5 	str	x21, [sp, #32]
    204e1e2c:	90000075 	adrp	x21, 204ed000 <__STACKS_START__+0x1280>
    204e1e30:	a90153f3 	stp	x19, x20, [sp, #16]
    204e1e34:	2a0003f3 	mov	w19, w0
    204e1e38:	f9420ea0 	ldr	x0, [x21, #1048]
    204e1e3c:	f9400000 	ldr	x0, [x0]
    204e1e40:	d63f0000 	blr	x0
    204e1e44:	2a0003f4 	mov	w20, w0
    204e1e48:	f9420ea1 	ldr	x1, [x21, #1048]
    204e1e4c:	29410420 	ldp	w0, w1, [x1, #8]
    204e1e50:	d1000402 	sub	x2, x0, #0x1
    204e1e54:	9ba10a73 	umaddl	x19, w19, w1, x2
    204e1e58:	9ac00a73 	udiv	x19, x19, x0
    204e1e5c:	91000673 	add	x19, x19, #0x1
    204e1e60:	f9420ea0 	ldr	x0, [x21, #1048]
    204e1e64:	f9400000 	ldr	x0, [x0]
    204e1e68:	d63f0000 	blr	x0
    204e1e6c:	4b000281 	sub	w1, w20, w0
    204e1e70:	eb13003f 	cmp	x1, x19
    204e1e74:	54ffff63 	b.cc	204e1e60 <udelay+0x40>  // b.lo, b.ul, b.last
    204e1e78:	a94153f3 	ldp	x19, x20, [sp, #16]
    204e1e7c:	f94013f5 	ldr	x21, [sp, #32]
    204e1e80:	a8c37bfd 	ldp	x29, x30, [sp], #48
    204e1e84:	d65f03c0 	ret

00000000204e1e88 <timer_init>:
    204e1e88:	90000061 	adrp	x1, 204ed000 <__STACKS_START__+0x1280>
    204e1e8c:	f9020c20 	str	x0, [x1, #1048]
    204e1e90:	d65f03c0 	ret

00000000204e1e94 <generic_delay_timeout_init_us>:
    204e1e94:	d53be002 	mrs	x2, cntfrq_el0
    204e1e98:	d53be021 	mrs	x1, cntpct_el0
    204e1e9c:	2a0003e0 	mov	w0, w0
    204e1ea0:	9b027c00 	mul	x0, x0, x2
    204e1ea4:	d2884802 	mov	x2, #0x4240                	// #16960
    204e1ea8:	f2a001e2 	movk	x2, #0xf, lsl #16
    204e1eac:	9ac20800 	udiv	x0, x0, x2
    204e1eb0:	8b010000 	add	x0, x0, x1
    204e1eb4:	d65f03c0 	ret

00000000204e1eb8 <generic_delay_timeout_elapsed>:
    204e1eb8:	d53be021 	mrs	x1, cntpct_el0
    204e1ebc:	eb01001f 	cmp	x0, x1
    204e1ec0:	1a9f27e0 	cset	w0, cc	// cc = lo, ul, last
    204e1ec4:	d65f03c0 	ret

00000000204e1ec8 <generic_delay_get_timer_value>:
    204e1ec8:	d53be020 	mrs	x0, cntpct_el0
    204e1ecc:	2a2003e0 	mvn	w0, w0
    204e1ed0:	d65f03c0 	ret

00000000204e1ed4 <generic_delay_timer_init_args>:
    204e1ed4:	2a0003e4 	mov	w4, w0
    204e1ed8:	90000063 	adrp	x3, 204ed000 <__STACKS_START__+0x1280>
    204e1edc:	91108060 	add	x0, x3, #0x420
    204e1ee0:	90000002 	adrp	x2, 204e1000 <gicv3_rdistif_mark_core_awake+0x18>
    204e1ee4:	913b2042 	add	x2, x2, #0xec8
    204e1ee8:	f9021062 	str	x2, [x3, #1056]
    204e1eec:	29010404 	stp	w4, w1, [x0, #8]
    204e1ef0:	90000001 	adrp	x1, 204e1000 <gicv3_rdistif_mark_core_awake+0x18>
    204e1ef4:	913a5021 	add	x1, x1, #0xe94
    204e1ef8:	f9000801 	str	x1, [x0, #16]
    204e1efc:	90000001 	adrp	x1, 204e1000 <gicv3_rdistif_mark_core_awake+0x18>
    204e1f00:	913ae021 	add	x1, x1, #0xeb8
    204e1f04:	f9000c01 	str	x1, [x0, #24]
    204e1f08:	17ffffe0 	b	204e1e88 <timer_init>

00000000204e1f0c <generic_delay_timer_init>:
    204e1f0c:	a9bf7bfd 	stp	x29, x30, [sp, #-16]!
    204e1f10:	910003fd 	mov	x29, sp
    204e1f14:	94001312 	bl	204e6b5c <plat_get_syscnt_freq2>
    204e1f18:	2a0003e1 	mov	w1, w0
    204e1f1c:	52800142 	mov	w2, #0xa                   	// #10
    204e1f20:	1ac20800 	udiv	w0, w0, w2
    204e1f24:	1b028400 	msub	w0, w0, w2, w1
    204e1f28:	350001a0 	cbnz	w0, 204e1f5c <generic_delay_timer_init+0x50>
    204e1f2c:	52884800 	mov	w0, #0x4240                	// #16960
    204e1f30:	72a001e0 	movk	w0, #0xf, lsl #16
    204e1f34:	1ac20800 	udiv	w0, w0, w2
    204e1f38:	1ac20821 	udiv	w1, w1, w2
    204e1f3c:	1ac20803 	udiv	w3, w0, w2
    204e1f40:	1ac20824 	udiv	w4, w1, w2
    204e1f44:	1b028063 	msub	w3, w3, w2, w0
    204e1f48:	1b028484 	msub	w4, w4, w2, w1
    204e1f4c:	2a040063 	orr	w3, w3, w4
    204e1f50:	34ffff23 	cbz	w3, 204e1f34 <generic_delay_timer_init+0x28>
    204e1f54:	a8c17bfd 	ldp	x29, x30, [sp], #16
    204e1f58:	17ffffdf 	b	204e1ed4 <generic_delay_timer_init_args>
    204e1f5c:	52884800 	mov	w0, #0x4240                	// #16960
    204e1f60:	72a001e0 	movk	w0, #0xf, lsl #16
    204e1f64:	17fffffc 	b	204e1f54 <generic_delay_timer_init+0x48>

00000000204e1f68 <trdc_get_mbc_base>:
    204e1f68:	7941e403 	ldrh	w3, [x0, #242]
    204e1f6c:	53134822 	lsl	w2, w1, #13
    204e1f70:	8b000040 	add	x0, x2, x0
    204e1f74:	12000c63 	and	w3, w3, #0xf
    204e1f78:	91404000 	add	x0, x0, #0x10, lsl #12
    204e1f7c:	6b01007f 	cmp	w3, w1
    204e1f80:	9a9f8000 	csel	x0, x0, xzr, hi	// hi = pmore
    204e1f84:	d65f03c0 	ret

00000000204e1f88 <trdc_get_mrc_base>:
    204e1f88:	b940f002 	ldr	w2, [x0, #240]
    204e1f8c:	53144c23 	lsl	w3, w1, #12
    204e1f90:	8b000060 	add	x0, x3, x0
    204e1f94:	d3587044 	ubfx	x4, x2, #24, #5
    204e1f98:	d3504c42 	ubfx	x2, x2, #16, #4
    204e1f9c:	6b01009f 	cmp	w4, w1
    204e1fa0:	53134842 	lsl	w2, w2, #13
    204e1fa4:	11404042 	add	w2, w2, #0x10, lsl #12
    204e1fa8:	8b224000 	add	x0, x0, w2, uxtw
    204e1fac:	9a9f8000 	csel	x0, x0, xzr, hi	// hi = pmore
    204e1fb0:	d65f03c0 	ret

00000000204e1fb4 <trdc_mda_set_cpu>:
    204e1fb4:	11010021 	add	w1, w1, #0x40
    204e1fb8:	394023e8 	ldrb	w8, [sp, #8]
    204e1fbc:	12001c63 	and	w3, w3, #0xff
    204e1fc0:	12001c84 	and	w4, w4, #0xff
    204e1fc4:	0b010c41 	add	w1, w2, w1, lsl #3
    204e1fc8:	12001ca5 	and	w5, w5, #0xff
    204e1fcc:	12001cc6 	and	w6, w6, #0xff
    204e1fd0:	12001ce7 	and	w7, w7, #0xff
    204e1fd4:	531e7421 	lsl	w1, w1, #2
    204e1fd8:	b8606822 	ldr	w2, [x1, x0]
    204e1fdc:	37e802a2 	tbnz	w2, #29, 204e2030 <trdc_mda_set_cpu+0x7c>
    204e1fe0:	394003e2 	ldrb	w2, [sp]
    204e1fe4:	53120463 	ubfiz	w3, w3, #14, #2
    204e1fe8:	531a04c6 	ubfiz	w6, w6, #6, #2
    204e1fec:	531c0484 	ubfiz	w4, w4, #4, #2
    204e1ff0:	12000ca5 	and	w5, w5, #0xf
    204e1ff4:	2a0300c6 	orr	w6, w6, w3
    204e1ff8:	12000c42 	and	w2, w2, #0xf
    204e1ffc:	2a050084 	orr	w4, w4, w5
    204e2000:	531814e7 	ubfiz	w7, w7, #8, #6
    204e2004:	2a0400c6 	orr	w6, w6, w4
    204e2008:	2a0200e7 	orr	w7, w7, w2
    204e200c:	2a0700c2 	orr	w2, w6, w7
    204e2010:	32010043 	orr	w3, w2, #0x80000000
    204e2014:	b8206823 	str	w3, [x1, x0]
    204e2018:	37000068 	tbnz	w8, #0, 204e2024 <trdc_mda_set_cpu+0x70>
    204e201c:	52800000 	mov	w0, #0x0                   	// #0
    204e2020:	d65f03c0 	ret
    204e2024:	32020442 	orr	w2, w2, #0xc0000000
    204e2028:	b8206822 	str	w2, [x1, x0]
    204e202c:	17fffffc 	b	204e201c <trdc_mda_set_cpu+0x68>
    204e2030:	128002a0 	mov	w0, #0xffffffea            	// #-22
    204e2034:	17fffffb 	b	204e2020 <trdc_mda_set_cpu+0x6c>

00000000204e2038 <trdc_mda_set_noncpu>:
    204e2038:	11010021 	add	w1, w1, #0x40
    204e203c:	12001c42 	and	w2, w2, #0xff
    204e2040:	12001c63 	and	w3, w3, #0xff
    204e2044:	12001c84 	and	w4, w4, #0xff
    204e2048:	531b6821 	lsl	w1, w1, #5
    204e204c:	12001ca5 	and	w5, w5, #0xff
    204e2050:	12001cc6 	and	w6, w6, #0xff
    204e2054:	b8606827 	ldr	w7, [x1, x0]
    204e2058:	36e801e7 	tbz	w7, #29, 204e2094 <trdc_mda_set_noncpu+0x5c>
    204e205c:	531a0463 	ubfiz	w3, w3, #6, #2
    204e2060:	531c0484 	ubfiz	w4, w4, #4, #2
    204e2064:	12000ca5 	and	w5, w5, #0xf
    204e2068:	2a040063 	orr	w3, w3, w4
    204e206c:	2a0220a2 	orr	w2, w5, w2, lsl #8
    204e2070:	2a020063 	orr	w3, w3, w2
    204e2074:	32010062 	orr	w2, w3, #0x80000000
    204e2078:	b8206822 	str	w2, [x1, x0]
    204e207c:	37000066 	tbnz	w6, #0, 204e2088 <trdc_mda_set_noncpu+0x50>
    204e2080:	52800000 	mov	w0, #0x0                   	// #0
    204e2084:	d65f03c0 	ret
    204e2088:	32020463 	orr	w3, w3, #0xc0000000
    204e208c:	b8206823 	str	w3, [x1, x0]
    204e2090:	17fffffc 	b	204e2080 <trdc_mda_set_noncpu+0x48>
    204e2094:	128002a0 	mov	w0, #0xffffffea            	// #-22
    204e2098:	17fffffb 	b	204e2084 <trdc_mda_set_noncpu+0x4c>

00000000204e209c <trdc_mbc_blk_num>:
    204e209c:	a9bf7bfd 	stp	x29, x30, [sp, #-16]!
    204e20a0:	2a0203e4 	mov	w4, w2
    204e20a4:	910003fd 	mov	x29, sp
    204e20a8:	97ffffb0 	bl	204e1f68 <trdc_get_mbc_base>
    204e20ac:	b40000a0 	cbz	x0, 204e20c0 <trdc_mbc_blk_num+0x24>
    204e20b0:	b8647800 	ldr	w0, [x0, x4, lsl #2]
    204e20b4:	12002400 	and	w0, w0, #0x3ff
    204e20b8:	a8c17bfd 	ldp	x29, x30, [sp], #16
    204e20bc:	d65f03c0 	ret
    204e20c0:	52800000 	mov	w0, #0x0                   	// #0
    204e20c4:	17fffffd 	b	204e20b8 <trdc_mbc_blk_num+0x1c>

00000000204e20c8 <trdc_mbc_set_control>:
    204e20c8:	a9bf7bfd 	stp	x29, x30, [sp, #-16]!
    204e20cc:	2a0203e4 	mov	w4, w2
    204e20d0:	aa0003e6 	mov	x6, x0
    204e20d4:	910003fd 	mov	x29, sp
    204e20d8:	2a0303e5 	mov	w5, w3
    204e20dc:	97ffffa3 	bl	204e1f68 <trdc_get_mbc_base>
    204e20e0:	f100001f 	cmp	x0, #0x0
    204e20e4:	7a471882 	ccmp	w4, #0x7, #0x2, ne	// ne = any
    204e20e8:	540003e8 	b.hi	204e2164 <trdc_mbc_set_control+0x9c>  // b.pmore
    204e20ec:	714018bf 	cmp	w5, #0x6, lsl #12
    204e20f0:	7a471880 	ccmp	w4, #0x7, #0x0, ne	// ne = any
    204e20f4:	540002e1 	b.ne	204e2150 <trdc_mbc_set_control+0x88>  // b.any
    204e20f8:	2a0103e7 	mov	w7, w1
    204e20fc:	b0000041 	adrp	x1, 204eb000 <__RO_END_UNALIGNED__>
    204e2100:	b0000042 	adrp	x2, 204eb000 <__RO_END_UNALIGNED__>
    204e2104:	91102042 	add	x2, x2, #0x408
    204e2108:	b9461c21 	ldr	w1, [x1, #1564]
    204e210c:	52800003 	mov	w3, #0x0                   	// #0
    204e2110:	6b03003f 	cmp	w1, w3
    204e2114:	540000c1 	b.ne	204e212c <trdc_mbc_set_control+0x64>  // b.any
    204e2118:	91002084 	add	x4, x4, #0x8
    204e211c:	b8247805 	str	w5, [x0, x4, lsl #2]
    204e2120:	52800000 	mov	w0, #0x0                   	// #0
    204e2124:	a8c17bfd 	ldp	x29, x30, [sp], #16
    204e2128:	d65f03c0 	ret
    204e212c:	f9400048 	ldr	x8, [x2]
    204e2130:	eb06011f 	cmp	x8, x6
    204e2134:	54000081 	b.ne	204e2144 <trdc_mbc_set_control+0x7c>  // b.any
    204e2138:	39402048 	ldrb	w8, [x2, #8]
    204e213c:	6b07011f 	cmp	w8, w7
    204e2140:	540000e0 	b.eq	204e215c <trdc_mbc_set_control+0x94>  // b.none
    204e2144:	11000463 	add	w3, w3, #0x1
    204e2148:	91004042 	add	x2, x2, #0x10
    204e214c:	17fffff1 	b	204e2110 <trdc_mbc_set_control+0x48>
    204e2150:	710000bf 	cmp	w5, #0x0
    204e2154:	7a461880 	ccmp	w4, #0x6, #0x0, ne	// ne = any
    204e2158:	54fffe01 	b.ne	204e2118 <trdc_mbc_set_control+0x50>  // b.any
    204e215c:	12800000 	mov	w0, #0xffffffff            	// #-1
    204e2160:	17fffff1 	b	204e2124 <trdc_mbc_set_control+0x5c>
    204e2164:	128002a0 	mov	w0, #0xffffffea            	// #-22
    204e2168:	17ffffef 	b	204e2124 <trdc_mbc_set_control+0x5c>

00000000204e216c <trdc_mbc_blk_config>:
    204e216c:	a9bf7bfd 	stp	x29, x30, [sp, #-16]!
    204e2170:	2a0203e7 	mov	w7, w2
    204e2174:	2a0303e9 	mov	w9, w3
    204e2178:	910003fd 	mov	x29, sp
    204e217c:	97ffff7b 	bl	204e1f68 <trdc_get_mbc_base>
    204e2180:	f100001f 	cmp	x0, #0x0
    204e2184:	7a4718c2 	ccmp	w6, #0x7, #0x2, ne	// ne = any
    204e2188:	540003a8 	b.hi	204e21fc <trdc_mbc_blk_config+0x90>  // b.pmore
    204e218c:	12001ca5 	and	w5, w5, #0xff
    204e2190:	7100093f 	cmp	w9, #0x2
    204e2194:	54000380 	b.eq	204e2204 <trdc_mbc_blk_config+0x98>  // b.none
    204e2198:	540002e8 	b.hi	204e21f4 <trdc_mbc_blk_config+0x88>  // b.pmore
    204e219c:	53037c81 	lsr	w1, w4, #3
    204e21a0:	52801008 	mov	w8, #0x80                  	// #128
    204e21a4:	11018022 	add	w2, w1, #0x60
    204e21a8:	11004021 	add	w1, w1, #0x10
    204e21ac:	7100013f 	cmp	w9, #0x0
    204e21b0:	9ba808e2 	umaddl	x2, w7, w8, x2
    204e21b4:	9ba804e8 	umaddl	x8, w7, w8, x1
    204e21b8:	8b020802 	add	x2, x0, x2, lsl #2
    204e21bc:	8b080808 	add	x8, x0, x8, lsl #2
    204e21c0:	9a820100 	csel	x0, x8, x2, eq	// eq = none
    204e21c4:	b9400002 	ldr	w2, [x0]
    204e21c8:	531e0884 	ubfiz	w4, w4, #2, #3
    204e21cc:	528001e1 	mov	w1, #0xf                   	// #15
    204e21d0:	1ac42021 	lsl	w1, w1, w4
    204e21d4:	0a210041 	bic	w1, w2, w1
    204e21d8:	360002e5 	tbz	w5, #0, 204e2234 <trdc_mbc_blk_config+0xc8>
    204e21dc:	1ac420c4 	lsl	w4, w6, w4
    204e21e0:	2a010084 	orr	w4, w4, w1
    204e21e4:	b9000004 	str	w4, [x0]
    204e21e8:	52800000 	mov	w0, #0x0                   	// #0
    204e21ec:	a8c17bfd 	ldp	x29, x30, [sp], #16
    204e21f0:	d65f03c0 	ret
    204e21f4:	71000d3f 	cmp	w9, #0x3
    204e21f8:	54000120 	b.eq	204e221c <trdc_mbc_blk_config+0xb0>  // b.none
    204e21fc:	128002a0 	mov	w0, #0xffffffea            	// #-22
    204e2200:	17fffffb 	b	204e21ec <trdc_mbc_blk_config+0x80>
    204e2204:	53037c81 	lsr	w1, w4, #3
    204e2208:	52801002 	mov	w2, #0x80                  	// #128
    204e220c:	1101a821 	add	w1, w1, #0x6a
    204e2210:	9ba204e1 	umaddl	x1, w7, w2, x1
    204e2214:	8b010800 	add	x0, x0, x1, lsl #2
    204e2218:	17ffffeb 	b	204e21c4 <trdc_mbc_blk_config+0x58>
    204e221c:	53037c81 	lsr	w1, w4, #3
    204e2220:	52801002 	mov	w2, #0x80                  	// #128
    204e2224:	1101d021 	add	w1, w1, #0x74
    204e2228:	9ba204e7 	umaddl	x7, w7, w2, x1
    204e222c:	8b070800 	add	x0, x0, x7, lsl #2
    204e2230:	17ffffe5 	b	204e21c4 <trdc_mbc_blk_config+0x58>
    204e2234:	321d00c6 	orr	w6, w6, #0x8
    204e2238:	1ac420c6 	lsl	w6, w6, w4
    204e223c:	2a0100c6 	orr	w6, w6, w1
    204e2240:	b9000006 	str	w6, [x0]
    204e2244:	17ffffe9 	b	204e21e8 <trdc_mbc_blk_config+0x7c>

00000000204e2248 <trdc_mrc_set_control>:
    204e2248:	a9bf7bfd 	stp	x29, x30, [sp, #-16]!
    204e224c:	2a0203e5 	mov	w5, w2
    204e2250:	2a0303e6 	mov	w6, w3
    204e2254:	910003fd 	mov	x29, sp
    204e2258:	97ffff4c 	bl	204e1f88 <trdc_get_mrc_base>
    204e225c:	f100001f 	cmp	x0, #0x0
    204e2260:	7a4718a2 	ccmp	w5, #0x7, #0x2, ne	// ne = any
    204e2264:	540000c8 	b.hi	204e227c <trdc_mrc_set_control+0x34>  // b.pmore
    204e2268:	910020a5 	add	x5, x5, #0x8
    204e226c:	b8257806 	str	w6, [x0, x5, lsl #2]
    204e2270:	52800000 	mov	w0, #0x0                   	// #0
    204e2274:	a8c17bfd 	ldp	x29, x30, [sp], #16
    204e2278:	d65f03c0 	ret
    204e227c:	128002a0 	mov	w0, #0xffffffea            	// #-22
    204e2280:	17fffffd 	b	204e2274 <trdc_mrc_set_control+0x2c>

00000000204e2284 <trdc_mrc_rgn_config>:
    204e2284:	a9bf7bfd 	stp	x29, x30, [sp, #-16]!
    204e2288:	2a0203e8 	mov	w8, w2
    204e228c:	2a0303ea 	mov	w10, w3
    204e2290:	910003fd 	mov	x29, sp
    204e2294:	2a0403e9 	mov	w9, w4
    204e2298:	97ffff3c 	bl	204e1f88 <trdc_get_mrc_base>
    204e229c:	f100001f 	cmp	x0, #0x0
    204e22a0:	7a4718e2 	ccmp	w7, #0x7, #0x2, ne	// ne = any
    204e22a4:	54000368 	b.hi	204e2310 <trdc_mrc_rgn_config+0x8c>  // b.pmore
    204e22a8:	71003d5f 	cmp	w10, #0xf
    204e22ac:	54000328 	b.hi	204e2310 <trdc_mrc_rgn_config+0x8c>  // b.pmore
    204e22b0:	2a0a03e3 	mov	w3, w10
    204e22b4:	52800402 	mov	w2, #0x20                  	// #32
    204e22b8:	510004a1 	sub	w1, w5, #0x1
    204e22bc:	12001cc6 	and	w6, w6, #0xff
    204e22c0:	0b090021 	add	w1, w1, w9
    204e22c4:	12124529 	and	w9, w9, #0xffffc000
    204e22c8:	9ba20d02 	umaddl	x2, w8, w2, x3
    204e22cc:	8b081468 	add	x8, x3, x8, lsl #5
    204e22d0:	91002108 	add	x8, x8, #0x8
    204e22d4:	2a070127 	orr	w7, w9, w7
    204e22d8:	91002042 	add	x2, x2, #0x8
    204e22dc:	12124421 	and	w1, w1, #0xffffc000
    204e22e0:	d37df108 	lsl	x8, x8, #3
    204e22e4:	8b020c02 	add	x2, x0, x2, lsl #3
    204e22e8:	b8286807 	str	w7, [x0, x8]
    204e22ec:	360000c6 	tbz	w6, #0, 204e2304 <trdc_mrc_rgn_config+0x80>
    204e22f0:	32000021 	orr	w1, w1, #0x1
    204e22f4:	52800000 	mov	w0, #0x0                   	// #0
    204e22f8:	b9000441 	str	w1, [x2, #4]
    204e22fc:	a8c17bfd 	ldp	x29, x30, [sp], #16
    204e2300:	d65f03c0 	ret
    204e2304:	52800220 	mov	w0, #0x11                  	// #17
    204e2308:	2a000021 	orr	w1, w1, w0
    204e230c:	17fffffa 	b	204e22f4 <trdc_mrc_rgn_config+0x70>
    204e2310:	128002a0 	mov	w0, #0xffffffea            	// #-22
    204e2314:	17fffffa 	b	204e22fc <trdc_mrc_rgn_config+0x78>

00000000204e2318 <trdc_mgr_mbc_setup>:
    204e2318:	f940000b 	ldr	x11, [x0]
    204e231c:	aa0003ea 	mov	x10, x0
    204e2320:	b9400160 	ldr	w0, [x11]
    204e2324:	367004a0 	tbz	w0, #14, 204e23b8 <trdc_mgr_mbc_setup+0xa0>
    204e2328:	a9bf7bfd 	stp	x29, x30, [sp, #-16]!
    204e232c:	5280000c 	mov	w12, #0x0                   	// #0
    204e2330:	aa0b03e0 	mov	x0, x11
    204e2334:	910003fd 	mov	x29, sp
    204e2338:	3940214d 	ldrb	w13, [x10, #8]
    204e233c:	528c0003 	mov	w3, #0x6000                	// #24576
    204e2340:	528000e2 	mov	w2, #0x7                   	// #7
    204e2344:	2a0d03e1 	mov	w1, w13
    204e2348:	97ffff60 	bl	204e20c8 <trdc_mbc_set_control>
    204e234c:	39402944 	ldrb	w4, [x10, #10]
    204e2350:	2a0c03e2 	mov	w2, w12
    204e2354:	3940254e 	ldrb	w14, [x10, #9]
    204e2358:	2a0d03e1 	mov	w1, w13
    204e235c:	528000e6 	mov	w6, #0x7                   	// #7
    204e2360:	52800025 	mov	w5, #0x1                   	// #1
    204e2364:	2a0e03e3 	mov	w3, w14
    204e2368:	aa0b03e0 	mov	x0, x11
    204e236c:	97ffff80 	bl	204e216c <trdc_mbc_blk_config>
    204e2370:	39402d44 	ldrb	w4, [x10, #11]
    204e2374:	2a0c03e2 	mov	w2, w12
    204e2378:	2a0e03e3 	mov	w3, w14
    204e237c:	2a0d03e1 	mov	w1, w13
    204e2380:	aa0b03e0 	mov	x0, x11
    204e2384:	528000e6 	mov	w6, #0x7                   	// #7
    204e2388:	52800025 	mov	w5, #0x1                   	// #1
    204e238c:	1100058c 	add	w12, w12, #0x1
    204e2390:	97ffff77 	bl	204e216c <trdc_mbc_blk_config>
    204e2394:	7100419f 	cmp	w12, #0x10
    204e2398:	54fffda1 	b.ne	204e234c <trdc_mgr_mbc_setup+0x34>  // b.any
    204e239c:	a8c17bfd 	ldp	x29, x30, [sp], #16
    204e23a0:	528c0003 	mov	w3, #0x6000                	// #24576
    204e23a4:	2a0d03e1 	mov	w1, w13
    204e23a8:	aa0b03e0 	mov	x0, x11
    204e23ac:	72b00003 	movk	w3, #0x8000, lsl #16
    204e23b0:	528000e2 	mov	w2, #0x7                   	// #7
    204e23b4:	17ffff45 	b	204e20c8 <trdc_mbc_set_control>
    204e23b8:	d65f03c0 	ret

00000000204e23bc <trdc_mgr_fused_slot_setup>:
    204e23bc:	a9be7bfd 	stp	x29, x30, [sp, #-32]!
    204e23c0:	910003fd 	mov	x29, sp
    204e23c4:	f9000bf3 	str	x19, [sp, #16]
    204e23c8:	aa0003f3 	mov	x19, x0
    204e23cc:	f9400000 	ldr	x0, [x0]
    204e23d0:	b9400001 	ldr	w1, [x0]
    204e23d4:	36700181 	tbz	w1, #14, 204e2404 <trdc_mgr_fused_slot_setup+0x48>
    204e23d8:	39402a61 	ldrb	w1, [x19, #10]
    204e23dc:	528000c2 	mov	w2, #0x6                   	// #6
    204e23e0:	52800003 	mov	w3, #0x0                   	// #0
    204e23e4:	97ffff39 	bl	204e20c8 <trdc_mbc_set_control>
    204e23e8:	39402260 	ldrb	w0, [x19, #8]
    204e23ec:	94001713 	bl	204e8038 <trdc_fuse_read>
    204e23f0:	39402662 	ldrb	w2, [x19, #9]
    204e23f4:	52800021 	mov	w1, #0x1                   	// #1
    204e23f8:	1ac22021 	lsl	w1, w1, w2
    204e23fc:	6a00003f 	tst	w1, w0
    204e2400:	540002c1 	b.ne	204e2458 <trdc_mgr_fused_slot_setup+0x9c>  // b.any
    204e2404:	f9400bf3 	ldr	x19, [sp, #16]
    204e2408:	a8c27bfd 	ldp	x29, x30, [sp], #32
    204e240c:	d65f03c0 	ret
    204e2410:	5280000b 	mov	w11, #0x0                   	// #0
    204e2414:	f9400260 	ldr	x0, [x19]
    204e2418:	2a0b03e2 	mov	w2, w11
    204e241c:	39402e63 	ldrb	w3, [x19, #11]
    204e2420:	1100056b 	add	w11, w11, #0x1
    204e2424:	39402a61 	ldrb	w1, [x19, #10]
    204e2428:	528000c6 	mov	w6, #0x6                   	// #6
    204e242c:	39403264 	ldrb	w4, [x19, #12]
    204e2430:	52800025 	mov	w5, #0x1                   	// #1
    204e2434:	0b0a0084 	add	w4, w4, w10
    204e2438:	97ffff4d 	bl	204e216c <trdc_mbc_blk_config>
    204e243c:	7100417f 	cmp	w11, #0x10
    204e2440:	54fffea1 	b.ne	204e2414 <trdc_mgr_fused_slot_setup+0x58>  // b.any
    204e2444:	1100054a 	add	w10, w10, #0x1
    204e2448:	39403660 	ldrb	w0, [x19, #13]
    204e244c:	6b0a001f 	cmp	w0, w10
    204e2450:	54fffe08 	b.hi	204e2410 <trdc_mgr_fused_slot_setup+0x54>  // b.pmore
    204e2454:	17ffffec 	b	204e2404 <trdc_mgr_fused_slot_setup+0x48>
    204e2458:	5280000a 	mov	w10, #0x0                   	// #0
    204e245c:	17fffffb 	b	204e2448 <trdc_mgr_fused_slot_setup+0x8c>

00000000204e2460 <trdc_setup>:
    204e2460:	a9bd7bfd 	stp	x29, x30, [sp, #-48]!
    204e2464:	aa0003eb 	mov	x11, x0
    204e2468:	910003fd 	mov	x29, sp
    204e246c:	f940000c 	ldr	x12, [x0]
    204e2470:	a90153f3 	stp	x19, x20, [sp, #16]
    204e2474:	b9400180 	ldr	w0, [x12]
    204e2478:	f90013f5 	str	x21, [sp, #32]
    204e247c:	377804a0 	tbnz	w0, #15, 204e2510 <trdc_setup+0xb0>
    204e2480:	b9400180 	ldr	w0, [x12]
    204e2484:	377009a0 	tbnz	w0, #14, 204e25b8 <trdc_setup+0x158>
    204e2488:	a94153f3 	ldp	x19, x20, [sp, #16]
    204e248c:	f94013f5 	ldr	x21, [sp, #32]
    204e2490:	a8c37bfd 	ldp	x29, x30, [sp], #48
    204e2494:	d65f03c0 	ret
    204e2498:	f9401561 	ldr	x1, [x11, #40]
    204e249c:	d37d7ce0 	ubfiz	x0, x7, #3, #32
    204e24a0:	110004e7 	add	w7, w7, #0x1
    204e24a4:	8b000022 	add	x2, x1, x0
    204e24a8:	38606821 	ldrb	w1, [x1, x0]
    204e24ac:	aa0c03e0 	mov	x0, x12
    204e24b0:	b9400443 	ldr	w3, [x2, #4]
    204e24b4:	39400442 	ldrb	w2, [x2, #1]
    204e24b8:	2a080063 	orr	w3, w3, w8
    204e24bc:	97ffff63 	bl	204e2248 <trdc_mrc_set_control>
    204e24c0:	b9403160 	ldr	w0, [x11, #48]
    204e24c4:	6b07001f 	cmp	w0, w7
    204e24c8:	54fffe88 	b.hi	204e2498 <trdc_setup+0x38>  // b.pmore
    204e24cc:	5280000d 	mov	w13, #0x0                   	// #0
    204e24d0:	b9404160 	ldr	w0, [x11, #64]
    204e24d4:	6b0d001f 	cmp	w0, w13
    204e24d8:	54fffd49 	b.ls	204e2480 <trdc_setup+0x20>  // b.plast
    204e24dc:	f9401d68 	ldr	x8, [x11, #56]
    204e24e0:	d37c7da1 	ubfiz	x1, x13, #4, #32
    204e24e4:	110005ad 	add	w13, w13, #0x1
    204e24e8:	8b010100 	add	x0, x8, x1
    204e24ec:	38616901 	ldrb	w1, [x8, x1]
    204e24f0:	39403007 	ldrb	w7, [x0, #12]
    204e24f4:	39403406 	ldrb	w6, [x0, #13]
    204e24f8:	39400803 	ldrb	w3, [x0, #2]
    204e24fc:	39400402 	ldrb	w2, [x0, #1]
    204e2500:	29409404 	ldp	w4, w5, [x0, #4]
    204e2504:	aa0c03e0 	mov	x0, x12
    204e2508:	97ffff5f 	bl	204e2284 <trdc_mrc_rgn_config>
    204e250c:	17fffff1 	b	204e24d0 <trdc_setup+0x70>
    204e2510:	52800007 	mov	w7, #0x0                   	// #0
    204e2514:	528eeee8 	mov	w8, #0x7777                	// #30583
    204e2518:	17ffffea 	b	204e24c0 <trdc_setup+0x60>
    204e251c:	f9400561 	ldr	x1, [x11, #8]
    204e2520:	d37d7d20 	ubfiz	x0, x9, #3, #32
    204e2524:	11000529 	add	w9, w9, #0x1
    204e2528:	8b000022 	add	x2, x1, x0
    204e252c:	38606821 	ldrb	w1, [x1, x0]
    204e2530:	aa0c03e0 	mov	x0, x12
    204e2534:	b9400443 	ldr	w3, [x2, #4]
    204e2538:	39400442 	ldrb	w2, [x2, #1]
    204e253c:	2a0a0063 	orr	w3, w3, w10
    204e2540:	97fffee2 	bl	204e20c8 <trdc_mbc_set_control>
    204e2544:	b9401160 	ldr	w0, [x11, #16]
    204e2548:	6b09001f 	cmp	w0, w9
    204e254c:	54fffe88 	b.hi	204e251c <trdc_setup+0xbc>  // b.pmore
    204e2550:	b0000054 	adrp	x20, 204eb000 <__RO_END_UNALIGNED__>
    204e2554:	91187294 	add	x20, x20, #0x61c
    204e2558:	52800012 	mov	w18, #0x0                   	// #0
    204e255c:	b0000055 	adrp	x21, 204eb000 <__RO_END_UNALIGNED__>
    204e2560:	b9402160 	ldr	w0, [x11, #32]
    204e2564:	6b12001f 	cmp	w0, w18
    204e2568:	54fff909 	b.ls	204e2488 <trdc_setup+0x28>  // b.plast
    204e256c:	528000c0 	mov	w0, #0x6                   	// #6
    204e2570:	f9400d61 	ldr	x1, [x11, #24]
    204e2574:	9ba07e40 	umull	x0, w18, w0
    204e2578:	8b00002a 	add	x10, x1, x0
    204e257c:	3860682e 	ldrb	w14, [x1, x0]
    204e2580:	39400d44 	ldrb	w4, [x10, #3]
    204e2584:	3940094f 	ldrb	w15, [x10, #2]
    204e2588:	7103fc9f 	cmp	w4, #0xff
    204e258c:	54000601 	b.ne	204e264c <trdc_setup+0x1ec>  // b.any
    204e2590:	2a0f03e2 	mov	w2, w15
    204e2594:	2a0e03e1 	mov	w1, w14
    204e2598:	aa0c03e0 	mov	x0, x12
    204e259c:	97fffec0 	bl	204e209c <trdc_mbc_blk_num>
    204e25a0:	2a0003f3 	mov	w19, w0
    204e25a4:	5280000d 	mov	w13, #0x0                   	// #0
    204e25a8:	6b1301bf 	cmp	w13, w19
    204e25ac:	540000c1 	b.ne	204e25c4 <trdc_setup+0x164>  // b.any
    204e25b0:	11000652 	add	w18, w18, #0x1
    204e25b4:	17ffffeb 	b	204e2560 <trdc_setup+0x100>
    204e25b8:	52800009 	mov	w9, #0x0                   	// #0
    204e25bc:	528eeeea 	mov	w10, #0x7777                	// #30583
    204e25c0:	17ffffe1 	b	204e2544 <trdc_setup+0xe4>
    204e25c4:	b9400281 	ldr	w1, [x20]
    204e25c8:	911022a2 	add	x2, x21, #0x408
    204e25cc:	52800000 	mov	w0, #0x0                   	// #0
    204e25d0:	6b01001f 	cmp	w0, w1
    204e25d4:	54000161 	b.ne	204e2600 <trdc_setup+0x1a0>  // b.any
    204e25d8:	39401146 	ldrb	w6, [x10, #4]
    204e25dc:	2a0d03e4 	mov	w4, w13
    204e25e0:	39401545 	ldrb	w5, [x10, #5]
    204e25e4:	2a0f03e3 	mov	w3, w15
    204e25e8:	39400542 	ldrb	w2, [x10, #1]
    204e25ec:	2a0e03e1 	mov	w1, w14
    204e25f0:	aa0c03e0 	mov	x0, x12
    204e25f4:	97fffede 	bl	204e216c <trdc_mbc_blk_config>
    204e25f8:	110005ad 	add	w13, w13, #0x1
    204e25fc:	17ffffeb 	b	204e25a8 <trdc_setup+0x148>
    204e2600:	f9400043 	ldr	x3, [x2]
    204e2604:	eb03019f 	cmp	x12, x3
    204e2608:	540001c1 	b.ne	204e2640 <trdc_setup+0x1e0>  // b.any
    204e260c:	39402043 	ldrb	w3, [x2, #8]
    204e2610:	6b0e007f 	cmp	w3, w14
    204e2614:	54000161 	b.ne	204e2640 <trdc_setup+0x1e0>  // b.any
    204e2618:	39402443 	ldrb	w3, [x2, #9]
    204e261c:	6b0f007f 	cmp	w3, w15
    204e2620:	54000101 	b.ne	204e2640 <trdc_setup+0x1e0>  // b.any
    204e2624:	39402844 	ldrb	w4, [x2, #10]
    204e2628:	12003da3 	and	w3, w13, #0xffff
    204e262c:	6b2d209f 	cmp	w4, w13, uxth
    204e2630:	54fffe40 	b.eq	204e25f8 <trdc_setup+0x198>  // b.none
    204e2634:	39402c44 	ldrb	w4, [x2, #11]
    204e2638:	6b03009f 	cmp	w4, w3
    204e263c:	54fffde0 	b.eq	204e25f8 <trdc_setup+0x198>  // b.none
    204e2640:	11000400 	add	w0, w0, #0x1
    204e2644:	91004042 	add	x2, x2, #0x10
    204e2648:	17ffffe2 	b	204e25d0 <trdc_setup+0x170>
    204e264c:	39401146 	ldrb	w6, [x10, #4]
    204e2650:	2a0f03e3 	mov	w3, w15
    204e2654:	39401545 	ldrb	w5, [x10, #5]
    204e2658:	2a0e03e1 	mov	w1, w14
    204e265c:	39400542 	ldrb	w2, [x10, #1]
    204e2660:	aa0c03e0 	mov	x0, x12
    204e2664:	97fffec2 	bl	204e216c <trdc_mbc_blk_config>
    204e2668:	17ffffd2 	b	204e25b0 <trdc_setup+0x150>

00000000204e266c <trdc_try_lockup>:
    204e266c:	a9bf7bfd 	stp	x29, x30, [sp, #-16]!
    204e2670:	aa0003e9 	mov	x9, x0
    204e2674:	910003fd 	mov	x29, sp
    204e2678:	f940000b 	ldr	x11, [x0]
    204e267c:	b9400160 	ldr	w0, [x11]
    204e2680:	37780260 	tbnz	w0, #15, 204e26cc <trdc_try_lockup+0x60>
    204e2684:	b9400160 	ldr	w0, [x11]
    204e2688:	37700460 	tbnz	w0, #14, 204e2714 <trdc_try_lockup+0xa8>
    204e268c:	a8c17bfd 	ldp	x29, x30, [sp], #16
    204e2690:	d65f03c0 	ret
    204e2694:	f9401521 	ldr	x1, [x9, #40]
    204e2698:	d37d7ce0 	ubfiz	x0, x7, #3, #32
    204e269c:	110004e7 	add	w7, w7, #0x1
    204e26a0:	8b000022 	add	x2, x1, x0
    204e26a4:	38606821 	ldrb	w1, [x1, x0]
    204e26a8:	aa0b03e0 	mov	x0, x11
    204e26ac:	b9400443 	ldr	w3, [x2, #4]
    204e26b0:	39400442 	ldrb	w2, [x2, #1]
    204e26b4:	0a080063 	and	w3, w3, w8
    204e26b8:	97fffee4 	bl	204e2248 <trdc_mrc_set_control>
    204e26bc:	b9403120 	ldr	w0, [x9, #48]
    204e26c0:	6b07001f 	cmp	w0, w7
    204e26c4:	54fffe88 	b.hi	204e2694 <trdc_try_lockup+0x28>  // b.pmore
    204e26c8:	17ffffef 	b	204e2684 <trdc_try_lockup+0x18>
    204e26cc:	528eeee8 	mov	w8, #0x7777                	// #30583
    204e26d0:	52800007 	mov	w7, #0x0                   	// #0
    204e26d4:	72b00008 	movk	w8, #0x8000, lsl #16
    204e26d8:	17fffff9 	b	204e26bc <trdc_try_lockup+0x50>
    204e26dc:	f9400521 	ldr	x1, [x9, #8]
    204e26e0:	d37d7d40 	ubfiz	x0, x10, #3, #32
    204e26e4:	1100054a 	add	w10, w10, #0x1
    204e26e8:	8b000022 	add	x2, x1, x0
    204e26ec:	38606821 	ldrb	w1, [x1, x0]
    204e26f0:	aa0b03e0 	mov	x0, x11
    204e26f4:	b9400443 	ldr	w3, [x2, #4]
    204e26f8:	39400442 	ldrb	w2, [x2, #1]
    204e26fc:	0a0c0063 	and	w3, w3, w12
    204e2700:	97fffe72 	bl	204e20c8 <trdc_mbc_set_control>
    204e2704:	b9401120 	ldr	w0, [x9, #16]
    204e2708:	6b0a001f 	cmp	w0, w10
    204e270c:	54fffe88 	b.hi	204e26dc <trdc_try_lockup+0x70>  // b.pmore
    204e2710:	17ffffdf 	b	204e268c <trdc_try_lockup+0x20>
    204e2714:	528eeeec 	mov	w12, #0x7777                	// #30583
    204e2718:	5280000a 	mov	w10, #0x0                   	// #0
    204e271c:	72b0000c 	movk	w12, #0x8000, lsl #16
    204e2720:	17fffff9 	b	204e2704 <trdc_try_lockup+0x98>

00000000204e2724 <find_erratum_entry>:
    204e2724:	a9be7bfd 	stp	x29, x30, [sp, #-32]!
    204e2728:	910003fd 	mov	x29, sp
    204e272c:	f9000bf3 	str	x19, [sp, #16]
    204e2730:	2a0003f3 	mov	w19, w0
    204e2734:	9400194f 	bl	204e8c70 <get_cpu_ops_ptr>
    204e2738:	aa0003e1 	mov	x1, x0
    204e273c:	f9401400 	ldr	x0, [x0, #40]
    204e2740:	f9401821 	ldr	x1, [x1, #48]
    204e2744:	d1004021 	sub	x1, x1, #0x10
    204e2748:	eb01001f 	cmp	x0, x1
    204e274c:	540000a9 	b.ls	204e2760 <find_erratum_entry+0x3c>  // b.plast
    204e2750:	d2800000 	mov	x0, #0x0                   	// #0
    204e2754:	f9400bf3 	ldr	x19, [sp, #16]
    204e2758:	a8c27bfd 	ldp	x29, x30, [sp], #32
    204e275c:	d65f03c0 	ret
    204e2760:	39402003 	ldrb	w3, [x0, #8]
    204e2764:	39402402 	ldrb	w2, [x0, #9]
    204e2768:	aa022062 	orr	x2, x3, x2, lsl #8
    204e276c:	39402803 	ldrb	w3, [x0, #10]
    204e2770:	aa034043 	orr	x3, x2, x3, lsl #16
    204e2774:	39402c02 	ldrb	w2, [x0, #11]
    204e2778:	aa026062 	orr	x2, x3, x2, lsl #24
    204e277c:	6b02027f 	cmp	w19, w2
    204e2780:	54fffea0 	b.eq	204e2754 <find_erratum_entry+0x30>  // b.none
    204e2784:	91004000 	add	x0, x0, #0x10
    204e2788:	17fffff0 	b	204e2748 <find_erratum_entry+0x24>

00000000204e278c <check_erratum_applies>:
    204e278c:	a9be7bfd 	stp	x29, x30, [sp, #-32]!
    204e2790:	910003fd 	mov	x29, sp
    204e2794:	a90153f3 	stp	x19, x20, [sp, #16]
    204e2798:	2a0103f4 	mov	w20, w1
    204e279c:	94001947 	bl	204e8cb8 <cpu_get_rev_var>
    204e27a0:	aa0003f3 	mov	x19, x0
    204e27a4:	2a1403e0 	mov	w0, w20
    204e27a8:	97ffffdf 	bl	204e2724 <find_erratum_entry>
    204e27ac:	b40002a0 	cbz	x0, 204e2800 <check_erratum_applies+0x74>
    204e27b0:	39400002 	ldrb	w2, [x0]
    204e27b4:	39400401 	ldrb	w1, [x0, #1]
    204e27b8:	aa012041 	orr	x1, x2, x1, lsl #8
    204e27bc:	39400802 	ldrb	w2, [x0, #2]
    204e27c0:	aa024022 	orr	x2, x1, x2, lsl #16
    204e27c4:	39400c01 	ldrb	w1, [x0, #3]
    204e27c8:	aa016041 	orr	x1, x2, x1, lsl #24
    204e27cc:	39401002 	ldrb	w2, [x0, #4]
    204e27d0:	aa028022 	orr	x2, x1, x2, lsl #32
    204e27d4:	39401401 	ldrb	w1, [x0, #5]
    204e27d8:	aa01a041 	orr	x1, x2, x1, lsl #40
    204e27dc:	39401802 	ldrb	w2, [x0, #6]
    204e27e0:	aa02c022 	orr	x2, x1, x2, lsl #48
    204e27e4:	39401c01 	ldrb	w1, [x0, #7]
    204e27e8:	aa1303e0 	mov	x0, x19
    204e27ec:	aa01e041 	orr	x1, x2, x1, lsl #56
    204e27f0:	d63f0020 	blr	x1
    204e27f4:	a94153f3 	ldp	x19, x20, [sp, #16]
    204e27f8:	a8c27bfd 	ldp	x29, x30, [sp], #32
    204e27fc:	d65f03c0 	ret
    204e2800:	52800000 	mov	w0, #0x0                   	// #0
    204e2804:	17fffffc 	b	204e27f4 <check_erratum_applies+0x68>

00000000204e2808 <print_errata_status>:
    204e2808:	d65f03c0 	ret

00000000204e280c <cm_init>:
    204e280c:	d65f03c0 	ret

00000000204e2810 <cm_setup_context>:
    204e2810:	a9bd7bfd 	stp	x29, x30, [sp, #-48]!
    204e2814:	910003fd 	mov	x29, sp
    204e2818:	a90153f3 	stp	x19, x20, [sp, #16]
    204e281c:	aa0103f4 	mov	x20, x1
    204e2820:	aa0003f3 	mov	x19, x0
    204e2824:	d2805001 	mov	x1, #0x280                 	// #640
    204e2828:	f90013f5 	str	x21, [sp, #32]
    204e282c:	9400189e 	bl	204e8aa4 <zeromem>
    204e2830:	b9401281 	ldr	w1, [x20, #16]
    204e2834:	d2804602 	mov	x2, #0x230                 	// #560
    204e2838:	d280c600 	mov	x0, #0x630                 	// #1584
    204e283c:	f27c003f 	tst	x1, #0x10
    204e2840:	9a820000 	csel	x0, x0, x2, eq	// eq = none
    204e2844:	b9400682 	ldr	w2, [x20, #4]
    204e2848:	36100042 	tbz	w2, #2, 204e2850 <cm_setup_context+0x40>
    204e284c:	b2750000 	orr	x0, x0, #0x800
    204e2850:	f9400a82 	ldr	x2, [x20, #16]
    204e2854:	927e0843 	and	x3, x2, #0x1c
    204e2858:	f100207f 	cmp	x3, #0x8
    204e285c:	54000080 	b.eq	204e286c <cm_setup_context+0x5c>  // b.none
    204e2860:	92401042 	and	x2, x2, #0x1f
    204e2864:	f100685f 	cmp	x2, #0x1a
    204e2868:	54000041 	b.ne	204e2870 <cm_setup_context+0x60>  // b.any
    204e286c:	b2780000 	orr	x0, x0, #0x100
    204e2870:	f9008260 	str	x0, [x19, #256]
    204e2874:	2a0103e1 	mov	w1, w1
    204e2878:	f9400680 	ldr	x0, [x20, #8]
    204e287c:	a9110261 	stp	x1, x0, [x19, #272]
    204e2880:	d2900000 	mov	x0, #0x8000                	// #32768
    204e2884:	f2a20020 	movk	x0, #0x1001, lsl #16
    204e2888:	f9009a60 	str	x0, [x19, #304]
    204e288c:	aa1303e0 	mov	x0, x19
    204e2890:	94000138 	bl	204e2d70 <pmuv3_enable>
    204e2894:	91006281 	add	x1, x20, #0x18
    204e2898:	aa1303e0 	mov	x0, x19
    204e289c:	d2800802 	mov	x2, #0x40                  	// #64
    204e28a0:	94001a29 	bl	204e9144 <memcpy>
    204e28a4:	b9400680 	ldr	w0, [x20, #4]
    204e28a8:	52800421 	mov	w1, #0x21                  	// #33
    204e28ac:	6a010000 	ands	w0, w0, w1
    204e28b0:	54000100 	b.eq	204e28d0 <cm_setup_context+0xc0>  // b.none
    204e28b4:	7100041f 	cmp	w0, #0x1
    204e28b8:	54000440 	b.eq	204e2940 <cm_setup_context+0x130>  // b.none
    204e28bc:	90000040 	adrp	x0, 204ea000 <wakeupmix_irq_mask+0x2c>
    204e28c0:	91033c00 	add	x0, x0, #0xcf
    204e28c4:	97fff89c 	bl	204e0b34 <tf_log>
    204e28c8:	97fffd41 	bl	204e1dcc <console_flush>
    204e28cc:	940017fc 	bl	204e88bc <el3_panic>
    204e28d0:	f9408275 	ldr	x21, [x19, #256]
    204e28d4:	d2800000 	mov	x0, #0x0                   	// #0
    204e28d8:	97fff7c5 	bl	204e07ec <get_scr_el3_from_routing_model>
    204e28dc:	aa0002b5 	orr	x21, x21, x0
    204e28e0:	b9400680 	ldr	w0, [x20, #4]
    204e28e4:	b9401282 	ldr	w2, [x20, #16]
    204e28e8:	d2810001 	mov	x1, #0x800                 	// #2048
    204e28ec:	d2810703 	mov	x3, #0x838                 	// #2104
    204e28f0:	f2a61a01 	movk	x1, #0x30d0, lsl #16
    204e28f4:	d3689c00 	lsl	x0, x0, #24
    204e28f8:	f2a018a3 	movk	x3, #0xc5, lsl #16
    204e28fc:	92670000 	and	x0, x0, #0x2000000
    204e2900:	f27c005f 	tst	x2, #0x10
    204e2904:	aa010001 	orr	x1, x0, x1
    204e2908:	aa030000 	orr	x0, x0, x3
    204e290c:	9a811000 	csel	x0, x0, x1, ne	// ne = any
    204e2910:	f9008275 	str	x21, [x19, #256]
    204e2914:	f900ba60 	str	x0, [x19, #368]
    204e2918:	d5381020 	mrs	x0, actlr_el1
    204e291c:	f900da60 	str	x0, [x19, #432]
    204e2920:	d5380500 	mrs	x0, id_aa64dfr0_el1
    204e2924:	f2600c1f 	tst	x0, #0xf00000000
    204e2928:	540004a0 	b.eq	204e29bc <cm_setup_context+0x1ac>  // b.none
    204e292c:	f94013f5 	ldr	x21, [sp, #32]
    204e2930:	aa1303e0 	mov	x0, x19
    204e2934:	a94153f3 	ldp	x19, x20, [sp, #16]
    204e2938:	a8c37bfd 	ldp	x29, x30, [sp], #48
    204e293c:	14000125 	b	204e2dd0 <spe_disable_secure>
    204e2940:	f9408275 	ldr	x21, [x19, #256]
    204e2944:	d2800020 	mov	x0, #0x1                   	// #1
    204e2948:	97fff7a9 	bl	204e07ec <get_scr_el3_from_routing_model>
    204e294c:	aa0002b5 	orr	x21, x21, x0
    204e2950:	d2800020 	mov	x0, #0x1                   	// #1
    204e2954:	f2a00060 	movk	x0, #0x3, lsl #16
    204e2958:	aa0002b5 	orr	x21, x21, x0
    204e295c:	b9400680 	ldr	w0, [x20, #4]
    204e2960:	d2810001 	mov	x1, #0x800                 	// #2048
    204e2964:	b9401282 	ldr	w2, [x20, #16]
    204e2968:	d2810703 	mov	x3, #0x838                 	// #2104
    204e296c:	f2a018a3 	movk	x3, #0xc5, lsl #16
    204e2970:	f2a61a01 	movk	x1, #0x30d0, lsl #16
    204e2974:	d3689c00 	lsl	x0, x0, #24
    204e2978:	f9008275 	str	x21, [x19, #256]
    204e297c:	92670000 	and	x0, x0, #0x2000000
    204e2980:	f27c005f 	tst	x2, #0x10
    204e2984:	aa010001 	orr	x1, x0, x1
    204e2988:	aa030000 	orr	x0, x0, x3
    204e298c:	9a811000 	csel	x0, x0, x1, ne	// ne = any
    204e2990:	f900ba60 	str	x0, [x19, #368]
    204e2994:	d5381020 	mrs	x0, actlr_el1
    204e2998:	f900da60 	str	x0, [x19, #432]
    204e299c:	d5380500 	mrs	x0, id_aa64dfr0_el1
    204e29a0:	f2600c1f 	tst	x0, #0xf00000000
    204e29a4:	540000c0 	b.eq	204e29bc <cm_setup_context+0x1ac>  // b.none
    204e29a8:	f94013f5 	ldr	x21, [sp, #32]
    204e29ac:	aa1303e0 	mov	x0, x19
    204e29b0:	a94153f3 	ldp	x19, x20, [sp, #16]
    204e29b4:	a8c37bfd 	ldp	x29, x30, [sp], #48
    204e29b8:	140000ff 	b	204e2db4 <spe_enable_ns>
    204e29bc:	a94153f3 	ldp	x19, x20, [sp, #16]
    204e29c0:	f94013f5 	ldr	x21, [sp, #32]
    204e29c4:	a8c37bfd 	ldp	x29, x30, [sp], #48
    204e29c8:	d65f03c0 	ret

00000000204e29cc <cm_manage_extensions_el3>:
    204e29cc:	a9bf7bfd 	stp	x29, x30, [sp, #-16]!
    204e29d0:	d5380400 	mrs	x0, id_aa64pfr0_el1
    204e29d4:	910003fd 	mov	x29, sp
    204e29d8:	f2600c1f 	tst	x0, #0xf00000000
    204e29dc:	54000040 	b.eq	204e29e4 <cm_manage_extensions_el3+0x18>  // b.none
    204e29e0:	94000103 	bl	204e2dec <sve_init_el3>
    204e29e4:	d5380400 	mrs	x0, id_aa64pfr0_el1
    204e29e8:	d368fc00 	lsr	x0, x0, #40
    204e29ec:	d5380421 	mrs	x1, id_aa64pfr1_el1
    204e29f0:	531c0c00 	ubfiz	w0, w0, #4, #4
    204e29f4:	53104c21 	ubfx	w1, w1, #16, #4
    204e29f8:	2a010000 	orr	w0, w0, w1
    204e29fc:	34000040 	cbz	w0, 204e2a04 <cm_manage_extensions_el3+0x38>
    204e2a00:	940000db 	bl	204e2d6c <mpam_init_el3>
    204e2a04:	a8c17bfd 	ldp	x29, x30, [sp], #16
    204e2a08:	140000e4 	b	204e2d98 <pmuv3_init_el3>

00000000204e2a0c <cm_manage_extensions_per_world>:
    204e2a0c:	a9be7bfd 	stp	x29, x30, [sp, #-32]!
    204e2a10:	d2a80200 	mov	x0, #0x40100000            	// #1074790400
    204e2a14:	910003fd 	mov	x29, sp
    204e2a18:	a90153f3 	stp	x19, x20, [sp, #16]
    204e2a1c:	f0000054 	adrp	x20, 204ed000 <__STACKS_START__+0x1280>
    204e2a20:	91110293 	add	x19, x20, #0x440
    204e2a24:	f9000a60 	str	x0, [x19, #16]
    204e2a28:	d2e80000 	mov	x0, #0x4000000000000000    	// #4611686018427387904
    204e2a2c:	f9000e60 	str	x0, [x19, #24]
    204e2a30:	d5380400 	mrs	x0, id_aa64pfr0_el1
    204e2a34:	f2600c1f 	tst	x0, #0xf00000000
    204e2a38:	54000080 	b.eq	204e2a48 <cm_manage_extensions_per_world+0x3c>  // b.none
    204e2a3c:	f0000040 	adrp	x0, 204ed000 <__STACKS_START__+0x1280>
    204e2a40:	91114000 	add	x0, x0, #0x450
    204e2a44:	940000ed 	bl	204e2df8 <sve_enable_per_world>
    204e2a48:	d5380400 	mrs	x0, id_aa64pfr0_el1
    204e2a4c:	d368fc00 	lsr	x0, x0, #40
    204e2a50:	d5380421 	mrs	x1, id_aa64pfr1_el1
    204e2a54:	531c0c00 	ubfiz	w0, w0, #4, #4
    204e2a58:	53104c21 	ubfx	w1, w1, #16, #4
    204e2a5c:	2a010000 	orr	w0, w0, w1
    204e2a60:	34000080 	cbz	w0, 204e2a70 <cm_manage_extensions_per_world+0x64>
    204e2a64:	f0000040 	adrp	x0, 204ed000 <__STACKS_START__+0x1280>
    204e2a68:	91114000 	add	x0, x0, #0x450
    204e2a6c:	940000bb 	bl	204e2d58 <mpam_enable_per_world>
    204e2a70:	d2a80200 	mov	x0, #0x40100000            	// #1074790400
    204e2a74:	f9022280 	str	x0, [x20, #1088]
    204e2a78:	d2e80000 	mov	x0, #0x4000000000000000    	// #4611686018427387904
    204e2a7c:	f9000660 	str	x0, [x19, #8]
    204e2a80:	d5380400 	mrs	x0, id_aa64pfr0_el1
    204e2a84:	f2600c1f 	tst	x0, #0xf00000000
    204e2a88:	540000a0 	b.eq	204e2a9c <cm_manage_extensions_per_world+0x90>  // b.none
    204e2a8c:	aa1303e0 	mov	x0, x19
    204e2a90:	a94153f3 	ldp	x19, x20, [sp, #16]
    204e2a94:	a8c27bfd 	ldp	x29, x30, [sp], #32
    204e2a98:	140000dc 	b	204e2e08 <sve_disable_per_world>
    204e2a9c:	a94153f3 	ldp	x19, x20, [sp, #16]
    204e2aa0:	a8c27bfd 	ldp	x29, x30, [sp], #32
    204e2aa4:	d65f03c0 	ret

00000000204e2aa8 <cm_init_percpu_once_regs>:
    204e2aa8:	d65f03c0 	ret

00000000204e2aac <cm_init_my_context>:
    204e2aac:	a9be7bfd 	stp	x29, x30, [sp, #-32]!
    204e2ab0:	52800421 	mov	w1, #0x21                  	// #33
    204e2ab4:	910003fd 	mov	x29, sp
    204e2ab8:	f9000bf3 	str	x19, [sp, #16]
    204e2abc:	aa0003f3 	mov	x19, x0
    204e2ac0:	b9400400 	ldr	w0, [x0, #4]
    204e2ac4:	0a010000 	and	w0, w0, w1
    204e2ac8:	97fff5dc 	bl	204e0238 <cm_get_context>
    204e2acc:	aa1303e1 	mov	x1, x19
    204e2ad0:	f9400bf3 	ldr	x19, [sp, #16]
    204e2ad4:	a8c27bfd 	ldp	x29, x30, [sp], #32
    204e2ad8:	17ffff4e 	b	204e2810 <cm_setup_context>

00000000204e2adc <cm_el1_sysregs_context_restore>:
    204e2adc:	a9be7bfd 	stp	x29, x30, [sp, #-32]!
    204e2ae0:	2a0003e0 	mov	w0, w0
    204e2ae4:	910003fd 	mov	x29, sp
    204e2ae8:	a90153f3 	stp	x19, x20, [sp, #16]
    204e2aec:	aa0003f3 	mov	x19, x0
    204e2af0:	97fff5d2 	bl	204e0238 <cm_get_context>
    204e2af4:	91058001 	add	x1, x0, #0x160
    204e2af8:	f940b000 	ldr	x0, [x0, #352]
    204e2afc:	d5184000 	msr	spsr_el1, x0
    204e2b00:	f9400420 	ldr	x0, [x1, #8]
    204e2b04:	d5184020 	msr	elr_el1, x0
    204e2b08:	f9400820 	ldr	x0, [x1, #16]
    204e2b0c:	d5181000 	msr	sctlr_el1, x0
    204e2b10:	f9400c20 	ldr	x0, [x1, #24]
    204e2b14:	d5182040 	msr	tcr_el1, x0
    204e2b18:	f9401020 	ldr	x0, [x1, #32]
    204e2b1c:	d5181040 	msr	cpacr_el1, x0
    204e2b20:	f9401420 	ldr	x0, [x1, #40]
    204e2b24:	d51a0000 	msr	csselr_el1, x0
    204e2b28:	f9401820 	ldr	x0, [x1, #48]
    204e2b2c:	d51c4100 	msr	sp_el1, x0
    204e2b30:	f9401c20 	ldr	x0, [x1, #56]
    204e2b34:	d5185200 	msr	esr_el1, x0
    204e2b38:	f9405820 	ldr	x0, [x1, #176]
    204e2b3c:	d5182000 	msr	ttbr0_el1, x0
    204e2b40:	f9405c20 	ldr	x0, [x1, #184]
    204e2b44:	d5182020 	msr	ttbr1_el1, x0
    204e2b48:	f9402020 	ldr	x0, [x1, #64]
    204e2b4c:	d518a200 	msr	mair_el1, x0
    204e2b50:	f9402420 	ldr	x0, [x1, #72]
    204e2b54:	d518a300 	msr	amair_el1, x0
    204e2b58:	f9402820 	ldr	x0, [x1, #80]
    204e2b5c:	d5181020 	msr	actlr_el1, x0
    204e2b60:	f9402c20 	ldr	x0, [x1, #88]
    204e2b64:	d518d080 	msr	tpidr_el1, x0
    204e2b68:	f9403020 	ldr	x0, [x1, #96]
    204e2b6c:	d51bd040 	msr	tpidr_el0, x0
    204e2b70:	f9403420 	ldr	x0, [x1, #104]
    204e2b74:	d51bd060 	msr	tpidrro_el0, x0
    204e2b78:	f9405420 	ldr	x0, [x1, #168]
    204e2b7c:	d5187400 	msr	par_el1, x0
    204e2b80:	f9403820 	ldr	x0, [x1, #112]
    204e2b84:	d5186000 	msr	far_el1, x0
    204e2b88:	f9403c20 	ldr	x0, [x1, #120]
    204e2b8c:	d5185100 	msr	afsr0_el1, x0
    204e2b90:	f9404020 	ldr	x0, [x1, #128]
    204e2b94:	d5185120 	msr	afsr1_el1, x0
    204e2b98:	f9404420 	ldr	x0, [x1, #136]
    204e2b9c:	d518d020 	msr	contextidr_el1, x0
    204e2ba0:	f9404820 	ldr	x0, [x1, #144]
    204e2ba4:	d518c000 	msr	vbar_el1, x0
    204e2ba8:	f9404c20 	ldr	x0, [x1, #152]
    204e2bac:	d5100200 	msr	mdccint_el1, x0
    204e2bb0:	f9405020 	ldr	x0, [x1, #160]
    204e2bb4:	d5100240 	msr	mdscr_el1, x0
    204e2bb8:	f9406420 	ldr	x0, [x1, #200]
    204e2bbc:	d51c4320 	msr	spsr_abt, x0
    204e2bc0:	f9406820 	ldr	x0, [x1, #208]
    204e2bc4:	d51c4340 	msr	spsr_und, x0
    204e2bc8:	f9406c20 	ldr	x0, [x1, #216]
    204e2bcc:	d51c4300 	msr	spsr_irq, x0
    204e2bd0:	f9407020 	ldr	x0, [x1, #224]
    204e2bd4:	d51c4360 	msr	spsr_fiq, x0
    204e2bd8:	f9407420 	ldr	x0, [x1, #232]
    204e2bdc:	d51c3000 	msr	dacr32_el2, x0
    204e2be0:	f9407820 	ldr	x0, [x1, #240]
    204e2be4:	d51c5020 	msr	ifsr32_el2, x0
    204e2be8:	f9406020 	ldr	x0, [x1, #192]
    204e2bec:	d518e100 	msr	cntkctl_el1, x0
    204e2bf0:	34000273 	cbz	w19, 204e2c3c <cm_el1_sysregs_context_restore+0x160>
    204e2bf4:	90000053 	adrp	x19, 204ea000 <wakeupmix_irq_mask+0x2c>
    204e2bf8:	90000054 	adrp	x20, 204ea000 <wakeupmix_irq_mask+0x2c>
    204e2bfc:	91104273 	add	x19, x19, #0x410
    204e2c00:	91104294 	add	x20, x20, #0x410
    204e2c04:	eb14027f 	cmp	x19, x20
    204e2c08:	54000142 	b.cs	204e2c30 <cm_el1_sysregs_context_restore+0x154>  // b.hs, b.nlast
    204e2c0c:	f8408661 	ldr	x1, [x19], #8
    204e2c10:	d2800000 	mov	x0, #0x0                   	// #0
    204e2c14:	d63f0020 	blr	x1
    204e2c18:	17fffffb 	b	204e2c04 <cm_el1_sysregs_context_restore+0x128>
    204e2c1c:	f8408661 	ldr	x1, [x19], #8
    204e2c20:	d2800000 	mov	x0, #0x0                   	// #0
    204e2c24:	d63f0020 	blr	x1
    204e2c28:	eb14027f 	cmp	x19, x20
    204e2c2c:	54ffff83 	b.cc	204e2c1c <cm_el1_sysregs_context_restore+0x140>  // b.lo, b.ul, b.last
    204e2c30:	a94153f3 	ldp	x19, x20, [sp, #16]
    204e2c34:	a8c27bfd 	ldp	x29, x30, [sp], #32
    204e2c38:	d65f03c0 	ret
    204e2c3c:	90000053 	adrp	x19, 204ea000 <wakeupmix_irq_mask+0x2c>
    204e2c40:	90000054 	adrp	x20, 204ea000 <wakeupmix_irq_mask+0x2c>
    204e2c44:	91104273 	add	x19, x19, #0x410
    204e2c48:	91104294 	add	x20, x20, #0x410
    204e2c4c:	17fffff7 	b	204e2c28 <cm_el1_sysregs_context_restore+0x14c>

00000000204e2c50 <cm_write_scr_el3_bit>:
    204e2c50:	a9be7bfd 	stp	x29, x30, [sp, #-32]!
    204e2c54:	2a0003e0 	mov	w0, w0
    204e2c58:	910003fd 	mov	x29, sp
    204e2c5c:	a90153f3 	stp	x19, x20, [sp, #16]
    204e2c60:	2a0103f4 	mov	w20, w1
    204e2c64:	2a0203f3 	mov	w19, w2
    204e2c68:	97fff574 	bl	204e0238 <cm_get_context>
    204e2c6c:	f9408001 	ldr	x1, [x0, #256]
    204e2c70:	d2800022 	mov	x2, #0x1                   	// #1
    204e2c74:	9ad42042 	lsl	x2, x2, x20
    204e2c78:	8a220022 	bic	x2, x1, x2
    204e2c7c:	9ad42273 	lsl	x19, x19, x20
    204e2c80:	aa020273 	orr	x19, x19, x2
    204e2c84:	f9008013 	str	x19, [x0, #256]
    204e2c88:	a94153f3 	ldp	x19, x20, [sp, #16]
    204e2c8c:	a8c27bfd 	ldp	x29, x30, [sp], #32
    204e2c90:	d65f03c0 	ret

00000000204e2c94 <cm_set_next_eret_context>:
    204e2c94:	a9bf7bfd 	stp	x29, x30, [sp, #-16]!
    204e2c98:	2a0003e0 	mov	w0, w0
    204e2c9c:	910003fd 	mov	x29, sp
    204e2ca0:	97fff566 	bl	204e0238 <cm_get_context>
    204e2ca4:	d50041bf 	msr	spsel, #0x1
    204e2ca8:	9100001f 	mov	sp, x0
    204e2cac:	d50040bf 	msr	spsel, #0x0
    204e2cb0:	a8c17bfd 	ldp	x29, x30, [sp], #16
    204e2cb4:	d65f03c0 	ret

00000000204e2cb8 <cm_prepare_el3_exit>:
    204e2cb8:	a9be7bfd 	stp	x29, x30, [sp, #-32]!
    204e2cbc:	910003fd 	mov	x29, sp
    204e2cc0:	f9000bf3 	str	x19, [sp, #16]
    204e2cc4:	aa0003f3 	mov	x19, x0
    204e2cc8:	97fff55c 	bl	204e0238 <cm_get_context>
    204e2ccc:	f100067f 	cmp	x19, #0x1
    204e2cd0:	54000121 	b.ne	204e2cf4 <cm_prepare_el3_exit+0x3c>  // b.any
    204e2cd4:	d5380401 	mrs	x1, id_aa64pfr0_el1
    204e2cd8:	f2780c3f 	tst	x1, #0xf00
    204e2cdc:	540000c0 	b.eq	204e2cf4 <cm_prepare_el3_exit+0x3c>  // b.none
    204e2ce0:	f9408000 	ldr	x0, [x0, #256]
    204e2ce4:	36400080 	tbz	w0, #8, 204e2cf4 <cm_prepare_el3_exit+0x3c>
    204e2ce8:	d2810600 	mov	x0, #0x830                 	// #2096
    204e2cec:	f2a618a0 	movk	x0, #0x30c5, lsl #16
    204e2cf0:	d51c1000 	msr	sctlr_el2, x0
    204e2cf4:	2a1303e0 	mov	w0, w19
    204e2cf8:	97ffff79 	bl	204e2adc <cm_el1_sysregs_context_restore>
    204e2cfc:	2a1303e0 	mov	w0, w19
    204e2d00:	f9400bf3 	ldr	x19, [sp, #16]
    204e2d04:	a8c27bfd 	ldp	x29, x30, [sp], #32
    204e2d08:	17ffffe3 	b	204e2c94 <cm_set_next_eret_context>

00000000204e2d0c <cm_prepare_el3_exit_ns>:
    204e2d0c:	d2800020 	mov	x0, #0x1                   	// #1
    204e2d10:	17ffffea 	b	204e2cb8 <cm_prepare_el3_exit>

00000000204e2d14 <cpu_data_init_cpu_ops>:
    204e2d14:	a9be7bfd 	stp	x29, x30, [sp, #-32]!
    204e2d18:	910003fd 	mov	x29, sp
    204e2d1c:	a90153f3 	stp	x19, x20, [sp, #16]
    204e2d20:	d0000073 	adrp	x19, 204f0000 <imx_gicv3_ctx+0x26d0>
    204e2d24:	910e0273 	add	x19, x19, #0x380
    204e2d28:	aa1303e0 	mov	x0, x19
    204e2d2c:	94000048 	bl	204e2e4c <per_cpu_cur_compute>
    204e2d30:	f9400c00 	ldr	x0, [x0, #24]
    204e2d34:	b50000c0 	cbnz	x0, 204e2d4c <cpu_data_init_cpu_ops+0x38>
    204e2d38:	940017ce 	bl	204e8c70 <get_cpu_ops_ptr>
    204e2d3c:	aa0003f4 	mov	x20, x0
    204e2d40:	aa1303e0 	mov	x0, x19
    204e2d44:	94000042 	bl	204e2e4c <per_cpu_cur_compute>
    204e2d48:	f9000c14 	str	x20, [x0, #24]
    204e2d4c:	a94153f3 	ldp	x19, x20, [sp, #16]
    204e2d50:	a8c27bfd 	ldp	x29, x30, [sp], #32
    204e2d54:	d65f03c0 	ret

00000000204e2d58 <mpam_enable_per_world>:
    204e2d58:	f9400401 	ldr	x1, [x0, #8]
    204e2d5c:	9240f421 	and	x1, x1, #0x3fffffffffffffff
    204e2d60:	b2410021 	orr	x1, x1, #0x8000000000000000
    204e2d64:	f9000401 	str	x1, [x0, #8]
    204e2d68:	d65f03c0 	ret

00000000204e2d6c <mpam_init_el3>:
    204e2d6c:	d65f03c0 	ret

00000000204e2d70 <pmuv3_enable>:
    204e2d70:	f9409801 	ldr	x1, [x0, #304]
    204e2d74:	92800802 	mov	x2, #0xffffffffffffffbf    	// #-65
    204e2d78:	f2bfffa2 	movk	x2, #0xfffd, lsl #16
    204e2d7c:	f2dffee2 	movk	x2, #0xfff7, lsl #32
    204e2d80:	8a020021 	and	x1, x1, x2
    204e2d84:	320983e2 	mov	w2, #0x800080              	// #8388736
    204e2d88:	f2c00082 	movk	x2, #0x4, lsl #32
    204e2d8c:	aa020021 	orr	x1, x1, x2
    204e2d90:	f9009801 	str	x1, [x0, #304]
    204e2d94:	d65f03c0 	ret

00000000204e2d98 <pmuv3_init_el3>:
    204e2d98:	d53b9c00 	mrs	x0, pmcr_el0
    204e2d9c:	128006e1 	mov	w1, #0xffffffc8            	// #-56
    204e2da0:	8a010000 	and	x0, x0, x1
    204e2da4:	d28004c1 	mov	x1, #0x26                  	// #38
    204e2da8:	aa010000 	orr	x0, x0, x1
    204e2dac:	d51b9c00 	msr	pmcr_el0, x0
    204e2db0:	d65f03c0 	ret

00000000204e2db4 <spe_enable_ns>:
    204e2db4:	f9409801 	ldr	x1, [x0, #304]
    204e2db8:	d2860002 	mov	x2, #0x3000                	// #12288
    204e2dbc:	f2c08202 	movk	x2, #0x410, lsl #32
    204e2dc0:	9274f821 	and	x1, x1, #0xfffffffffffff7ff
    204e2dc4:	aa020021 	orr	x1, x1, x2
    204e2dc8:	f9009801 	str	x1, [x0, #304]
    204e2dcc:	d65f03c0 	ret

00000000204e2dd0 <spe_disable_secure>:
    204e2dd0:	f9409801 	ldr	x1, [x0, #304]
    204e2dd4:	92830002 	mov	x2, #0xffffffffffffe7ff    	// #-6145
    204e2dd8:	f2df7de2 	movk	x2, #0xfbef, lsl #32
    204e2ddc:	8a020021 	and	x1, x1, x2
    204e2de0:	b2730021 	orr	x1, x1, #0x2000
    204e2de4:	f9009801 	str	x1, [x0, #304]
    204e2de8:	d65f03c0 	ret

00000000204e2dec <sve_init_el3>:
    204e2dec:	d28001e0 	mov	x0, #0xf                   	// #15
    204e2df0:	d51e1200 	msr	zcr_el3, x0
    204e2df4:	d65f03c0 	ret

00000000204e2df8 <sve_enable_per_world>:
    204e2df8:	f9400001 	ldr	x1, [x0]
    204e2dfc:	b2780021 	orr	x1, x1, #0x100
    204e2e00:	f9000001 	str	x1, [x0]
    204e2e04:	d65f03c0 	ret

00000000204e2e08 <sve_disable_per_world>:
    204e2e08:	f9400001 	ldr	x1, [x0]
    204e2e0c:	12802002 	mov	w2, #0xfffffeff            	// #-257
    204e2e10:	8a020021 	and	x1, x1, x2
    204e2e14:	f9000001 	str	x1, [x0]
    204e2e18:	d65f03c0 	ret

00000000204e2e1c <per_cpu_by_index_compute>:
    204e2e1c:	a9be7bfd 	stp	x29, x30, [sp, #-32]!
    204e2e20:	910003fd 	mov	x29, sp
    204e2e24:	f9000bf3 	str	x19, [sp, #16]
    204e2e28:	aa0103f3 	mov	x19, x1
    204e2e2c:	94001817 	bl	204e8e88 <per_cpu_base>
    204e2e30:	d0000061 	adrp	x1, 204f0000 <imx_gicv3_ctx+0x26d0>
    204e2e34:	910e0021 	add	x1, x1, #0x380
    204e2e38:	cb010273 	sub	x19, x19, x1
    204e2e3c:	8b130000 	add	x0, x0, x19
    204e2e40:	f9400bf3 	ldr	x19, [sp, #16]
    204e2e44:	a8c27bfd 	ldp	x29, x30, [sp], #32
    204e2e48:	d65f03c0 	ret

00000000204e2e4c <per_cpu_cur_compute>:
    204e2e4c:	d53ed042 	mrs	x2, tpidr_el3
    204e2e50:	d0000061 	adrp	x1, 204f0000 <imx_gicv3_ctx+0x26d0>
    204e2e54:	910e0021 	add	x1, x1, #0x380
    204e2e58:	cb010000 	sub	x0, x0, x1
    204e2e5c:	8b020000 	add	x0, x0, x2
    204e2e60:	d65f03c0 	ret

00000000204e2e64 <psci_set_req_local_pwr_state>:
    204e2e64:	51000400 	sub	w0, w0, #0x1
    204e2e68:	12001c42 	and	w2, w2, #0xff
    204e2e6c:	7100041f 	cmp	w0, #0x1
    204e2e70:	54000128 	b.hi	204e2e94 <psci_set_req_local_pwr_state+0x30>  // b.pmore
    204e2e74:	d0000063 	adrp	x3, 204f0000 <imx_gicv3_ctx+0x26d0>
    204e2e78:	b9412863 	ldr	w3, [x3, #296]
    204e2e7c:	6b01007f 	cmp	w3, w1
    204e2e80:	540000a9 	b.ls	204e2e94 <psci_set_req_local_pwr_state+0x30>  // b.plast
    204e2e84:	d0000063 	adrp	x3, 204f0000 <imx_gicv3_ctx+0x26d0>
    204e2e88:	910be463 	add	x3, x3, #0x2f9
    204e2e8c:	8b204460 	add	x0, x3, w0, uxtw #1
    204e2e90:	38214802 	strb	w2, [x0, w1, uxtw]
    204e2e94:	d65f03c0 	ret

00000000204e2e98 <call_cpu_pwr_dwn>:
    204e2e98:	a9be7bfd 	stp	x29, x30, [sp, #-32]!
    204e2e9c:	910003fd 	mov	x29, sp
    204e2ea0:	f9000bf3 	str	x19, [sp, #16]
    204e2ea4:	2a0003f3 	mov	w19, w0
    204e2ea8:	d0000060 	adrp	x0, 204f0000 <imx_gicv3_ctx+0x26d0>
    204e2eac:	910e0000 	add	x0, x0, #0x380
    204e2eb0:	97ffffe7 	bl	204e2e4c <per_cpu_cur_compute>
    204e2eb4:	f9400c00 	ldr	x0, [x0, #24]
    204e2eb8:	7100027f 	cmp	w19, #0x0
    204e2ebc:	1a9f0673 	csinc	w19, w19, wzr, eq	// eq = none
    204e2ec0:	8b130c13 	add	x19, x0, x19, lsl #3
    204e2ec4:	f9400e60 	ldr	x0, [x19, #24]
    204e2ec8:	f9400bf3 	ldr	x19, [sp, #16]
    204e2ecc:	aa0003f0 	mov	x16, x0
    204e2ed0:	a8c27bfd 	ldp	x29, x30, [sp], #32
    204e2ed4:	d61f0200 	br	x16

00000000204e2ed8 <psci_validate_power_state>:
    204e2ed8:	52bf9fc2 	mov	w2, #0xfcfe0000            	// #-50462720
    204e2edc:	6a02001f 	tst	w0, w2
    204e2ee0:	540000c1 	b.ne	204e2ef8 <psci_validate_power_state+0x20>  // b.any
    204e2ee4:	f0000042 	adrp	x2, 204ed000 <__STACKS_START__+0x1280>
    204e2ee8:	f9423042 	ldr	x2, [x2, #1120]
    204e2eec:	f9403042 	ldr	x2, [x2, #96]
    204e2ef0:	aa0203f0 	mov	x16, x2
    204e2ef4:	d61f0200 	br	x16
    204e2ef8:	12800020 	mov	w0, #0xfffffffe            	// #-2
    204e2efc:	d65f03c0 	ret

00000000204e2f00 <psci_query_sys_suspend_pwrstate>:
    204e2f00:	f0000041 	adrp	x1, 204ed000 <__STACKS_START__+0x1280>
    204e2f04:	f9423021 	ldr	x1, [x1, #1120]
    204e2f08:	f9403821 	ldr	x1, [x1, #112]
    204e2f0c:	aa0103f0 	mov	x16, x1
    204e2f10:	d61f0200 	br	x16

00000000204e2f14 <psci_is_last_on_cpu>:
    204e2f14:	a9bd7bfd 	stp	x29, x30, [sp, #-48]!
    204e2f18:	910003fd 	mov	x29, sp
    204e2f1c:	a90153f3 	stp	x19, x20, [sp, #16]
    204e2f20:	2a0003f4 	mov	w20, w0
    204e2f24:	d0000060 	adrp	x0, 204f0000 <imx_gicv3_ctx+0x26d0>
    204e2f28:	a9025bf5 	stp	x21, x22, [sp, #32]
    204e2f2c:	d0000075 	adrp	x21, 204f0000 <imx_gicv3_ctx+0x26d0>
    204e2f30:	b9412816 	ldr	w22, [x0, #296]
    204e2f34:	910e02b5 	add	x21, x21, #0x380
    204e2f38:	52800013 	mov	w19, #0x0                   	// #0
    204e2f3c:	6b1302df 	cmp	w22, w19
    204e2f40:	540000c1 	b.ne	204e2f58 <psci_is_last_on_cpu+0x44>  // b.any
    204e2f44:	52800020 	mov	w0, #0x1                   	// #1
    204e2f48:	a94153f3 	ldp	x19, x20, [sp, #16]
    204e2f4c:	a9425bf5 	ldp	x21, x22, [sp, #32]
    204e2f50:	a8c37bfd 	ldp	x29, x30, [sp], #48
    204e2f54:	d65f03c0 	ret
    204e2f58:	6b14027f 	cmp	w19, w20
    204e2f5c:	540000e0 	b.eq	204e2f78 <psci_is_last_on_cpu+0x64>  // b.none
    204e2f60:	aa1503e1 	mov	x1, x21
    204e2f64:	2a1303e0 	mov	w0, w19
    204e2f68:	97ffffad 	bl	204e2e1c <per_cpu_by_index_compute>
    204e2f6c:	b9402000 	ldr	w0, [x0, #32]
    204e2f70:	7100041f 	cmp	w0, #0x1
    204e2f74:	54000061 	b.ne	204e2f80 <psci_is_last_on_cpu+0x6c>  // b.any
    204e2f78:	11000673 	add	w19, w19, #0x1
    204e2f7c:	17fffff0 	b	204e2f3c <psci_is_last_on_cpu+0x28>
    204e2f80:	52800000 	mov	w0, #0x0                   	// #0
    204e2f84:	17fffff1 	b	204e2f48 <psci_is_last_on_cpu+0x34>

00000000204e2f88 <psci_init_req_local_pwr_states>:
    204e2f88:	d0000060 	adrp	x0, 204f0000 <imx_gicv3_ctx+0x26d0>
    204e2f8c:	b9412802 	ldr	w2, [x0, #296]
    204e2f90:	34000102 	cbz	w2, 204e2fb0 <psci_init_req_local_pwr_states+0x28>
    204e2f94:	d0000063 	adrp	x3, 204f0000 <imx_gicv3_ctx+0x26d0>
    204e2f98:	52800080 	mov	w0, #0x4                   	// #4
    204e2f9c:	910be461 	add	x1, x3, #0x2f9
    204e2fa0:	390be460 	strb	w0, [x3, #761]
    204e2fa4:	7100045f 	cmp	w2, #0x1
    204e2fa8:	54000061 	b.ne	204e2fb4 <psci_init_req_local_pwr_states+0x2c>  // b.any
    204e2fac:	39000820 	strb	w0, [x1, #2]
    204e2fb0:	d65f03c0 	ret
    204e2fb4:	39000420 	strb	w0, [x1, #1]
    204e2fb8:	39000820 	strb	w0, [x1, #2]
    204e2fbc:	39000c20 	strb	w0, [x1, #3]
    204e2fc0:	17fffffc 	b	204e2fb0 <psci_init_req_local_pwr_states+0x28>

00000000204e2fc4 <psci_get_target_local_pwr_states>:
    204e2fc4:	a9bd7bfd 	stp	x29, x30, [sp, #-48]!
    204e2fc8:	910003fd 	mov	x29, sp
    204e2fcc:	a90153f3 	stp	x19, x20, [sp, #16]
    204e2fd0:	aa0203f3 	mov	x19, x2
    204e2fd4:	2a0103f4 	mov	w20, w1
    204e2fd8:	f90013f5 	str	x21, [sp, #32]
    204e2fdc:	2a0003f5 	mov	w21, w0
    204e2fe0:	d0000060 	adrp	x0, 204f0000 <imx_gicv3_ctx+0x26d0>
    204e2fe4:	910e0000 	add	x0, x0, #0x380
    204e2fe8:	97ffff99 	bl	204e2e4c <per_cpu_cur_compute>
    204e2fec:	3940a000 	ldrb	w0, [x0, #40]
    204e2ff0:	39000260 	strb	w0, [x19]
    204e2ff4:	d0000061 	adrp	x1, 204f0000 <imx_gicv3_ctx+0x26d0>
    204e2ff8:	2a1503e0 	mov	w0, w21
    204e2ffc:	91190021 	add	x1, x1, #0x640
    204e3000:	97ffff87 	bl	204e2e1c <per_cpu_by_index_compute>
    204e3004:	b9400802 	ldr	w2, [x0, #8]
    204e3008:	b0000061 	adrp	x1, 204f0000 <imx_gicv3_ctx+0x26d0>
    204e300c:	91042021 	add	x1, x1, #0x108
    204e3010:	52800020 	mov	w0, #0x1                   	// #1
    204e3014:	6b14001f 	cmp	w0, w20
    204e3018:	2a0003e3 	mov	w3, w0
    204e301c:	54000109 	b.ls	204e303c <psci_get_target_local_pwr_states+0x78>  // b.plast
    204e3020:	8b030273 	add	x19, x19, x3
    204e3024:	7100081f 	cmp	w0, #0x2
    204e3028:	54000169 	b.ls	204e3054 <psci_get_target_local_pwr_states+0x90>  // b.plast
    204e302c:	a94153f3 	ldp	x19, x20, [sp, #16]
    204e3030:	f94013f5 	ldr	x21, [sp, #32]
    204e3034:	a8c37bfd 	ldp	x29, x30, [sp], #48
    204e3038:	d65f03c0 	ret
    204e303c:	8b225022 	add	x2, x1, w2, uxtw #4
    204e3040:	11000400 	add	w0, w0, #0x1
    204e3044:	39403044 	ldrb	w4, [x2, #12]
    204e3048:	38236a64 	strb	w4, [x19, x3]
    204e304c:	b9400842 	ldr	w2, [x2, #8]
    204e3050:	17fffff1 	b	204e3014 <psci_get_target_local_pwr_states+0x50>
    204e3054:	11000400 	add	w0, w0, #0x1
    204e3058:	3800167f 	strb	wzr, [x19], #1
    204e305c:	17fffff2 	b	204e3024 <psci_get_target_local_pwr_states+0x60>

00000000204e3060 <psci_set_target_local_pwr_states>:
    204e3060:	a9bd7bfd 	stp	x29, x30, [sp, #-48]!
    204e3064:	910003fd 	mov	x29, sp
    204e3068:	a90153f3 	stp	x19, x20, [sp, #16]
    204e306c:	2a0103f4 	mov	w20, w1
    204e3070:	aa0203f3 	mov	x19, x2
    204e3074:	a9025bf5 	stp	x21, x22, [sp, #32]
    204e3078:	2a0003f5 	mov	w21, w0
    204e307c:	b0000060 	adrp	x0, 204f0000 <imx_gicv3_ctx+0x26d0>
    204e3080:	39400056 	ldrb	w22, [x2]
    204e3084:	910e0000 	add	x0, x0, #0x380
    204e3088:	97ffff71 	bl	204e2e4c <per_cpu_cur_compute>
    204e308c:	3900a016 	strb	w22, [x0, #40]
    204e3090:	b0000061 	adrp	x1, 204f0000 <imx_gicv3_ctx+0x26d0>
    204e3094:	2a1503e0 	mov	w0, w21
    204e3098:	91190021 	add	x1, x1, #0x640
    204e309c:	97ffff60 	bl	204e2e1c <per_cpu_by_index_compute>
    204e30a0:	b9400800 	ldr	w0, [x0, #8]
    204e30a4:	b0000061 	adrp	x1, 204f0000 <imx_gicv3_ctx+0x26d0>
    204e30a8:	91042021 	add	x1, x1, #0x108
    204e30ac:	52800023 	mov	w3, #0x1                   	// #1
    204e30b0:	6b14007f 	cmp	w3, w20
    204e30b4:	540000a9 	b.ls	204e30c8 <psci_set_target_local_pwr_states+0x68>  // b.plast
    204e30b8:	a94153f3 	ldp	x19, x20, [sp, #16]
    204e30bc:	a9425bf5 	ldp	x21, x22, [sp, #32]
    204e30c0:	a8c37bfd 	ldp	x29, x30, [sp], #48
    204e30c4:	d65f03c0 	ret
    204e30c8:	8b205020 	add	x0, x1, w0, uxtw #4
    204e30cc:	38634a62 	ldrb	w2, [x19, w3, uxtw]
    204e30d0:	11000463 	add	w3, w3, #0x1
    204e30d4:	39003002 	strb	w2, [x0, #12]
    204e30d8:	b9400800 	ldr	w0, [x0, #8]
    204e30dc:	17fffff5 	b	204e30b0 <psci_set_target_local_pwr_states+0x50>

00000000204e30e0 <psci_get_parent_pwr_domain_nodes>:
    204e30e0:	a9be7bfd 	stp	x29, x30, [sp, #-32]!
    204e30e4:	910003fd 	mov	x29, sp
    204e30e8:	a90153f3 	stp	x19, x20, [sp, #16]
    204e30ec:	aa0203f3 	mov	x19, x2
    204e30f0:	2a0103f4 	mov	w20, w1
    204e30f4:	b0000061 	adrp	x1, 204f0000 <imx_gicv3_ctx+0x26d0>
    204e30f8:	91190021 	add	x1, x1, #0x640
    204e30fc:	97ffff48 	bl	204e2e1c <per_cpu_by_index_compute>
    204e3100:	b9400800 	ldr	w0, [x0, #8]
    204e3104:	b0000061 	adrp	x1, 204f0000 <imx_gicv3_ctx+0x26d0>
    204e3108:	d1001273 	sub	x19, x19, #0x4
    204e310c:	91042021 	add	x1, x1, #0x108
    204e3110:	d2800002 	mov	x2, #0x0                   	// #0
    204e3114:	91000442 	add	x2, x2, #0x1
    204e3118:	6b02029f 	cmp	w20, w2
    204e311c:	54000082 	b.cs	204e312c <psci_get_parent_pwr_domain_nodes+0x4c>  // b.hs, b.nlast
    204e3120:	a94153f3 	ldp	x19, x20, [sp, #16]
    204e3124:	a8c27bfd 	ldp	x29, x30, [sp], #32
    204e3128:	d65f03c0 	ret
    204e312c:	b8227a60 	str	w0, [x19, x2, lsl #2]
    204e3130:	8b205020 	add	x0, x1, w0, uxtw #4
    204e3134:	b9400800 	ldr	w0, [x0, #8]
    204e3138:	17fffff7 	b	204e3114 <psci_get_parent_pwr_domain_nodes+0x34>

00000000204e313c <psci_set_pwr_domains_to_run>:
    204e313c:	a9be7bfd 	stp	x29, x30, [sp, #-32]!
    204e3140:	910003fd 	mov	x29, sp
    204e3144:	a90153f3 	stp	x19, x20, [sp, #16]
    204e3148:	2a0003f4 	mov	w20, w0
    204e314c:	2a0103f3 	mov	w19, w1
    204e3150:	b0000061 	adrp	x1, 204f0000 <imx_gicv3_ctx+0x26d0>
    204e3154:	91190021 	add	x1, x1, #0x640
    204e3158:	97ffff31 	bl	204e2e1c <per_cpu_by_index_compute>
    204e315c:	b9400804 	ldr	w4, [x0, #8]
    204e3160:	b0000066 	adrp	x6, 204f0000 <imx_gicv3_ctx+0x26d0>
    204e3164:	910420c6 	add	x6, x6, #0x108
    204e3168:	52800025 	mov	w5, #0x1                   	// #1
    204e316c:	6b1300bf 	cmp	w5, w19
    204e3170:	54000189 	b.ls	204e31a0 <psci_set_pwr_domains_to_run+0x64>  // b.plast
    204e3174:	b0000073 	adrp	x19, 204f0000 <imx_gicv3_ctx+0x26d0>
    204e3178:	910e0273 	add	x19, x19, #0x380
    204e317c:	aa1303e0 	mov	x0, x19
    204e3180:	97ffff33 	bl	204e2e4c <per_cpu_cur_compute>
    204e3184:	b900201f 	str	wzr, [x0, #32]
    204e3188:	aa1303e0 	mov	x0, x19
    204e318c:	97ffff30 	bl	204e2e4c <per_cpu_cur_compute>
    204e3190:	3900a01f 	strb	wzr, [x0, #40]
    204e3194:	a94153f3 	ldp	x19, x20, [sp, #16]
    204e3198:	a8c27bfd 	ldp	x29, x30, [sp], #32
    204e319c:	d65f03c0 	ret
    204e31a0:	8b2450c4 	add	x4, x6, w4, uxtw #4
    204e31a4:	2a0503e0 	mov	w0, w5
    204e31a8:	2a1403e1 	mov	w1, w20
    204e31ac:	52800002 	mov	w2, #0x0                   	// #0
    204e31b0:	110004a5 	add	w5, w5, #0x1
    204e31b4:	3900309f 	strb	wzr, [x4, #12]
    204e31b8:	97ffff2b 	bl	204e2e64 <psci_set_req_local_pwr_state>
    204e31bc:	b9400884 	ldr	w4, [x4, #8]
    204e31c0:	17ffffeb 	b	204e316c <psci_set_pwr_domains_to_run+0x30>

00000000204e31c4 <psci_do_state_coordination>:
    204e31c4:	a9bb7bfd 	stp	x29, x30, [sp, #-80]!
    204e31c8:	910003fd 	mov	x29, sp
    204e31cc:	a90153f3 	stp	x19, x20, [sp, #16]
    204e31d0:	aa0203f4 	mov	x20, x2
    204e31d4:	a9025bf5 	stp	x21, x22, [sp, #32]
    204e31d8:	2a0003f6 	mov	w22, w0
    204e31dc:	2a0103f5 	mov	w21, w1
    204e31e0:	b0000061 	adrp	x1, 204f0000 <imx_gicv3_ctx+0x26d0>
    204e31e4:	91190021 	add	x1, x1, #0x640
    204e31e8:	a90363f7 	stp	x23, x24, [sp, #48]
    204e31ec:	b0000077 	adrp	x23, 204f0000 <imx_gicv3_ctx+0x26d0>
    204e31f0:	b0000078 	adrp	x24, 204f0000 <imx_gicv3_ctx+0x26d0>
    204e31f4:	a9046bf9 	stp	x25, x26, [sp, #64]
    204e31f8:	97ffff09 	bl	204e2e1c <per_cpu_by_index_compute>
    204e31fc:	b9400805 	ldr	w5, [x0, #8]
    204e3200:	910422f7 	add	x23, x23, #0x108
    204e3204:	9104a318 	add	x24, x24, #0x128
    204e3208:	52800024 	mov	w4, #0x1                   	// #1
    204e320c:	6b15009f 	cmp	w4, w21
    204e3210:	11000493 	add	w19, w4, #0x1
    204e3214:	54000129 	b.ls	204e3238 <psci_do_state_coordination+0x74>  // b.plast
    204e3218:	6b15027f 	cmp	w19, w21
    204e321c:	540004c9 	b.ls	204e32b4 <psci_do_state_coordination+0xf0>  // b.plast
    204e3220:	a94153f3 	ldp	x19, x20, [sp, #16]
    204e3224:	a9425bf5 	ldp	x21, x22, [sp, #32]
    204e3228:	a94363f7 	ldp	x23, x24, [sp, #48]
    204e322c:	a9446bf9 	ldp	x25, x26, [sp, #64]
    204e3230:	a8c57bfd 	ldp	x29, x30, [sp], #80
    204e3234:	d65f03c0 	ret
    204e3238:	2a0403f9 	mov	w25, w4
    204e323c:	2a0503fa 	mov	w26, w5
    204e3240:	d37c7ca5 	ubfiz	x5, x5, #4, #32
    204e3244:	2a1603e1 	mov	w1, w22
    204e3248:	2a0403e0 	mov	w0, w4
    204e324c:	38796a82 	ldrb	w2, [x20, x25]
    204e3250:	97ffff05 	bl	204e2e64 <psci_set_req_local_pwr_state>
    204e3254:	b8656ae1 	ldr	w1, [x23, x5]
    204e3258:	51000483 	sub	w3, w4, #0x1
    204e325c:	7100047f 	cmp	w3, #0x1
    204e3260:	54000268 	b.hi	204e32ac <psci_do_state_coordination+0xe8>  // b.pmore
    204e3264:	2a0103e0 	mov	w0, w1
    204e3268:	b9400302 	ldr	w2, [x24]
    204e326c:	8b234403 	add	x3, x0, w3, uxtw #1
    204e3270:	b0000060 	adrp	x0, 204f0000 <imx_gicv3_ctx+0x26d0>
    204e3274:	910be400 	add	x0, x0, #0x2f9
    204e3278:	6b02003f 	cmp	w1, w2
    204e327c:	8b000063 	add	x3, x3, x0
    204e3280:	9a9f3061 	csel	x1, x3, xzr, cc	// cc = lo, ul, last
    204e3284:	8b1a12fa 	add	x26, x23, x26, lsl #4
    204e3288:	2a0403e0 	mov	w0, w4
    204e328c:	b9400742 	ldr	w2, [x26, #4]
    204e3290:	9400076e 	bl	204e5048 <plat_get_target_pwr_state>
    204e3294:	38396a80 	strb	w0, [x20, x25]
    204e3298:	72001c1f 	tst	w0, #0xff
    204e329c:	54fffbe0 	b.eq	204e3218 <psci_do_state_coordination+0x54>  // b.none
    204e32a0:	b9400b45 	ldr	w5, [x26, #8]
    204e32a4:	2a1303e4 	mov	w4, w19
    204e32a8:	17ffffd9 	b	204e320c <psci_do_state_coordination+0x48>
    204e32ac:	d2800001 	mov	x1, #0x0                   	// #0
    204e32b0:	17fffff5 	b	204e3284 <psci_do_state_coordination+0xc0>
    204e32b4:	2a1303e4 	mov	w4, w19
    204e32b8:	2a1303e0 	mov	w0, w19
    204e32bc:	2a1603e1 	mov	w1, w22
    204e32c0:	11000673 	add	w19, w19, #0x1
    204e32c4:	38646a82 	ldrb	w2, [x20, x4]
    204e32c8:	97fffee7 	bl	204e2e64 <psci_set_req_local_pwr_state>
    204e32cc:	38246a9f 	strb	wzr, [x20, x4]
    204e32d0:	17ffffd2 	b	204e3218 <psci_do_state_coordination+0x54>

00000000204e32d4 <psci_find_max_off_lvl>:
    204e32d4:	39400801 	ldrb	w1, [x0, #2]
    204e32d8:	51000c21 	sub	w1, w1, #0x3
    204e32dc:	7100043f 	cmp	w1, #0x1
    204e32e0:	54000189 	b.ls	204e3310 <psci_find_max_off_lvl+0x3c>  // b.plast
    204e32e4:	39400401 	ldrb	w1, [x0, #1]
    204e32e8:	51000c21 	sub	w1, w1, #0x3
    204e32ec:	7100043f 	cmp	w1, #0x1
    204e32f0:	54000149 	b.ls	204e3318 <psci_find_max_off_lvl+0x44>  // b.plast
    204e32f4:	39400001 	ldrb	w1, [x0]
    204e32f8:	52800060 	mov	w0, #0x3                   	// #3
    204e32fc:	51000c21 	sub	w1, w1, #0x3
    204e3300:	7100043f 	cmp	w1, #0x1
    204e3304:	54000048 	b.hi	204e330c <psci_find_max_off_lvl+0x38>  // b.pmore
    204e3308:	52800000 	mov	w0, #0x0                   	// #0
    204e330c:	d65f03c0 	ret
    204e3310:	52800040 	mov	w0, #0x2                   	// #2
    204e3314:	17fffffe 	b	204e330c <psci_find_max_off_lvl+0x38>
    204e3318:	52800020 	mov	w0, #0x1                   	// #1
    204e331c:	17fffffc 	b	204e330c <psci_find_max_off_lvl+0x38>

00000000204e3320 <psci_find_target_suspend_lvl>:
    204e3320:	39400801 	ldrb	w1, [x0, #2]
    204e3324:	35000101 	cbnz	w1, 204e3344 <psci_find_target_suspend_lvl+0x24>
    204e3328:	39400401 	ldrb	w1, [x0, #1]
    204e332c:	35000101 	cbnz	w1, 204e334c <psci_find_target_suspend_lvl+0x2c>
    204e3330:	39400001 	ldrb	w1, [x0]
    204e3334:	52800060 	mov	w0, #0x3                   	// #3
    204e3338:	34000041 	cbz	w1, 204e3340 <psci_find_target_suspend_lvl+0x20>
    204e333c:	52800000 	mov	w0, #0x0                   	// #0
    204e3340:	d65f03c0 	ret
    204e3344:	52800040 	mov	w0, #0x2                   	// #2
    204e3348:	17fffffe 	b	204e3340 <psci_find_target_suspend_lvl+0x20>
    204e334c:	52800020 	mov	w0, #0x1                   	// #1
    204e3350:	17fffffc 	b	204e3340 <psci_find_target_suspend_lvl+0x20>

00000000204e3354 <psci_acquire_pwr_domain_locks>:
    204e3354:	a9bc7bfd 	stp	x29, x30, [sp, #-64]!
    204e3358:	910003fd 	mov	x29, sp
    204e335c:	a90153f3 	stp	x19, x20, [sp, #16]
    204e3360:	2a0003f4 	mov	w20, w0
    204e3364:	52800033 	mov	w19, #0x1                   	// #1
    204e3368:	a9025bf5 	stp	x21, x22, [sp, #32]
    204e336c:	b0000076 	adrp	x22, 204f0000 <imx_gicv3_ctx+0x26d0>
    204e3370:	aa0103f5 	mov	x21, x1
    204e3374:	910422d6 	add	x22, x22, #0x108
    204e3378:	f9001bf7 	str	x23, [sp, #48]
    204e337c:	b0000077 	adrp	x23, 204f0000 <imx_gicv3_ctx+0x26d0>
    204e3380:	910402f7 	add	x23, x23, #0x100
    204e3384:	6b14027f 	cmp	w19, w20
    204e3388:	540000c9 	b.ls	204e33a0 <psci_acquire_pwr_domain_locks+0x4c>  // b.plast
    204e338c:	a94153f3 	ldp	x19, x20, [sp, #16]
    204e3390:	a9425bf5 	ldp	x21, x22, [sp, #32]
    204e3394:	f9401bf7 	ldr	x23, [sp, #48]
    204e3398:	a8c47bfd 	ldp	x29, x30, [sp], #64
    204e339c:	d65f03c0 	ret
    204e33a0:	51000660 	sub	w0, w19, #0x1
    204e33a4:	11000673 	add	w19, w19, #0x1
    204e33a8:	b8607aa0 	ldr	w0, [x21, x0, lsl #2]
    204e33ac:	8b0012c0 	add	x0, x22, x0, lsl #4
    204e33b0:	79401c00 	ldrh	w0, [x0, #14]
    204e33b4:	8b000ae0 	add	x0, x23, x0, lsl #2
    204e33b8:	940016aa 	bl	204e8e60 <spin_lock>
    204e33bc:	17fffff2 	b	204e3384 <psci_acquire_pwr_domain_locks+0x30>

00000000204e33c0 <psci_release_pwr_domain_locks>:
    204e33c0:	a9bd7bfd 	stp	x29, x30, [sp, #-48]!
    204e33c4:	910003fd 	mov	x29, sp
    204e33c8:	a90153f3 	stp	x19, x20, [sp, #16]
    204e33cc:	2a0003f3 	mov	w19, w0
    204e33d0:	aa0103f4 	mov	x20, x1
    204e33d4:	a9025bf5 	stp	x21, x22, [sp, #32]
    204e33d8:	b0000075 	adrp	x21, 204f0000 <imx_gicv3_ctx+0x26d0>
    204e33dc:	b0000076 	adrp	x22, 204f0000 <imx_gicv3_ctx+0x26d0>
    204e33e0:	910422b5 	add	x21, x21, #0x108
    204e33e4:	910402d6 	add	x22, x22, #0x100
    204e33e8:	350000b3 	cbnz	w19, 204e33fc <psci_release_pwr_domain_locks+0x3c>
    204e33ec:	a94153f3 	ldp	x19, x20, [sp, #16]
    204e33f0:	a9425bf5 	ldp	x21, x22, [sp, #32]
    204e33f4:	a8c37bfd 	ldp	x29, x30, [sp], #48
    204e33f8:	d65f03c0 	ret
    204e33fc:	51000673 	sub	w19, w19, #0x1
    204e3400:	b8735a80 	ldr	w0, [x20, w19, uxtw #2]
    204e3404:	8b0012a0 	add	x0, x21, x0, lsl #4
    204e3408:	79401c00 	ldrh	w0, [x0, #14]
    204e340c:	8b000ac0 	add	x0, x22, x0, lsl #2
    204e3410:	9400169c 	bl	204e8e80 <spin_unlock>
    204e3414:	17fffff5 	b	204e33e8 <psci_release_pwr_domain_locks+0x28>

00000000204e3418 <psci_validate_entry_point>:
    204e3418:	a9bb7bfd 	stp	x29, x30, [sp, #-80]!
    204e341c:	910003fd 	mov	x29, sp
    204e3420:	a90153f3 	stp	x19, x20, [sp, #16]
    204e3424:	aa0003f4 	mov	x20, x0
    204e3428:	d0000040 	adrp	x0, 204ed000 <__STACKS_START__+0x1280>
    204e342c:	aa0103f3 	mov	x19, x1
    204e3430:	a9025bf5 	stp	x21, x22, [sp, #32]
    204e3434:	f9423000 	ldr	x0, [x0, #1120]
    204e3438:	a90363f7 	stp	x23, x24, [sp, #48]
    204e343c:	aa0203f8 	mov	x24, x2
    204e3440:	f9403401 	ldr	x1, [x0, #104]
    204e3444:	f90023f9 	str	x25, [sp, #64]
    204e3448:	b5000361 	cbnz	x1, 204e34b4 <psci_validate_entry_point+0x9c>
    204e344c:	d53e1117 	mrs	x23, scr_el3
    204e3450:	d5381000 	mrs	x0, sctlr_el1
    204e3454:	927802f9 	and	x25, x23, #0x100
    204e3458:	37400437 	tbnz	w23, #8, 204e34dc <psci_validate_entry_point+0xc4>
    204e345c:	f2670000 	ands	x0, x0, #0x2000000
    204e3460:	52802021 	mov	w1, #0x101                 	// #257
    204e3464:	72a00b01 	movk	w1, #0x58, lsl #16
    204e3468:	d2800075 	mov	x21, #0x3                   	// #3
    204e346c:	9a9f16a0 	csinc	x0, x21, xzr, ne	// ne = any
    204e3470:	29000281 	stp	w1, w0, [x20]
    204e3474:	f9000693 	str	x19, [x20, #8]
    204e3478:	1a9f07f6 	cset	w22, ne	// ne = any
    204e347c:	91006280 	add	x0, x20, #0x18
    204e3480:	d2800801 	mov	x1, #0x40                  	// #64
    204e3484:	94001588 	bl	204e8aa4 <zeromem>
    204e3488:	f9000e98 	str	x24, [x20, #24]
    204e348c:	365002d7 	tbz	w23, #10, 204e34e4 <psci_validate_entry_point+0xcc>
    204e3490:	37000193 	tbnz	w19, #0, 204e34c0 <psci_validate_entry_point+0xa8>
    204e3494:	f100033f 	cmp	x25, #0x0
    204e3498:	52807821 	mov	w1, #0x3c1                 	// #961
    204e349c:	1a9f07e0 	cset	w0, ne	// ne = any
    204e34a0:	11000400 	add	w0, w0, #0x1
    204e34a4:	2a000820 	orr	w0, w1, w0, lsl #2
    204e34a8:	b9001280 	str	w0, [x20, #16]
    204e34ac:	52800000 	mov	w0, #0x0                   	// #0
    204e34b0:	14000005 	b	204e34c4 <psci_validate_entry_point+0xac>
    204e34b4:	aa1303e0 	mov	x0, x19
    204e34b8:	d63f0020 	blr	x1
    204e34bc:	34fffc80 	cbz	w0, 204e344c <psci_validate_entry_point+0x34>
    204e34c0:	12800100 	mov	w0, #0xfffffff7            	// #-9
    204e34c4:	a94153f3 	ldp	x19, x20, [sp, #16]
    204e34c8:	a9425bf5 	ldp	x21, x22, [sp, #32]
    204e34cc:	a94363f7 	ldp	x23, x24, [sp, #48]
    204e34d0:	f94023f9 	ldr	x25, [sp, #64]
    204e34d4:	a8c57bfd 	ldp	x29, x30, [sp], #80
    204e34d8:	d65f03c0 	ret
    204e34dc:	d53c1000 	mrs	x0, sctlr_el2
    204e34e0:	17ffffdf 	b	204e345c <psci_validate_entry_point+0x44>
    204e34e4:	52800140 	mov	w0, #0xa                   	// #10
    204e34e8:	f100033f 	cmp	x25, #0x0
    204e34ec:	1a8002b5 	csel	w21, w21, w0, eq	// eq = none
    204e34f0:	531b0273 	ubfiz	w19, w19, #5, #1
    204e34f4:	52803a00 	mov	w0, #0x1d0                 	// #464
    204e34f8:	2a150273 	orr	w19, w19, w21
    204e34fc:	2a162416 	orr	w22, w0, w22, lsl #9
    204e3500:	2a160273 	orr	w19, w19, w22
    204e3504:	b9001293 	str	w19, [x20, #16]
    204e3508:	17ffffe9 	b	204e34ac <psci_validate_entry_point+0x94>

00000000204e350c <psci_warmboot_entrypoint>:
    204e350c:	a9bc7bfd 	stp	x29, x30, [sp, #-64]!
    204e3510:	910003fd 	mov	x29, sp
    204e3514:	f90013f5 	str	x21, [sp, #32]
    204e3518:	b0000075 	adrp	x21, 204f0000 <imx_gicv3_ctx+0x26d0>
    204e351c:	910e02b5 	add	x21, x21, #0x380
    204e3520:	a90153f3 	stp	x19, x20, [sp, #16]
    204e3524:	2a0003f3 	mov	w19, w0
    204e3528:	aa1503e0 	mov	x0, x21
    204e352c:	790063ff 	strh	wzr, [sp, #48]
    204e3530:	3900cbff 	strb	wzr, [sp, #50]
    204e3534:	f9001fff 	str	xzr, [sp, #56]
    204e3538:	97fffe45 	bl	204e2e4c <per_cpu_cur_compute>
    204e353c:	b9402001 	ldr	w1, [x0, #32]
    204e3540:	7100043f 	cmp	w1, #0x1
    204e3544:	540000c1 	b.ne	204e355c <psci_warmboot_entrypoint+0x50>  // b.any
    204e3548:	f0000020 	adrp	x0, 204ea000 <wakeupmix_irq_mask+0x2c>
    204e354c:	9103a000 	add	x0, x0, #0xe8
    204e3550:	97fff579 	bl	204e0b34 <tf_log>
    204e3554:	97fffa1e 	bl	204e1dcc <console_flush>
    204e3558:	940014d9 	bl	204e88bc <el3_panic>
    204e355c:	b9402414 	ldr	w20, [x0, #36]
    204e3560:	9100e3e2 	add	x2, sp, #0x38
    204e3564:	2a1303e0 	mov	w0, w19
    204e3568:	2a1403e1 	mov	w1, w20
    204e356c:	97fffedd 	bl	204e30e0 <psci_get_parent_pwr_domain_nodes>
    204e3570:	9100e3e1 	add	x1, sp, #0x38
    204e3574:	2a1403e0 	mov	w0, w20
    204e3578:	97ffff77 	bl	204e3354 <psci_acquire_pwr_domain_locks>
    204e357c:	9100c3e2 	add	x2, sp, #0x30
    204e3580:	2a1403e1 	mov	w1, w20
    204e3584:	2a1303e0 	mov	w0, w19
    204e3588:	97fffe8f 	bl	204e2fc4 <psci_get_target_local_pwr_states>
    204e358c:	aa1503e0 	mov	x0, x21
    204e3590:	97fffe2f 	bl	204e2e4c <per_cpu_cur_compute>
    204e3594:	b9402000 	ldr	w0, [x0, #32]
    204e3598:	7100081f 	cmp	w0, #0x2
    204e359c:	54000261 	b.ne	204e35e8 <psci_warmboot_entrypoint+0xdc>  // b.any
    204e35a0:	9100c3e1 	add	x1, sp, #0x30
    204e35a4:	2a1303e0 	mov	w0, w19
    204e35a8:	94000276 	bl	204e3f80 <psci_cpu_on_finish>
    204e35ac:	aa1503e0 	mov	x0, x21
    204e35b0:	97fffe27 	bl	204e2e4c <per_cpu_cur_compute>
    204e35b4:	f9400800 	ldr	x0, [x0, #16]
    204e35b8:	97fffd3d 	bl	204e2aac <cm_init_my_context>
    204e35bc:	97fffdd4 	bl	204e2d0c <cm_prepare_el3_exit_ns>
    204e35c0:	2a1403e1 	mov	w1, w20
    204e35c4:	2a1303e0 	mov	w0, w19
    204e35c8:	97fffedd 	bl	204e313c <psci_set_pwr_domains_to_run>
    204e35cc:	9100e3e1 	add	x1, sp, #0x38
    204e35d0:	2a1403e0 	mov	w0, w20
    204e35d4:	97ffff7b 	bl	204e33c0 <psci_release_pwr_domain_locks>
    204e35d8:	a94153f3 	ldp	x19, x20, [sp, #16]
    204e35dc:	f94013f5 	ldr	x21, [sp, #32]
    204e35e0:	a8c47bfd 	ldp	x29, x30, [sp], #64
    204e35e4:	d65f03c0 	ret
    204e35e8:	9100c3e0 	add	x0, sp, #0x30
    204e35ec:	97ffff3a 	bl	204e32d4 <psci_find_max_off_lvl>
    204e35f0:	9100c3e2 	add	x2, sp, #0x30
    204e35f4:	2a0003e1 	mov	w1, w0
    204e35f8:	52800003 	mov	w3, #0x0                   	// #0
    204e35fc:	2a1303e0 	mov	w0, w19
    204e3600:	94000383 	bl	204e440c <psci_cpu_suspend_to_powerdown_finish>
    204e3604:	17ffffea 	b	204e35ac <psci_warmboot_entrypoint+0xa0>

00000000204e3608 <psci_spd_migrate_info>:
    204e3608:	d0000041 	adrp	x1, 204ed000 <__STACKS_START__+0x1280>
    204e360c:	f9423421 	ldr	x1, [x1, #1128]
    204e3610:	b40000a1 	cbz	x1, 204e3624 <psci_spd_migrate_info+0x1c>
    204e3614:	f9401821 	ldr	x1, [x1, #48]
    204e3618:	b4000061 	cbz	x1, 204e3624 <psci_spd_migrate_info+0x1c>
    204e361c:	aa0103f0 	mov	x16, x1
    204e3620:	d61f0200 	br	x16
    204e3624:	12800000 	mov	w0, #0xffffffff            	// #-1
    204e3628:	d65f03c0 	ret

00000000204e362c <psci_print_power_domain_map>:
    204e362c:	d65f03c0 	ret

00000000204e3630 <psci_pwrdown_cpu_start>:
    204e3630:	17fffe1a 	b	204e2e98 <call_cpu_pwr_dwn>

00000000204e3634 <psci_pwrdown_cpu_end_terminal>:
    204e3634:	a9bf7bfd 	stp	x29, x30, [sp, #-16]!
    204e3638:	910003fd 	mov	x29, sp
    204e363c:	d5033f9f 	dsb	sy
    204e3640:	52800400 	mov	w0, #0x20                  	// #32
    204e3644:	d503207f 	wfi
    204e3648:	71000400 	subs	w0, w0, #0x1
    204e364c:	54ffffc1 	b.ne	204e3644 <psci_pwrdown_cpu_end_terminal+0x10>  // b.any
    204e3650:	f0000020 	adrp	x0, 204ea000 <wakeupmix_irq_mask+0x2c>
    204e3654:	91042800 	add	x0, x0, #0x10a
    204e3658:	97fff537 	bl	204e0b34 <tf_log>
    204e365c:	97fff9dc 	bl	204e1dcc <console_flush>
    204e3660:	94001497 	bl	204e88bc <el3_panic>

00000000204e3664 <psci_pwrdown_cpu_end_wakeup>:
    204e3664:	a9bf7bfd 	stp	x29, x30, [sp, #-16]!
    204e3668:	910003fd 	mov	x29, sp
    204e366c:	d5033f9f 	dsb	sy
    204e3670:	d503207f 	wfi
    204e3674:	97fffe09 	bl	204e2e98 <call_cpu_pwr_dwn>
    204e3678:	d29a8001 	mov	x1, #0xd400                	// #54272
    204e367c:	f2b57481 	movk	x1, #0xaba4, lsl #16
    204e3680:	f2d49a81 	movk	x1, #0xa4d4, lsl #32
    204e3684:	f2fff561 	movk	x1, #0xffab, lsl #48
    204e3688:	eb01001f 	cmp	x0, x1
    204e368c:	54000060 	b.eq	204e3698 <psci_pwrdown_cpu_end_wakeup+0x34>  // b.none
    204e3690:	97fff9cf 	bl	204e1dcc <console_flush>
    204e3694:	9400148a 	bl	204e88bc <el3_panic>
    204e3698:	a8c17bfd 	ldp	x29, x30, [sp], #16
    204e369c:	d65f03c0 	ret

00000000204e36a0 <is_valid_mpidr>:
    204e36a0:	a9bf7bfd 	stp	x29, x30, [sp, #-16]!
    204e36a4:	910003fd 	mov	x29, sp
    204e36a8:	94001181 	bl	204e7cac <plat_core_pos_by_mpidr>
    204e36ac:	7100041f 	cmp	w0, #0x1
    204e36b0:	1a9f87e0 	cset	w0, ls	// ls = plast
    204e36b4:	a8c17bfd 	ldp	x29, x30, [sp], #16
    204e36b8:	d65f03c0 	ret

00000000204e36bc <psci_cpu_on>:
    204e36bc:	a9bd7bfd 	stp	x29, x30, [sp, #-48]!
    204e36c0:	910003fd 	mov	x29, sp
    204e36c4:	a90153f3 	stp	x19, x20, [sp, #16]
    204e36c8:	aa0003f3 	mov	x19, x0
    204e36cc:	aa0103f4 	mov	x20, x1
    204e36d0:	a9025bf5 	stp	x21, x22, [sp, #32]
    204e36d4:	aa0203f5 	mov	x21, x2
    204e36d8:	94001175 	bl	204e7cac <plat_core_pos_by_mpidr>
    204e36dc:	2a0003f6 	mov	w22, w0
    204e36e0:	aa1303e0 	mov	x0, x19
    204e36e4:	97ffffef 	bl	204e36a0 <is_valid_mpidr>
    204e36e8:	36000220 	tbz	w0, #0, 204e372c <psci_cpu_on+0x70>
    204e36ec:	2a1603e0 	mov	w0, w22
    204e36f0:	b0000061 	adrp	x1, 204f0000 <imx_gicv3_ctx+0x26d0>
    204e36f4:	910e0021 	add	x1, x1, #0x380
    204e36f8:	97fffdc9 	bl	204e2e1c <per_cpu_by_index_compute>
    204e36fc:	f9400816 	ldr	x22, [x0, #16]
    204e3700:	aa1503e2 	mov	x2, x21
    204e3704:	aa1403e1 	mov	x1, x20
    204e3708:	aa1603e0 	mov	x0, x22
    204e370c:	97ffff43 	bl	204e3418 <psci_validate_entry_point>
    204e3710:	35000100 	cbnz	w0, 204e3730 <psci_cpu_on+0x74>
    204e3714:	aa1603e1 	mov	x1, x22
    204e3718:	aa1303e0 	mov	x0, x19
    204e371c:	a94153f3 	ldp	x19, x20, [sp, #16]
    204e3720:	a9425bf5 	ldp	x21, x22, [sp, #32]
    204e3724:	a8c37bfd 	ldp	x29, x30, [sp], #48
    204e3728:	140001b9 	b	204e3e0c <psci_cpu_on_start>
    204e372c:	12800020 	mov	w0, #0xfffffffe            	// #-2
    204e3730:	a94153f3 	ldp	x19, x20, [sp, #16]
    204e3734:	a9425bf5 	ldp	x21, x22, [sp, #32]
    204e3738:	a8c37bfd 	ldp	x29, x30, [sp], #48
    204e373c:	d65f03c0 	ret

00000000204e3740 <psci_cpu_suspend>:
    204e3740:	a9bb7bfd 	stp	x29, x30, [sp, #-80]!
    204e3744:	910003fd 	mov	x29, sp
    204e3748:	a90153f3 	stp	x19, x20, [sp, #16]
    204e374c:	2a0003f4 	mov	w20, w0
    204e3750:	a9025bf5 	stp	x21, x22, [sp, #32]
    204e3754:	a90363f7 	stp	x23, x24, [sp, #48]
    204e3758:	aa0103f7 	mov	x23, x1
    204e375c:	aa0203f8 	mov	x24, x2
    204e3760:	790093ff 	strh	wzr, [sp, #72]
    204e3764:	39012bff 	strb	wzr, [sp, #74]
    204e3768:	9400165f 	bl	204e90e4 <plat_my_core_pos>
    204e376c:	910123e1 	add	x1, sp, #0x48
    204e3770:	2a0003f6 	mov	w22, w0
    204e3774:	2a1403e0 	mov	w0, w20
    204e3778:	97fffdd8 	bl	204e2ed8 <psci_validate_power_state>
    204e377c:	2a0003f3 	mov	w19, w0
    204e3780:	350003a0 	cbnz	w0, 204e37f4 <psci_cpu_suspend+0xb4>
    204e3784:	910123e0 	add	x0, sp, #0x48
    204e3788:	d3504294 	ubfx	x20, x20, #16, #1
    204e378c:	97fffee5 	bl	204e3320 <psci_find_target_suspend_lvl>
    204e3790:	2a0003f5 	mov	w21, w0
    204e3794:	71000c1f 	cmp	w0, #0x3
    204e3798:	540000c1 	b.ne	204e37b0 <psci_cpu_suspend+0x70>  // b.any
    204e379c:	f0000020 	adrp	x0, 204ea000 <wakeupmix_irq_mask+0x2c>
    204e37a0:	91049400 	add	x0, x0, #0x125
    204e37a4:	97fff4e4 	bl	204e0b34 <tf_log>
    204e37a8:	97fff989 	bl	204e1dcc <console_flush>
    204e37ac:	94001444 	bl	204e88bc <el3_panic>
    204e37b0:	2a000280 	orr	w0, w20, w0
    204e37b4:	350002c0 	cbnz	w0, 204e380c <psci_cpu_suspend+0xcc>
    204e37b8:	d0000040 	adrp	x0, 204ed000 <__STACKS_START__+0x1280>
    204e37bc:	f9423000 	ldr	x0, [x0, #1120]
    204e37c0:	f9400015 	ldr	x21, [x0]
    204e37c4:	b40004b5 	cbz	x21, 204e3858 <psci_cpu_suspend+0x118>
    204e37c8:	394123f6 	ldrb	w22, [sp, #72]
    204e37cc:	b0000074 	adrp	x20, 204f0000 <imx_gicv3_ctx+0x26d0>
    204e37d0:	910e0294 	add	x20, x20, #0x380
    204e37d4:	aa1403e0 	mov	x0, x20
    204e37d8:	97fffd9d 	bl	204e2e4c <per_cpu_cur_compute>
    204e37dc:	3900a016 	strb	w22, [x0, #40]
    204e37e0:	2a1603e0 	mov	w0, w22
    204e37e4:	d63f02a0 	blr	x21
    204e37e8:	aa1403e0 	mov	x0, x20
    204e37ec:	97fffd98 	bl	204e2e4c <per_cpu_cur_compute>
    204e37f0:	3900a01f 	strb	wzr, [x0, #40]
    204e37f4:	a9425bf5 	ldp	x21, x22, [sp, #32]
    204e37f8:	2a1303e0 	mov	w0, w19
    204e37fc:	a94153f3 	ldp	x19, x20, [sp, #16]
    204e3800:	a94363f7 	ldp	x23, x24, [sp, #48]
    204e3804:	a8c57bfd 	ldp	x29, x30, [sp], #80
    204e3808:	d65f03c0 	ret
    204e380c:	35000114 	cbnz	w20, 204e382c <psci_cpu_suspend+0xec>
    204e3810:	2a1403e3 	mov	w3, w20
    204e3814:	910123e2 	add	x2, sp, #0x48
    204e3818:	2a1503e1 	mov	w1, w21
    204e381c:	2a1603e0 	mov	w0, w22
    204e3820:	94000324 	bl	204e44b0 <psci_cpu_suspend_start>
    204e3824:	2a0003f3 	mov	w19, w0
    204e3828:	17fffff3 	b	204e37f4 <psci_cpu_suspend+0xb4>
    204e382c:	2a1603e0 	mov	w0, w22
    204e3830:	b0000061 	adrp	x1, 204f0000 <imx_gicv3_ctx+0x26d0>
    204e3834:	910e0021 	add	x1, x1, #0x380
    204e3838:	97fffd79 	bl	204e2e1c <per_cpu_by_index_compute>
    204e383c:	f9400800 	ldr	x0, [x0, #16]
    204e3840:	aa1803e2 	mov	x2, x24
    204e3844:	aa1703e1 	mov	x1, x23
    204e3848:	97fffef4 	bl	204e3418 <psci_validate_entry_point>
    204e384c:	2a0003f3 	mov	w19, w0
    204e3850:	34fffe00 	cbz	w0, 204e3810 <psci_cpu_suspend+0xd0>
    204e3854:	17ffffe8 	b	204e37f4 <psci_cpu_suspend+0xb4>
    204e3858:	12800033 	mov	w19, #0xfffffffe            	// #-2
    204e385c:	17ffffe6 	b	204e37f4 <psci_cpu_suspend+0xb4>

00000000204e3860 <psci_system_suspend>:
    204e3860:	a9bc7bfd 	stp	x29, x30, [sp, #-64]!
    204e3864:	910003fd 	mov	x29, sp
    204e3868:	a90153f3 	stp	x19, x20, [sp, #16]
    204e386c:	aa0003f4 	mov	x20, x0
    204e3870:	a9025bf5 	stp	x21, x22, [sp, #32]
    204e3874:	aa0103f5 	mov	x21, x1
    204e3878:	9400161b 	bl	204e90e4 <plat_my_core_pos>
    204e387c:	b0000061 	adrp	x1, 204f0000 <imx_gicv3_ctx+0x26d0>
    204e3880:	910e0021 	add	x1, x1, #0x380
    204e3884:	2a0003f3 	mov	w19, w0
    204e3888:	97fffd65 	bl	204e2e1c <per_cpu_by_index_compute>
    204e388c:	f9400816 	ldr	x22, [x0, #16]
    204e3890:	2a1303e0 	mov	w0, w19
    204e3894:	97fffda0 	bl	204e2f14 <psci_is_last_on_cpu>
    204e3898:	370000c0 	tbnz	w0, #0, 204e38b0 <psci_system_suspend+0x50>
    204e389c:	12800040 	mov	w0, #0xfffffffd            	// #-3
    204e38a0:	a94153f3 	ldp	x19, x20, [sp, #16]
    204e38a4:	a9425bf5 	ldp	x21, x22, [sp, #32]
    204e38a8:	a8c47bfd 	ldp	x29, x30, [sp], #64
    204e38ac:	d65f03c0 	ret
    204e38b0:	aa1503e2 	mov	x2, x21
    204e38b4:	aa1403e1 	mov	x1, x20
    204e38b8:	aa1603e0 	mov	x0, x22
    204e38bc:	97fffed7 	bl	204e3418 <psci_validate_entry_point>
    204e38c0:	35ffff00 	cbnz	w0, 204e38a0 <psci_system_suspend+0x40>
    204e38c4:	9100e3e0 	add	x0, sp, #0x38
    204e38c8:	97fffd8e 	bl	204e2f00 <psci_query_sys_suspend_pwrstate>
    204e38cc:	9100e3e0 	add	x0, sp, #0x38
    204e38d0:	97fffe94 	bl	204e3320 <psci_find_target_suspend_lvl>
    204e38d4:	7100041f 	cmp	w0, #0x1
    204e38d8:	54fffe29 	b.ls	204e389c <psci_system_suspend+0x3c>  // b.plast
    204e38dc:	9100e3e2 	add	x2, sp, #0x38
    204e38e0:	2a1303e0 	mov	w0, w19
    204e38e4:	52800023 	mov	w3, #0x1                   	// #1
    204e38e8:	52800041 	mov	w1, #0x2                   	// #2
    204e38ec:	940002f1 	bl	204e44b0 <psci_cpu_suspend_start>
    204e38f0:	17ffffec 	b	204e38a0 <psci_system_suspend+0x40>

00000000204e38f4 <psci_cpu_off>:
    204e38f4:	52800040 	mov	w0, #0x2                   	// #2
    204e38f8:	140000fc 	b	204e3ce8 <psci_do_cpu_off>

00000000204e38fc <psci_affinity_info>:
    204e38fc:	a9be7bfd 	stp	x29, x30, [sp, #-32]!
    204e3900:	910003fd 	mov	x29, sp
    204e3904:	a90153f3 	stp	x19, x20, [sp, #16]
    204e3908:	aa0003f3 	mov	x19, x0
    204e390c:	2a0103f4 	mov	w20, w1
    204e3910:	97ffff64 	bl	204e36a0 <is_valid_mpidr>
    204e3914:	36000260 	tbz	w0, #0, 204e3960 <psci_affinity_info+0x64>
    204e3918:	35000254 	cbnz	w20, 204e3960 <psci_affinity_info+0x64>
    204e391c:	aa1303e0 	mov	x0, x19
    204e3920:	b0000073 	adrp	x19, 204f0000 <imx_gicv3_ctx+0x26d0>
    204e3924:	940010e2 	bl	204e7cac <plat_core_pos_by_mpidr>
    204e3928:	910e0273 	add	x19, x19, #0x380
    204e392c:	2a0003f4 	mov	w20, w0
    204e3930:	aa1303e1 	mov	x1, x19
    204e3934:	97fffd3a 	bl	204e2e1c <per_cpu_by_index_compute>
    204e3938:	91008000 	add	x0, x0, #0x20
    204e393c:	d2800081 	mov	x1, #0x4                   	// #4
    204e3940:	940013eb 	bl	204e88ec <flush_dcache_range>
    204e3944:	aa1303e1 	mov	x1, x19
    204e3948:	2a1403e0 	mov	w0, w20
    204e394c:	97fffd34 	bl	204e2e1c <per_cpu_by_index_compute>
    204e3950:	b9402000 	ldr	w0, [x0, #32]
    204e3954:	a94153f3 	ldp	x19, x20, [sp, #16]
    204e3958:	a8c27bfd 	ldp	x29, x30, [sp], #32
    204e395c:	d65f03c0 	ret
    204e3960:	12800020 	mov	w0, #0xfffffffe            	// #-2
    204e3964:	17fffffc 	b	204e3954 <psci_affinity_info+0x58>

00000000204e3968 <psci_migrate>:
    204e3968:	a9bd7bfd 	stp	x29, x30, [sp, #-48]!
    204e396c:	910003fd 	mov	x29, sp
    204e3970:	f9000bf3 	str	x19, [sp, #16]
    204e3974:	aa0003f3 	mov	x19, x0
    204e3978:	f90017ff 	str	xzr, [sp, #40]
    204e397c:	97ffff49 	bl	204e36a0 <is_valid_mpidr>
    204e3980:	370000a0 	tbnz	w0, #0, 204e3994 <psci_migrate+0x2c>
    204e3984:	12800020 	mov	w0, #0xfffffffe            	// #-2
    204e3988:	f9400bf3 	ldr	x19, [sp, #16]
    204e398c:	a8c37bfd 	ldp	x29, x30, [sp], #48
    204e3990:	d65f03c0 	ret
    204e3994:	9100a3e0 	add	x0, sp, #0x28
    204e3998:	97ffff1c 	bl	204e3608 <psci_spd_migrate_info>
    204e399c:	340000a0 	cbz	w0, 204e39b0 <psci_migrate+0x48>
    204e39a0:	7100041f 	cmp	w0, #0x1
    204e39a4:	12800040 	mov	w0, #0xfffffffd            	// #-3
    204e39a8:	5a9f0000 	csinv	w0, w0, wzr, eq	// eq = none
    204e39ac:	17fffff7 	b	204e3988 <psci_migrate+0x20>
    204e39b0:	d53800a0 	mrs	x0, mpidr_el1
    204e39b4:	f94017e1 	ldr	x1, [sp, #40]
    204e39b8:	eb00003f 	cmp	x1, x0
    204e39bc:	54000161 	b.ne	204e39e8 <psci_migrate+0x80>  // b.any
    204e39c0:	aa1303e0 	mov	x0, x19
    204e39c4:	97ffff37 	bl	204e36a0 <is_valid_mpidr>
    204e39c8:	3607fde0 	tbz	w0, #0, 204e3984 <psci_migrate+0x1c>
    204e39cc:	d53800a0 	mrs	x0, mpidr_el1
    204e39d0:	d0000041 	adrp	x1, 204ed000 <__STACKS_START__+0x1280>
    204e39d4:	f9423421 	ldr	x1, [x1, #1128]
    204e39d8:	f9401422 	ldr	x2, [x1, #40]
    204e39dc:	aa1303e1 	mov	x1, x19
    204e39e0:	d63f0040 	blr	x2
    204e39e4:	17ffffe9 	b	204e3988 <psci_migrate+0x20>
    204e39e8:	128000c0 	mov	w0, #0xfffffff9            	// #-7
    204e39ec:	17ffffe7 	b	204e3988 <psci_migrate+0x20>

00000000204e39f0 <psci_migrate_info_type>:
    204e39f0:	a9be7bfd 	stp	x29, x30, [sp, #-32]!
    204e39f4:	910003fd 	mov	x29, sp
    204e39f8:	910063e0 	add	x0, sp, #0x18
    204e39fc:	f9000fff 	str	xzr, [sp, #24]
    204e3a00:	97ffff02 	bl	204e3608 <psci_spd_migrate_info>
    204e3a04:	a8c27bfd 	ldp	x29, x30, [sp], #32
    204e3a08:	d65f03c0 	ret

00000000204e3a0c <psci_migrate_info_up_cpu>:
    204e3a0c:	a9be7bfd 	stp	x29, x30, [sp, #-32]!
    204e3a10:	910003fd 	mov	x29, sp
    204e3a14:	910063e0 	add	x0, sp, #0x18
    204e3a18:	f9000fff 	str	xzr, [sp, #24]
    204e3a1c:	97fffefb 	bl	204e3608 <psci_spd_migrate_info>
    204e3a20:	7100041f 	cmp	w0, #0x1
    204e3a24:	f9400fe1 	ldr	x1, [sp, #24]
    204e3a28:	92800020 	mov	x0, #0xfffffffffffffffe    	// #-2
    204e3a2c:	a8c27bfd 	ldp	x29, x30, [sp], #32
    204e3a30:	9a809020 	csel	x0, x1, x0, ls	// ls = plast
    204e3a34:	d65f03c0 	ret

00000000204e3a38 <psci_node_hw_state>:
    204e3a38:	a9be7bfd 	stp	x29, x30, [sp, #-32]!
    204e3a3c:	910003fd 	mov	x29, sp
    204e3a40:	a90153f3 	stp	x19, x20, [sp, #16]
    204e3a44:	aa0003f4 	mov	x20, x0
    204e3a48:	2a0103f3 	mov	w19, w1
    204e3a4c:	97ffff15 	bl	204e36a0 <is_valid_mpidr>
    204e3a50:	36000180 	tbz	w0, #0, 204e3a80 <psci_node_hw_state+0x48>
    204e3a54:	71000a7f 	cmp	w19, #0x2
    204e3a58:	54000148 	b.hi	204e3a80 <psci_node_hw_state+0x48>  // b.pmore
    204e3a5c:	d0000040 	adrp	x0, 204ed000 <__STACKS_START__+0x1280>
    204e3a60:	2a1303e1 	mov	w1, w19
    204e3a64:	f9423000 	ldr	x0, [x0, #1120]
    204e3a68:	f9404402 	ldr	x2, [x0, #136]
    204e3a6c:	aa1403e0 	mov	x0, x20
    204e3a70:	a94153f3 	ldp	x19, x20, [sp, #16]
    204e3a74:	aa0203f0 	mov	x16, x2
    204e3a78:	a8c27bfd 	ldp	x29, x30, [sp], #32
    204e3a7c:	d61f0200 	br	x16
    204e3a80:	a94153f3 	ldp	x19, x20, [sp, #16]
    204e3a84:	12800020 	mov	w0, #0xfffffffe            	// #-2
    204e3a88:	a8c27bfd 	ldp	x29, x30, [sp], #32
    204e3a8c:	d65f03c0 	ret

00000000204e3a90 <psci_features>:
    204e3a90:	52b00001 	mov	w1, #0x80000000            	// #-2147483648
    204e3a94:	6b01001f 	cmp	w0, w1
    204e3a98:	54000260 	b.eq	204e3ae4 <psci_features+0x54>  // b.none
    204e3a9c:	b0000061 	adrp	x1, 204f0000 <imx_gicv3_ctx+0x26d0>
    204e3aa0:	b9412c21 	ldr	w1, [x1, #300]
    204e3aa4:	36f00080 	tbz	w0, #30, 204e3ab4 <psci_features+0x24>
    204e3aa8:	528c1742 	mov	w2, #0x60ba                	// #24762
    204e3aac:	72a002e2 	movk	w2, #0x17, lsl #16
    204e3ab0:	0a020021 	and	w1, w1, w2
    204e3ab4:	12081403 	and	w3, w0, #0x3f000000
    204e3ab8:	52a08002 	mov	w2, #0x4000000             	// #67108864
    204e3abc:	6b02007f 	cmp	w3, w2
    204e3ac0:	54000161 	b.ne	204e3aec <psci_features+0x5c>  // b.any
    204e3ac4:	531f7c02 	lsr	w2, w0, #31
    204e3ac8:	36f80120 	tbz	w0, #31, 204e3aec <psci_features+0x5c>
    204e3acc:	721b481f 	tst	w0, #0xffffe0
    204e3ad0:	540000e1 	b.ne	204e3aec <psci_features+0x5c>  // b.any
    204e3ad4:	1ac02040 	lsl	w0, w2, w0
    204e3ad8:	6a01001f 	tst	w0, w1
    204e3adc:	5a9f13e0 	csetm	w0, eq	// eq = none
    204e3ae0:	d65f03c0 	ret
    204e3ae4:	52800000 	mov	w0, #0x0                   	// #0
    204e3ae8:	17fffffe 	b	204e3ae0 <psci_features+0x50>
    204e3aec:	12800000 	mov	w0, #0xffffffff            	// #-1
    204e3af0:	17fffffc 	b	204e3ae0 <psci_features+0x50>

00000000204e3af4 <psci_smc_handler>:
    204e3af4:	360009e7 	tbz	w7, #0, 204e3c30 <psci_smc_handler+0x13c>
    204e3af8:	b0000065 	adrp	x5, 204f0000 <imx_gicv3_ctx+0x26d0>
    204e3afc:	2a0003e4 	mov	w4, w0
    204e3b00:	aa0103e0 	mov	x0, x1
    204e3b04:	aa0203e1 	mov	x1, x2
    204e3b08:	b9412ca5 	ldr	w5, [x5, #300]
    204e3b0c:	aa0303e2 	mov	x2, x3
    204e3b10:	52800023 	mov	w3, #0x1                   	// #1
    204e3b14:	1ac42063 	lsl	w3, w3, w4
    204e3b18:	6a05007f 	tst	w3, w5
    204e3b1c:	540008a0 	b.eq	204e3c30 <psci_smc_handler+0x13c>  // b.none
    204e3b20:	a9bf7bfd 	stp	x29, x30, [sp, #-16]!
    204e3b24:	910003fd 	mov	x29, sp
    204e3b28:	37f00704 	tbnz	w4, #30, 204e3c08 <psci_smc_handler+0x114>
    204e3b2c:	52af8003 	mov	w3, #0x7c000000            	// #2080374784
    204e3b30:	0b030084 	add	w4, w4, w3
    204e3b34:	7100509f 	cmp	w4, #0x14
    204e3b38:	54000808 	b.hi	204e3c38 <psci_smc_handler+0x144>  // b.pmore
    204e3b3c:	d0000023 	adrp	x3, 204e9000 <flush_continue>
    204e3b40:	912fe063 	add	x3, x3, #0xbf8
    204e3b44:	38644863 	ldrb	w3, [x3, w4, uxtw]
    204e3b48:	10000064 	adr	x4, 204e3b54 <psci_smc_handler+0x60>
    204e3b4c:	8b238883 	add	x3, x4, w3, sxtb #2
    204e3b50:	d61f0060 	br	x3
    204e3b54:	320083e0 	mov	w0, #0x10001               	// #65537
    204e3b58:	a8c17bfd 	ldp	x29, x30, [sp], #16
    204e3b5c:	d65f03c0 	ret
    204e3b60:	97ffff65 	bl	204e38f4 <psci_cpu_off>
    204e3b64:	93407c00 	sxtw	x0, w0
    204e3b68:	17fffffc 	b	204e3b58 <psci_smc_handler+0x64>
    204e3b6c:	2a0203e2 	mov	w2, w2
    204e3b70:	2a0103e1 	mov	w1, w1
    204e3b74:	97fffef3 	bl	204e3740 <psci_cpu_suspend>
    204e3b78:	17fffffb 	b	204e3b64 <psci_smc_handler+0x70>
    204e3b7c:	2a0203e2 	mov	w2, w2
    204e3b80:	2a0103e1 	mov	w1, w1
    204e3b84:	2a0003e0 	mov	w0, w0
    204e3b88:	97fffecd 	bl	204e36bc <psci_cpu_on>
    204e3b8c:	17fffff6 	b	204e3b64 <psci_smc_handler+0x70>
    204e3b90:	2a0003e0 	mov	w0, w0
    204e3b94:	97ffff5a 	bl	204e38fc <psci_affinity_info>
    204e3b98:	17fffff3 	b	204e3b64 <psci_smc_handler+0x70>
    204e3b9c:	2a0003e0 	mov	w0, w0
    204e3ba0:	97ffff72 	bl	204e3968 <psci_migrate>
    204e3ba4:	17fffff0 	b	204e3b64 <psci_smc_handler+0x70>
    204e3ba8:	97ffff92 	bl	204e39f0 <psci_migrate_info_type>
    204e3bac:	17ffffee 	b	204e3b64 <psci_smc_handler+0x70>
    204e3bb0:	a8c17bfd 	ldp	x29, x30, [sp], #16
    204e3bb4:	17ffff96 	b	204e3a0c <psci_migrate_info_up_cpu>
    204e3bb8:	2a0003e0 	mov	w0, w0
    204e3bbc:	97ffff9f 	bl	204e3a38 <psci_node_hw_state>
    204e3bc0:	17ffffe9 	b	204e3b64 <psci_smc_handler+0x70>
    204e3bc4:	2a0103e1 	mov	w1, w1
    204e3bc8:	2a0003e0 	mov	w0, w0
    204e3bcc:	97ffff25 	bl	204e3860 <psci_system_suspend>
    204e3bd0:	17ffffe5 	b	204e3b64 <psci_smc_handler+0x70>
    204e3bd4:	940002a5 	bl	204e4668 <psci_system_off>
    204e3bd8:	940002b3 	bl	204e46a4 <psci_system_reset>
    204e3bdc:	97ffffad 	bl	204e3a90 <psci_features>
    204e3be0:	17ffffe1 	b	204e3b64 <psci_smc_handler+0x70>
    204e3be4:	a8c17bfd 	ldp	x29, x30, [sp], #16
    204e3be8:	14000016 	b	204e3c40 <psci_mem_protect>
    204e3bec:	2a0103e1 	mov	w1, w1
    204e3bf0:	2a0003e0 	mov	w0, w0
    204e3bf4:	a8c17bfd 	ldp	x29, x30, [sp], #16
    204e3bf8:	1400002a 	b	204e3ca0 <psci_mem_chk_range>
    204e3bfc:	2a0103e1 	mov	w1, w1
    204e3c00:	a8c17bfd 	ldp	x29, x30, [sp], #16
    204e3c04:	140002b7 	b	204e46e0 <psci_system_reset2>
    204e3c08:	12b88003 	mov	w3, #0x3bffffff            	// #1006632959
    204e3c0c:	0b030084 	add	w4, w4, w3
    204e3c10:	71004c9f 	cmp	w4, #0x13
    204e3c14:	54000128 	b.hi	204e3c38 <psci_smc_handler+0x144>  // b.pmore
    204e3c18:	d0000023 	adrp	x3, 204e9000 <flush_continue>
    204e3c1c:	91304063 	add	x3, x3, #0xc10
    204e3c20:	38644863 	ldrb	w3, [x3, w4, uxtw]
    204e3c24:	10000064 	adr	x4, 204e3c30 <psci_smc_handler+0x13c>
    204e3c28:	8b238883 	add	x3, x4, w3, sxtb #2
    204e3c2c:	d61f0060 	br	x3
    204e3c30:	92800000 	mov	x0, #0xffffffffffffffff    	// #-1
    204e3c34:	d65f03c0 	ret
    204e3c38:	92800000 	mov	x0, #0xffffffffffffffff    	// #-1
    204e3c3c:	17ffffc7 	b	204e3b58 <psci_smc_handler+0x64>

00000000204e3c40 <psci_mem_protect>:
    204e3c40:	a9bd7bfd 	stp	x29, x30, [sp, #-48]!
    204e3c44:	910003fd 	mov	x29, sp
    204e3c48:	a90153f3 	stp	x19, x20, [sp, #16]
    204e3c4c:	d0000054 	adrp	x20, 204ed000 <__STACKS_START__+0x1280>
    204e3c50:	2a0003f3 	mov	w19, w0
    204e3c54:	f9423280 	ldr	x0, [x20, #1120]
    204e3c58:	b9002fff 	str	wzr, [sp, #44]
    204e3c5c:	f9404c01 	ldr	x1, [x0, #152]
    204e3c60:	9100b3e0 	add	x0, sp, #0x2c
    204e3c64:	d63f0020 	blr	x1
    204e3c68:	36f800a0 	tbz	w0, #31, 204e3c7c <psci_mem_protect+0x3c>
    204e3c6c:	92800000 	mov	x0, #0xffffffffffffffff    	// #-1
    204e3c70:	a94153f3 	ldp	x19, x20, [sp, #16]
    204e3c74:	a8c37bfd 	ldp	x29, x30, [sp], #48
    204e3c78:	d65f03c0 	ret
    204e3c7c:	f9423280 	ldr	x0, [x20, #1120]
    204e3c80:	f9405001 	ldr	x1, [x0, #160]
    204e3c84:	2a1303e0 	mov	w0, w19
    204e3c88:	d63f0020 	blr	x1
    204e3c8c:	37ffff00 	tbnz	w0, #31, 204e3c6c <psci_mem_protect+0x2c>
    204e3c90:	b9402fe0 	ldr	w0, [sp, #44]
    204e3c94:	7100001f 	cmp	w0, #0x0
    204e3c98:	9a9f07e0 	cset	x0, ne	// ne = any
    204e3c9c:	17fffff5 	b	204e3c70 <psci_mem_protect+0x30>

00000000204e3ca0 <psci_mem_chk_range>:
    204e3ca0:	b4000081 	cbz	x1, 204e3cb0 <psci_mem_chk_range+0x10>
    204e3ca4:	cb0103e2 	neg	x2, x1
    204e3ca8:	eb00005f 	cmp	x2, x0
    204e3cac:	540000c2 	b.cs	204e3cc4 <psci_mem_chk_range+0x24>  // b.hs, b.nlast
    204e3cb0:	92800040 	mov	x0, #0xfffffffffffffffd    	// #-3
    204e3cb4:	d65f03c0 	ret
    204e3cb8:	92800040 	mov	x0, #0xfffffffffffffffd    	// #-3
    204e3cbc:	a8c17bfd 	ldp	x29, x30, [sp], #16
    204e3cc0:	d65f03c0 	ret
    204e3cc4:	a9bf7bfd 	stp	x29, x30, [sp, #-16]!
    204e3cc8:	d0000042 	adrp	x2, 204ed000 <__STACKS_START__+0x1280>
    204e3ccc:	910003fd 	mov	x29, sp
    204e3cd0:	f9423042 	ldr	x2, [x2, #1120]
    204e3cd4:	f9404842 	ldr	x2, [x2, #144]
    204e3cd8:	d63f0040 	blr	x2
    204e3cdc:	37fffee0 	tbnz	w0, #31, 204e3cb8 <psci_mem_chk_range+0x18>
    204e3ce0:	d2800000 	mov	x0, #0x0                   	// #0
    204e3ce4:	17fffff6 	b	204e3cbc <psci_mem_chk_range+0x1c>

00000000204e3ce8 <psci_do_cpu_off>:
    204e3ce8:	a9bc7bfd 	stp	x29, x30, [sp, #-64]!
    204e3cec:	910003fd 	mov	x29, sp
    204e3cf0:	a90153f3 	stp	x19, x20, [sp, #16]
    204e3cf4:	2a0003f4 	mov	w20, w0
    204e3cf8:	a9025bf5 	stp	x21, x22, [sp, #32]
    204e3cfc:	940014fa 	bl	204e90e4 <plat_my_core_pos>
    204e3d00:	d0000056 	adrp	x22, 204ed000 <__STACKS_START__+0x1280>
    204e3d04:	2a0003f5 	mov	w21, w0
    204e3d08:	52808080 	mov	w0, #0x404                 	// #1028
    204e3d0c:	790063e0 	strh	w0, [sp, #48]
    204e3d10:	52800080 	mov	w0, #0x4                   	// #4
    204e3d14:	3900cbe0 	strb	w0, [sp, #50]
    204e3d18:	f94232c0 	ldr	x0, [x22, #1120]
    204e3d1c:	f9001fff 	str	xzr, [sp, #56]
    204e3d20:	f9400c01 	ldr	x1, [x0, #24]
    204e3d24:	b4000161 	cbz	x1, 204e3d50 <psci_do_cpu_off+0x68>
    204e3d28:	9100c3e0 	add	x0, sp, #0x30
    204e3d2c:	d63f0020 	blr	x1
    204e3d30:	2a0003f3 	mov	w19, w0
    204e3d34:	31000c1f 	cmn	w0, #0x3
    204e3d38:	540000e1 	b.ne	204e3d54 <psci_do_cpu_off+0x6c>  // b.any
    204e3d3c:	a9425bf5 	ldp	x21, x22, [sp, #32]
    204e3d40:	2a1303e0 	mov	w0, w19
    204e3d44:	a94153f3 	ldp	x19, x20, [sp, #16]
    204e3d48:	a8c47bfd 	ldp	x29, x30, [sp], #64
    204e3d4c:	d65f03c0 	ret
    204e3d50:	52800013 	mov	w19, #0x0                   	// #0
    204e3d54:	9100e3e2 	add	x2, sp, #0x38
    204e3d58:	2a1403e1 	mov	w1, w20
    204e3d5c:	2a1503e0 	mov	w0, w21
    204e3d60:	97fffce0 	bl	204e30e0 <psci_get_parent_pwr_domain_nodes>
    204e3d64:	2a1403e0 	mov	w0, w20
    204e3d68:	9100e3e1 	add	x1, sp, #0x38
    204e3d6c:	97fffd7a 	bl	204e3354 <psci_acquire_pwr_domain_locks>
    204e3d70:	d0000040 	adrp	x0, 204ed000 <__STACKS_START__+0x1280>
    204e3d74:	f9423400 	ldr	x0, [x0, #1128]
    204e3d78:	b40000e0 	cbz	x0, 204e3d94 <psci_do_cpu_off+0xac>
    204e3d7c:	f9400401 	ldr	x1, [x0, #8]
    204e3d80:	b40000a1 	cbz	x1, 204e3d94 <psci_do_cpu_off+0xac>
    204e3d84:	d2800000 	mov	x0, #0x0                   	// #0
    204e3d88:	d63f0020 	blr	x1
    204e3d8c:	2a0003f3 	mov	w19, w0
    204e3d90:	35000200 	cbnz	w0, 204e3dd0 <psci_do_cpu_off+0xe8>
    204e3d94:	9100c3e2 	add	x2, sp, #0x30
    204e3d98:	2a1403e1 	mov	w1, w20
    204e3d9c:	2a1503e0 	mov	w0, w21
    204e3da0:	97fffd09 	bl	204e31c4 <psci_do_state_coordination>
    204e3da4:	2a1403e1 	mov	w1, w20
    204e3da8:	9100c3e2 	add	x2, sp, #0x30
    204e3dac:	2a1503e0 	mov	w0, w21
    204e3db0:	97fffcac 	bl	204e3060 <psci_set_target_local_pwr_states>
    204e3db4:	9100c3e0 	add	x0, sp, #0x30
    204e3db8:	97fffd47 	bl	204e32d4 <psci_find_max_off_lvl>
    204e3dbc:	97fffe1d 	bl	204e3630 <psci_pwrdown_cpu_start>
    204e3dc0:	f94232c0 	ldr	x0, [x22, #1120]
    204e3dc4:	f9400801 	ldr	x1, [x0, #16]
    204e3dc8:	9100c3e0 	add	x0, sp, #0x30
    204e3dcc:	d63f0020 	blr	x1
    204e3dd0:	9100e3e1 	add	x1, sp, #0x38
    204e3dd4:	2a1403e0 	mov	w0, w20
    204e3dd8:	97fffd7a 	bl	204e33c0 <psci_release_pwr_domain_locks>
    204e3ddc:	35fffb13 	cbnz	w19, 204e3d3c <psci_do_cpu_off+0x54>
    204e3de0:	b0000060 	adrp	x0, 204f0000 <imx_gicv3_ctx+0x26d0>
    204e3de4:	910e0000 	add	x0, x0, #0x380
    204e3de8:	97fffc19 	bl	204e2e4c <per_cpu_cur_compute>
    204e3dec:	52800021 	mov	w1, #0x1                   	// #1
    204e3df0:	b9002001 	str	w1, [x0, #32]
    204e3df4:	f94232c0 	ldr	x0, [x22, #1120]
    204e3df8:	f9402401 	ldr	x1, [x0, #72]
    204e3dfc:	b4000061 	cbz	x1, 204e3e08 <psci_do_cpu_off+0x120>
    204e3e00:	9100c3e0 	add	x0, sp, #0x30
    204e3e04:	d63f0020 	blr	x1
    204e3e08:	97fffe0b 	bl	204e3634 <psci_pwrdown_cpu_end_terminal>

00000000204e3e0c <psci_cpu_on_start>:
    204e3e0c:	a9bc7bfd 	stp	x29, x30, [sp, #-64]!
    204e3e10:	910003fd 	mov	x29, sp
    204e3e14:	a90153f3 	stp	x19, x20, [sp, #16]
    204e3e18:	b0000074 	adrp	x20, 204f0000 <imx_gicv3_ctx+0x26d0>
    204e3e1c:	910e0294 	add	x20, x20, #0x380
    204e3e20:	a9025bf5 	stp	x21, x22, [sp, #32]
    204e3e24:	aa0003f5 	mov	x21, x0
    204e3e28:	b0000076 	adrp	x22, 204f0000 <imx_gicv3_ctx+0x26d0>
    204e3e2c:	911902d6 	add	x22, x22, #0x640
    204e3e30:	f9001bf7 	str	x23, [sp, #48]
    204e3e34:	94000f9e 	bl	204e7cac <plat_core_pos_by_mpidr>
    204e3e38:	2a0003f3 	mov	w19, w0
    204e3e3c:	aa1603e1 	mov	x1, x22
    204e3e40:	97fffbf7 	bl	204e2e1c <per_cpu_by_index_compute>
    204e3e44:	91003000 	add	x0, x0, #0xc
    204e3e48:	94001406 	bl	204e8e60 <spin_lock>
    204e3e4c:	aa1403e1 	mov	x1, x20
    204e3e50:	2a1303e0 	mov	w0, w19
    204e3e54:	97fffbf2 	bl	204e2e1c <per_cpu_by_index_compute>
    204e3e58:	91008000 	add	x0, x0, #0x20
    204e3e5c:	d2800081 	mov	x1, #0x4                   	// #4
    204e3e60:	940012a3 	bl	204e88ec <flush_dcache_range>
    204e3e64:	aa1403e1 	mov	x1, x20
    204e3e68:	2a1303e0 	mov	w0, w19
    204e3e6c:	97fffbec 	bl	204e2e1c <per_cpu_by_index_compute>
    204e3e70:	b9402000 	ldr	w0, [x0, #32]
    204e3e74:	340007e0 	cbz	w0, 204e3f70 <psci_cpu_on_start+0x164>
    204e3e78:	7100081f 	cmp	w0, #0x2
    204e3e7c:	540007e0 	b.eq	204e3f78 <psci_cpu_on_start+0x16c>  // b.none
    204e3e80:	d0000040 	adrp	x0, 204ed000 <__STACKS_START__+0x1280>
    204e3e84:	f9423400 	ldr	x0, [x0, #1128]
    204e3e88:	b40000a0 	cbz	x0, 204e3e9c <psci_cpu_on_start+0x90>
    204e3e8c:	f9400001 	ldr	x1, [x0]
    204e3e90:	b4000061 	cbz	x1, 204e3e9c <psci_cpu_on_start+0x90>
    204e3e94:	aa1503e0 	mov	x0, x21
    204e3e98:	d63f0020 	blr	x1
    204e3e9c:	aa1403e1 	mov	x1, x20
    204e3ea0:	2a1303e0 	mov	w0, w19
    204e3ea4:	52800057 	mov	w23, #0x2                   	// #2
    204e3ea8:	97fffbdd 	bl	204e2e1c <per_cpu_by_index_compute>
    204e3eac:	b9002017 	str	w23, [x0, #32]
    204e3eb0:	aa1403e1 	mov	x1, x20
    204e3eb4:	2a1303e0 	mov	w0, w19
    204e3eb8:	97fffbd9 	bl	204e2e1c <per_cpu_by_index_compute>
    204e3ebc:	91008000 	add	x0, x0, #0x20
    204e3ec0:	d2800081 	mov	x1, #0x4                   	// #4
    204e3ec4:	9400128a 	bl	204e88ec <flush_dcache_range>
    204e3ec8:	aa1403e1 	mov	x1, x20
    204e3ecc:	2a1303e0 	mov	w0, w19
    204e3ed0:	97fffbd3 	bl	204e2e1c <per_cpu_by_index_compute>
    204e3ed4:	b9402001 	ldr	w1, [x0, #32]
    204e3ed8:	6b17003f 	cmp	w1, w23
    204e3edc:	54000100 	b.eq	204e3efc <psci_cpu_on_start+0xf0>  // b.none
    204e3ee0:	b9002017 	str	w23, [x0, #32]
    204e3ee4:	aa1403e1 	mov	x1, x20
    204e3ee8:	2a1303e0 	mov	w0, w19
    204e3eec:	97fffbcc 	bl	204e2e1c <per_cpu_by_index_compute>
    204e3ef0:	91008000 	add	x0, x0, #0x20
    204e3ef4:	d2800081 	mov	x1, #0x4                   	// #4
    204e3ef8:	9400127d 	bl	204e88ec <flush_dcache_range>
    204e3efc:	d0000040 	adrp	x0, 204ed000 <__STACKS_START__+0x1280>
    204e3f00:	f9423000 	ldr	x0, [x0, #1120]
    204e3f04:	f9400401 	ldr	x1, [x0, #8]
    204e3f08:	aa1503e0 	mov	x0, x21
    204e3f0c:	d63f0020 	blr	x1
    204e3f10:	2a0003f5 	mov	w21, w0
    204e3f14:	34000180 	cbz	w0, 204e3f44 <psci_cpu_on_start+0x138>
    204e3f18:	aa1403e1 	mov	x1, x20
    204e3f1c:	2a1303e0 	mov	w0, w19
    204e3f20:	97fffbbf 	bl	204e2e1c <per_cpu_by_index_compute>
    204e3f24:	52800021 	mov	w1, #0x1                   	// #1
    204e3f28:	b9002001 	str	w1, [x0, #32]
    204e3f2c:	aa1403e1 	mov	x1, x20
    204e3f30:	2a1303e0 	mov	w0, w19
    204e3f34:	97fffbba 	bl	204e2e1c <per_cpu_by_index_compute>
    204e3f38:	91008000 	add	x0, x0, #0x20
    204e3f3c:	d2800081 	mov	x1, #0x4                   	// #4
    204e3f40:	9400126b 	bl	204e88ec <flush_dcache_range>
    204e3f44:	aa1603e1 	mov	x1, x22
    204e3f48:	2a1303e0 	mov	w0, w19
    204e3f4c:	97fffbb4 	bl	204e2e1c <per_cpu_by_index_compute>
    204e3f50:	91003000 	add	x0, x0, #0xc
    204e3f54:	940013cb 	bl	204e8e80 <spin_unlock>
    204e3f58:	a94153f3 	ldp	x19, x20, [sp, #16]
    204e3f5c:	2a1503e0 	mov	w0, w21
    204e3f60:	a9425bf5 	ldp	x21, x22, [sp, #32]
    204e3f64:	f9401bf7 	ldr	x23, [sp, #48]
    204e3f68:	a8c47bfd 	ldp	x29, x30, [sp], #64
    204e3f6c:	d65f03c0 	ret
    204e3f70:	12800075 	mov	w21, #0xfffffffc            	// #-4
    204e3f74:	17fffff4 	b	204e3f44 <psci_cpu_on_start+0x138>
    204e3f78:	12800095 	mov	w21, #0xfffffffb            	// #-5
    204e3f7c:	17fffff2 	b	204e3f44 <psci_cpu_on_start+0x138>

00000000204e3f80 <psci_cpu_on_finish>:
    204e3f80:	a9bd7bfd 	stp	x29, x30, [sp, #-48]!
    204e3f84:	910003fd 	mov	x29, sp
    204e3f88:	a9025bf5 	stp	x21, x22, [sp, #32]
    204e3f8c:	d0000055 	adrp	x21, 204ed000 <__STACKS_START__+0x1280>
    204e3f90:	a90153f3 	stp	x19, x20, [sp, #16]
    204e3f94:	2a0003f4 	mov	w20, w0
    204e3f98:	aa0103f3 	mov	x19, x1
    204e3f9c:	f94232a0 	ldr	x0, [x21, #1120]
    204e3fa0:	f9401801 	ldr	x1, [x0, #48]
    204e3fa4:	aa1303e0 	mov	x0, x19
    204e3fa8:	d63f0020 	blr	x1
    204e3fac:	f94232a0 	ldr	x0, [x21, #1120]
    204e3fb0:	f9401c01 	ldr	x1, [x0, #56]
    204e3fb4:	b4000061 	cbz	x1, 204e3fc0 <psci_cpu_on_finish+0x40>
    204e3fb8:	aa1303e0 	mov	x0, x19
    204e3fbc:	d63f0020 	blr	x1
    204e3fc0:	94000029 	bl	204e4064 <psci_arch_setup>
    204e3fc4:	b0000075 	adrp	x21, 204f0000 <imx_gicv3_ctx+0x26d0>
    204e3fc8:	911902b5 	add	x21, x21, #0x640
    204e3fcc:	2a1403e0 	mov	w0, w20
    204e3fd0:	aa1503e1 	mov	x1, x21
    204e3fd4:	97fffb92 	bl	204e2e1c <per_cpu_by_index_compute>
    204e3fd8:	91003000 	add	x0, x0, #0xc
    204e3fdc:	940013a1 	bl	204e8e60 <spin_lock>
    204e3fe0:	aa1503e1 	mov	x1, x21
    204e3fe4:	2a1403e0 	mov	w0, w20
    204e3fe8:	97fffb8d 	bl	204e2e1c <per_cpu_by_index_compute>
    204e3fec:	91003000 	add	x0, x0, #0xc
    204e3ff0:	940013a4 	bl	204e8e80 <spin_unlock>
    204e3ff4:	d0000040 	adrp	x0, 204ed000 <__STACKS_START__+0x1280>
    204e3ff8:	f9423400 	ldr	x0, [x0, #1128]
    204e3ffc:	b40000a0 	cbz	x0, 204e4010 <psci_cpu_on_finish+0x90>
    204e4000:	f9400c01 	ldr	x1, [x0, #24]
    204e4004:	b4000061 	cbz	x1, 204e4010 <psci_cpu_on_finish+0x90>
    204e4008:	d2800000 	mov	x0, #0x0                   	// #0
    204e400c:	d63f0020 	blr	x1
    204e4010:	d0000033 	adrp	x19, 204ea000 <wakeupmix_irq_mask+0x2c>
    204e4014:	d0000036 	adrp	x22, 204ea000 <wakeupmix_irq_mask+0x2c>
    204e4018:	91104273 	add	x19, x19, #0x410
    204e401c:	911042d6 	add	x22, x22, #0x410
    204e4020:	eb16027f 	cmp	x19, x22
    204e4024:	54000183 	b.cc	204e4054 <psci_cpu_on_finish+0xd4>  // b.lo, b.ul, b.last
    204e4028:	d53800b3 	mrs	x19, mpidr_el1
    204e402c:	aa1503e1 	mov	x1, x21
    204e4030:	2a1403e0 	mov	w0, w20
    204e4034:	97fffb7a 	bl	204e2e1c <per_cpu_by_index_compute>
    204e4038:	92409e61 	and	x1, x19, #0xffffffffff
    204e403c:	a94153f3 	ldp	x19, x20, [sp, #16]
    204e4040:	9260dc21 	and	x1, x1, #0xffffffff00ffffff
    204e4044:	a9425bf5 	ldp	x21, x22, [sp, #32]
    204e4048:	f9000001 	str	x1, [x0]
    204e404c:	a8c37bfd 	ldp	x29, x30, [sp], #48
    204e4050:	d65f03c0 	ret
    204e4054:	f8408661 	ldr	x1, [x19], #8
    204e4058:	d2800000 	mov	x0, #0x0                   	// #0
    204e405c:	d63f0020 	blr	x1
    204e4060:	17fffff0 	b	204e4020 <psci_cpu_on_finish+0xa0>

00000000204e4064 <psci_arch_setup>:
    204e4064:	a9bf7bfd 	stp	x29, x30, [sp, #-16]!
    204e4068:	910003fd 	mov	x29, sp
    204e406c:	94000abc 	bl	204e6b5c <plat_get_syscnt_freq2>
    204e4070:	2a0003e0 	mov	w0, w0
    204e4074:	d51be000 	msr	cntfrq_el0, x0
    204e4078:	97fffb27 	bl	204e2d14 <cpu_data_init_cpu_ops>
    204e407c:	97fffa8b 	bl	204e2aa8 <cm_init_percpu_once_regs>
    204e4080:	a8c17bfd 	ldp	x29, x30, [sp], #16
    204e4084:	17fff9e1 	b	204e2808 <print_errata_status>

00000000204e4088 <psci_setup>:
    204e4088:	a9b87bfd 	stp	x29, x30, [sp, #-128]!
    204e408c:	910003fd 	mov	x29, sp
    204e4090:	a90153f3 	stp	x19, x20, [sp, #16]
    204e4094:	52800013 	mov	w19, #0x0                   	// #0
    204e4098:	a9025bf5 	stp	x21, x22, [sp, #32]
    204e409c:	52800015 	mov	w21, #0x0                   	// #0
    204e40a0:	52800056 	mov	w22, #0x2                   	// #2
    204e40a4:	a90363f7 	stp	x23, x24, [sp, #48]
    204e40a8:	aa0003f8 	mov	x24, x0
    204e40ac:	a9046bf9 	stp	x25, x26, [sp, #64]
    204e40b0:	90000079 	adrp	x25, 204f0000 <imx_gicv3_ctx+0x26d0>
    204e40b4:	91190339 	add	x25, x25, #0x640
    204e40b8:	a90573fb 	stp	x27, x28, [sp, #80]
    204e40bc:	9400140a 	bl	204e90e4 <plat_my_core_pos>
    204e40c0:	2a0003f7 	mov	w23, w0
    204e40c4:	97ffffe8 	bl	204e4064 <psci_arch_setup>
    204e40c8:	5280003b 	mov	w27, #0x1                   	// #1
    204e40cc:	94000ef5 	bl	204e7ca0 <plat_get_power_domain_tree_desc>
    204e40d0:	aa0003fc 	mov	x28, x0
    204e40d4:	52800000 	mov	w0, #0x0                   	// #0
    204e40d8:	0b150366 	add	w6, w27, w21
    204e40dc:	5280001b 	mov	w27, #0x0                   	// #0
    204e40e0:	14000009 	b	204e4104 <psci_setup+0x7c>
    204e40e4:	38754b83 	ldrb	w3, [x28, w21, uxtw]
    204e40e8:	2a0003f3 	mov	w19, w0
    204e40ec:	0b000067 	add	w7, w3, w0
    204e40f0:	6b07027f 	cmp	w19, w7
    204e40f4:	54000e23 	b.cc	204e42b8 <psci_setup+0x230>  // b.lo, b.ul, b.last
    204e40f8:	0b03037b 	add	w27, w27, w3
    204e40fc:	110006b5 	add	w21, w21, #0x1
    204e4100:	2a1303e0 	mov	w0, w19
    204e4104:	6b1500df 	cmp	w6, w21
    204e4108:	54fffee1 	b.ne	204e40e4 <psci_setup+0x5c>  // b.any
    204e410c:	710006d6 	subs	w22, w22, #0x1
    204e4110:	54001340 	b.eq	204e4378 <psci_setup+0x2f0>  // b.none
    204e4114:	310006df 	cmn	w22, #0x1
    204e4118:	54fffe01 	b.ne	204e40d8 <psci_setup+0x50>  // b.any
    204e411c:	90000060 	adrp	x0, 204f0000 <imx_gicv3_ctx+0x26d0>
    204e4120:	90000074 	adrp	x20, 204f0000 <imx_gicv3_ctx+0x26d0>
    204e4124:	9104a015 	add	x21, x0, #0x128
    204e4128:	91042294 	add	x20, x20, #0x108
    204e412c:	b9012813 	str	w19, [x0, #296]
    204e4130:	5280001a 	mov	w26, #0x0                   	// #0
    204e4134:	52800019 	mov	w25, #0x0                   	// #0
    204e4138:	52800013 	mov	w19, #0x0                   	// #0
    204e413c:	f9003fff 	str	xzr, [sp, #120]
    204e4140:	b94002b6 	ldr	w22, [x21]
    204e4144:	6b16027f 	cmp	w19, w22
    204e4148:	540011c3 	b.cc	204e4380 <psci_setup+0x2f8>  // b.lo, b.ul, b.last
    204e414c:	b0000053 	adrp	x19, 204ed000 <__STACKS_START__+0x1280>
    204e4150:	90000075 	adrp	x21, 204f0000 <imx_gicv3_ctx+0x26d0>
    204e4154:	9111c273 	add	x19, x19, #0x470
    204e4158:	910e02b5 	add	x21, x21, #0x380
    204e415c:	52800014 	mov	w20, #0x0                   	// #0
    204e4160:	6b16029f 	cmp	w20, w22
    204e4164:	54001461 	b.ne	204e43f0 <psci_setup+0x368>  // b.any
    204e4168:	d53800b3 	mrs	x19, mpidr_el1
    204e416c:	90000061 	adrp	x1, 204f0000 <imx_gicv3_ctx+0x26d0>
    204e4170:	2a1703e0 	mov	w0, w23
    204e4174:	91190021 	add	x1, x1, #0x640
    204e4178:	97fffb29 	bl	204e2e1c <per_cpu_by_index_compute>
    204e417c:	92409e61 	and	x1, x19, #0xffffffffff
    204e4180:	b0000053 	adrp	x19, 204ed000 <__STACKS_START__+0x1280>
    204e4184:	9260dc21 	and	x1, x1, #0xffffffff00ffffff
    204e4188:	f9000001 	str	x1, [x0]
    204e418c:	97fffb7f 	bl	204e2f88 <psci_init_req_local_pwr_states>
    204e4190:	2a1703e0 	mov	w0, w23
    204e4194:	52800041 	mov	w1, #0x2                   	// #2
    204e4198:	97fffbe9 	bl	204e313c <psci_set_pwr_domains_to_run>
    204e419c:	f9400700 	ldr	x0, [x24, #8]
    204e41a0:	91118261 	add	x1, x19, #0x460
    204e41a4:	94000eab 	bl	204e7c50 <plat_setup_psci_ops>
    204e41a8:	f9423261 	ldr	x1, [x19, #1120]
    204e41ac:	52808223 	mov	w3, #0x411                 	// #1041
    204e41b0:	90000060 	adrp	x0, 204f0000 <imx_gicv3_ctx+0x26d0>
    204e41b4:	f9400822 	ldr	x2, [x1, #16]
    204e41b8:	f100005f 	cmp	x2, #0x0
    204e41bc:	528082a2 	mov	w2, #0x415                 	// #1045
    204e41c0:	1a831042 	csel	w2, w2, w3, ne	// ne = any
    204e41c4:	b9012c02 	str	w2, [x0, #300]
    204e41c8:	f9400423 	ldr	x3, [x1, #8]
    204e41cc:	b40000a3 	cbz	x3, 204e41e0 <psci_setup+0x158>
    204e41d0:	f9401823 	ldr	x3, [x1, #48]
    204e41d4:	b4000063 	cbz	x3, 204e41e0 <psci_setup+0x158>
    204e41d8:	321d0042 	orr	w2, w2, #0x8
    204e41dc:	b9012c02 	str	w2, [x0, #300]
    204e41e0:	f9401422 	ldr	x2, [x1, #40]
    204e41e4:	b40001a2 	cbz	x2, 204e4218 <psci_setup+0x190>
    204e41e8:	f9402022 	ldr	x2, [x1, #64]
    204e41ec:	b4000162 	cbz	x2, 204e4218 <psci_setup+0x190>
    204e41f0:	f9403022 	ldr	x2, [x1, #96]
    204e41f4:	b4000082 	cbz	x2, 204e4204 <psci_setup+0x17c>
    204e41f8:	b9412c02 	ldr	w2, [x0, #300]
    204e41fc:	321f0042 	orr	w2, w2, #0x2
    204e4200:	b9012c02 	str	w2, [x0, #300]
    204e4204:	f9403822 	ldr	x2, [x1, #112]
    204e4208:	b4000082 	cbz	x2, 204e4218 <psci_setup+0x190>
    204e420c:	b9412c02 	ldr	w2, [x0, #300]
    204e4210:	32120042 	orr	w2, w2, #0x4000
    204e4214:	b9012c02 	str	w2, [x0, #300]
    204e4218:	f9402822 	ldr	x2, [x1, #80]
    204e421c:	b4000082 	cbz	x2, 204e422c <psci_setup+0x1a4>
    204e4220:	b9412c02 	ldr	w2, [x0, #300]
    204e4224:	32180042 	orr	w2, w2, #0x100
    204e4228:	b9012c02 	str	w2, [x0, #300]
    204e422c:	f9402c22 	ldr	x2, [x1, #88]
    204e4230:	b4000082 	cbz	x2, 204e4240 <psci_setup+0x1b8>
    204e4234:	b9412c02 	ldr	w2, [x0, #300]
    204e4238:	32170042 	orr	w2, w2, #0x200
    204e423c:	b9012c02 	str	w2, [x0, #300]
    204e4240:	f9404422 	ldr	x2, [x1, #136]
    204e4244:	b4000082 	cbz	x2, 204e4254 <psci_setup+0x1cc>
    204e4248:	b9412c02 	ldr	w2, [x0, #300]
    204e424c:	32130042 	orr	w2, w2, #0x2000
    204e4250:	b9012c02 	str	w2, [x0, #300]
    204e4254:	f9404c22 	ldr	x2, [x1, #152]
    204e4258:	b40000c2 	cbz	x2, 204e4270 <psci_setup+0x1e8>
    204e425c:	f9405022 	ldr	x2, [x1, #160]
    204e4260:	b4000082 	cbz	x2, 204e4270 <psci_setup+0x1e8>
    204e4264:	b9412c02 	ldr	w2, [x0, #300]
    204e4268:	320d0042 	orr	w2, w2, #0x80000
    204e426c:	b9012c02 	str	w2, [x0, #300]
    204e4270:	f9404822 	ldr	x2, [x1, #144]
    204e4274:	b4000082 	cbz	x2, 204e4284 <psci_setup+0x1fc>
    204e4278:	b9412c02 	ldr	w2, [x0, #300]
    204e427c:	320c0042 	orr	w2, w2, #0x100000
    204e4280:	b9012c02 	str	w2, [x0, #300]
    204e4284:	f9405421 	ldr	x1, [x1, #168]
    204e4288:	b4000081 	cbz	x1, 204e4298 <psci_setup+0x210>
    204e428c:	b9412c01 	ldr	w1, [x0, #300]
    204e4290:	320e0021 	orr	w1, w1, #0x40000
    204e4294:	b9012c01 	str	w1, [x0, #300]
    204e4298:	a94153f3 	ldp	x19, x20, [sp, #16]
    204e429c:	52800000 	mov	w0, #0x0                   	// #0
    204e42a0:	a9425bf5 	ldp	x21, x22, [sp, #32]
    204e42a4:	a94363f7 	ldp	x23, x24, [sp, #48]
    204e42a8:	a9446bf9 	ldp	x25, x26, [sp, #64]
    204e42ac:	a94573fb 	ldp	x27, x28, [sp, #80]
    204e42b0:	a8c87bfd 	ldp	x29, x30, [sp], #128
    204e42b4:	d65f03c0 	ret
    204e42b8:	510006a4 	sub	w4, w21, #0x1
    204e42bc:	12003e74 	and	w20, w19, #0xffff
    204e42c0:	34000196 	cbz	w22, 204e42f0 <psci_setup+0x268>
    204e42c4:	90000062 	adrp	x2, 204f0000 <imx_gicv3_ctx+0x26d0>
    204e42c8:	91042042 	add	x2, x2, #0x108
    204e42cc:	8b343054 	add	x20, x2, w20, uxth #4
    204e42d0:	8b333042 	add	x2, x2, w19, uxth #4
    204e42d4:	52800080 	mov	w0, #0x4                   	// #4
    204e42d8:	39003696 	strb	w22, [x20, #13]
    204e42dc:	79001c53 	strh	w19, [x2, #14]
    204e42e0:	b9000a84 	str	w4, [x20, #8]
    204e42e4:	39003280 	strb	w0, [x20, #12]
    204e42e8:	11000673 	add	w19, w19, #0x1
    204e42ec:	17ffff81 	b	204e40f0 <psci_setup+0x68>
    204e42f0:	aa1903e1 	mov	x1, x25
    204e42f4:	2a1403e0 	mov	w0, w20
    204e42f8:	290c0fe6 	stp	w6, w3, [sp, #96]
    204e42fc:	290d1fe4 	stp	w4, w7, [sp, #104]
    204e4300:	97fffac7 	bl	204e2e1c <per_cpu_by_index_compute>
    204e4304:	b9406be4 	ldr	w4, [sp, #104]
    204e4308:	aa1903e1 	mov	x1, x25
    204e430c:	b9000804 	str	w4, [x0, #8]
    204e4310:	2a1403e0 	mov	w0, w20
    204e4314:	97fffac2 	bl	204e2e1c <per_cpu_by_index_compute>
    204e4318:	92800001 	mov	x1, #0xffffffffffffffff    	// #-1
    204e431c:	f9000001 	str	x1, [x0]
    204e4320:	90000060 	adrp	x0, 204f0000 <imx_gicv3_ctx+0x26d0>
    204e4324:	910e0001 	add	x1, x0, #0x380
    204e4328:	2a1403e0 	mov	w0, w20
    204e432c:	97fffabc 	bl	204e2e1c <per_cpu_by_index_compute>
    204e4330:	91008001 	add	x1, x0, #0x20
    204e4334:	52800022 	mov	w2, #0x1                   	// #1
    204e4338:	b9002002 	str	w2, [x0, #32]
    204e433c:	52800040 	mov	w0, #0x2                   	// #2
    204e4340:	b9000420 	str	w0, [x1, #4]
    204e4344:	52800080 	mov	w0, #0x4                   	// #4
    204e4348:	39002020 	strb	w0, [x1, #8]
    204e434c:	2a1403e0 	mov	w0, w20
    204e4350:	90000061 	adrp	x1, 204f0000 <imx_gicv3_ctx+0x26d0>
    204e4354:	910f0021 	add	x1, x1, #0x3c0
    204e4358:	97fffab1 	bl	204e2e1c <per_cpu_by_index_compute>
    204e435c:	aa0003e1 	mov	x1, x0
    204e4360:	52800022 	mov	w2, #0x1                   	// #1
    204e4364:	2a1403e0 	mov	w0, w20
    204e4368:	97ffefc1 	bl	204e026c <cm_set_context_by_index>
    204e436c:	294c0fe6 	ldp	w6, w3, [sp, #96]
    204e4370:	b9406fe7 	ldr	w7, [sp, #108]
    204e4374:	17ffffdd 	b	204e42e8 <psci_setup+0x260>
    204e4378:	52800000 	mov	w0, #0x0                   	// #0
    204e437c:	17ffff57 	b	204e40d8 <psci_setup+0x50>
    204e4380:	9101e3e2 	add	x2, sp, #0x78
    204e4384:	2a1303e0 	mov	w0, w19
    204e4388:	52800041 	mov	w1, #0x2                   	// #2
    204e438c:	97fffb55 	bl	204e30e0 <psci_get_parent_pwr_domain_nodes>
    204e4390:	b9407fe2 	ldr	w2, [sp, #124]
    204e4394:	6b1a005f 	cmp	w2, w26
    204e4398:	2a0203e0 	mov	w0, w2
    204e439c:	54000060 	b.eq	204e43a8 <psci_setup+0x320>  // b.none
    204e43a0:	d37cec01 	lsl	x1, x0, #4
    204e43a4:	b8216a93 	str	w19, [x20, x1]
    204e43a8:	8b001280 	add	x0, x20, x0, lsl #4
    204e43ac:	b9400401 	ldr	w1, [x0, #4]
    204e43b0:	11000421 	add	w1, w1, #0x1
    204e43b4:	b9000401 	str	w1, [x0, #4]
    204e43b8:	b9407be1 	ldr	w1, [sp, #120]
    204e43bc:	6b01033f 	cmp	w25, w1
    204e43c0:	2a0103e0 	mov	w0, w1
    204e43c4:	54000060 	b.eq	204e43d0 <psci_setup+0x348>  // b.none
    204e43c8:	d37cec03 	lsl	x3, x0, #4
    204e43cc:	b8236a93 	str	w19, [x20, x3]
    204e43d0:	8b001280 	add	x0, x20, x0, lsl #4
    204e43d4:	11000673 	add	w19, w19, #0x1
    204e43d8:	2a0203fa 	mov	w26, w2
    204e43dc:	2a0103f9 	mov	w25, w1
    204e43e0:	b9400403 	ldr	w3, [x0, #4]
    204e43e4:	11000463 	add	w3, w3, #0x1
    204e43e8:	b9000403 	str	w3, [x0, #4]
    204e43ec:	17ffff55 	b	204e4140 <psci_setup+0xb8>
    204e43f0:	2a1403e0 	mov	w0, w20
    204e43f4:	aa1503e1 	mov	x1, x21
    204e43f8:	11000694 	add	w20, w20, #0x1
    204e43fc:	97fffa88 	bl	204e2e1c <per_cpu_by_index_compute>
    204e4400:	f9000813 	str	x19, [x0, #16]
    204e4404:	91016273 	add	x19, x19, #0x58
    204e4408:	17ffff56 	b	204e4160 <psci_setup+0xd8>

00000000204e440c <psci_cpu_suspend_to_powerdown_finish>:
    204e440c:	a9bd7bfd 	stp	x29, x30, [sp, #-48]!
    204e4410:	910003fd 	mov	x29, sp
    204e4414:	a90153f3 	stp	x19, x20, [sp, #16]
    204e4418:	2a0103f3 	mov	w19, w1
    204e441c:	b0000041 	adrp	x1, 204ed000 <__STACKS_START__+0x1280>
    204e4420:	b9002fe0 	str	w0, [sp, #44]
    204e4424:	12001c74 	and	w20, w3, #0xff
    204e4428:	f9423021 	ldr	x1, [x1, #1120]
    204e442c:	aa0203e0 	mov	x0, x2
    204e4430:	f9402021 	ldr	x1, [x1, #64]
    204e4434:	d63f0020 	blr	x1
    204e4438:	37000094 	tbnz	w20, #0, 204e4448 <psci_cpu_suspend_to_powerdown_finish+0x3c>
    204e443c:	940009c8 	bl	204e6b5c <plat_get_syscnt_freq2>
    204e4440:	2a0003e0 	mov	w0, w0
    204e4444:	d51be000 	msr	cntfrq_el0, x0
    204e4448:	b0000040 	adrp	x0, 204ed000 <__STACKS_START__+0x1280>
    204e444c:	f9423400 	ldr	x0, [x0, #1128]
    204e4450:	b40000c0 	cbz	x0, 204e4468 <psci_cpu_suspend_to_powerdown_finish+0x5c>
    204e4454:	f9401002 	ldr	x2, [x0, #32]
    204e4458:	b4000082 	cbz	x2, 204e4468 <psci_cpu_suspend_to_powerdown_finish+0x5c>
    204e445c:	2a1403e1 	mov	w1, w20
    204e4460:	2a1303e0 	mov	w0, w19
    204e4464:	d63f0040 	blr	x2
    204e4468:	90000060 	adrp	x0, 204f0000 <imx_gicv3_ctx+0x26d0>
    204e446c:	d0000033 	adrp	x19, 204ea000 <wakeupmix_irq_mask+0x2c>
    204e4470:	910e0000 	add	x0, x0, #0x380
    204e4474:	d0000034 	adrp	x20, 204ea000 <wakeupmix_irq_mask+0x2c>
    204e4478:	97fffa75 	bl	204e2e4c <per_cpu_cur_compute>
    204e447c:	91104273 	add	x19, x19, #0x410
    204e4480:	91104294 	add	x20, x20, #0x410
    204e4484:	52800041 	mov	w1, #0x2                   	// #2
    204e4488:	b9002401 	str	w1, [x0, #36]
    204e448c:	eb14027f 	cmp	x19, x20
    204e4490:	54000083 	b.cc	204e44a0 <psci_cpu_suspend_to_powerdown_finish+0x94>  // b.lo, b.ul, b.last
    204e4494:	a94153f3 	ldp	x19, x20, [sp, #16]
    204e4498:	a8c37bfd 	ldp	x29, x30, [sp], #48
    204e449c:	d65f03c0 	ret
    204e44a0:	f8408661 	ldr	x1, [x19], #8
    204e44a4:	9100b3e0 	add	x0, sp, #0x2c
    204e44a8:	d63f0020 	blr	x1
    204e44ac:	17fffff8 	b	204e448c <psci_cpu_suspend_to_powerdown_finish+0x80>

00000000204e44b0 <psci_cpu_suspend_start>:
    204e44b0:	a9ba7bfd 	stp	x29, x30, [sp, #-96]!
    204e44b4:	910003fd 	mov	x29, sp
    204e44b8:	a90153f3 	stp	x19, x20, [sp, #16]
    204e44bc:	aa0203f4 	mov	x20, x2
    204e44c0:	910163e2 	add	x2, sp, #0x58
    204e44c4:	2a0103f3 	mov	w19, w1
    204e44c8:	a9025bf5 	stp	x21, x22, [sp, #32]
    204e44cc:	2a0003f5 	mov	w21, w0
    204e44d0:	a90363f7 	stp	x23, x24, [sp, #48]
    204e44d4:	2a0303f7 	mov	w23, w3
    204e44d8:	f90023f9 	str	x25, [sp, #64]
    204e44dc:	f9002fff 	str	xzr, [sp, #88]
    204e44e0:	97fffb00 	bl	204e30e0 <psci_get_parent_pwr_domain_nodes>
    204e44e4:	910163e1 	add	x1, sp, #0x58
    204e44e8:	2a1303e0 	mov	w0, w19
    204e44ec:	97fffb9a 	bl	204e3354 <psci_acquire_pwr_domain_locks>
    204e44f0:	d538c100 	mrs	x0, isr_el1
    204e44f4:	b5000820 	cbnz	x0, 204e45f8 <psci_cpu_suspend_start+0x148>
    204e44f8:	aa1403e2 	mov	x2, x20
    204e44fc:	2a1303e1 	mov	w1, w19
    204e4500:	2a1503e0 	mov	w0, w21
    204e4504:	97fffb30 	bl	204e31c4 <psci_do_state_coordination>
    204e4508:	aa1403e2 	mov	x2, x20
    204e450c:	2a1303e1 	mov	w1, w19
    204e4510:	2a1503e0 	mov	w0, w21
    204e4514:	97fffad3 	bl	204e3060 <psci_set_target_local_pwr_states>
    204e4518:	340008d7 	cbz	w23, 204e4630 <psci_cpu_suspend_start+0x180>
    204e451c:	aa1403e0 	mov	x0, x20
    204e4520:	d0000038 	adrp	x24, 204ea000 <wakeupmix_irq_mask+0x2c>
    204e4524:	97fffb6c 	bl	204e32d4 <psci_find_max_off_lvl>
    204e4528:	d0000039 	adrp	x25, 204ea000 <wakeupmix_irq_mask+0x2c>
    204e452c:	2a0003f6 	mov	w22, w0
    204e4530:	91104318 	add	x24, x24, #0x410
    204e4534:	91104339 	add	x25, x25, #0x410
    204e4538:	b90057f5 	str	w21, [sp, #84]
    204e453c:	eb19031f 	cmp	x24, x25
    204e4540:	54000703 	b.cc	204e4620 <psci_cpu_suspend_start+0x170>  // b.lo, b.ul, b.last
    204e4544:	90000060 	adrp	x0, 204f0000 <imx_gicv3_ctx+0x26d0>
    204e4548:	910e0000 	add	x0, x0, #0x380
    204e454c:	97fffa40 	bl	204e2e4c <per_cpu_cur_compute>
    204e4550:	b9002413 	str	w19, [x0, #36]
    204e4554:	b0000040 	adrp	x0, 204ed000 <__STACKS_START__+0x1280>
    204e4558:	f9423400 	ldr	x0, [x0, #1128]
    204e455c:	b40000a0 	cbz	x0, 204e4570 <psci_cpu_suspend_start+0xc0>
    204e4560:	f9400801 	ldr	x1, [x0, #16]
    204e4564:	b4000061 	cbz	x1, 204e4570 <psci_cpu_suspend_start+0xc0>
    204e4568:	2a1603e0 	mov	w0, w22
    204e456c:	d63f0020 	blr	x1
    204e4570:	2a1603e0 	mov	w0, w22
    204e4574:	97fffc2f 	bl	204e3630 <psci_pwrdown_cpu_start>
    204e4578:	b0000058 	adrp	x24, 204ed000 <__STACKS_START__+0x1280>
    204e457c:	f9423300 	ldr	x0, [x24, #1120]
    204e4580:	f9401401 	ldr	x1, [x0, #40]
    204e4584:	aa1403e0 	mov	x0, x20
    204e4588:	d63f0020 	blr	x1
    204e458c:	910163e1 	add	x1, sp, #0x58
    204e4590:	2a1303e0 	mov	w0, w19
    204e4594:	97fffb8b 	bl	204e33c0 <psci_release_pwr_domain_locks>
    204e4598:	34000517 	cbz	w23, 204e4638 <psci_cpu_suspend_start+0x188>
    204e459c:	f9423300 	ldr	x0, [x24, #1120]
    204e45a0:	f9402401 	ldr	x1, [x0, #72]
    204e45a4:	b4000061 	cbz	x1, 204e45b0 <psci_cpu_suspend_start+0x100>
    204e45a8:	aa1403e0 	mov	x0, x20
    204e45ac:	d63f0020 	blr	x1
    204e45b0:	2a1603e0 	mov	w0, w22
    204e45b4:	97fffc2c 	bl	204e3664 <psci_pwrdown_cpu_end_wakeup>
    204e45b8:	910163e1 	add	x1, sp, #0x58
    204e45bc:	2a1303e0 	mov	w0, w19
    204e45c0:	97fffb65 	bl	204e3354 <psci_acquire_pwr_domain_locks>
    204e45c4:	aa1403e2 	mov	x2, x20
    204e45c8:	2a1303e1 	mov	w1, w19
    204e45cc:	2a1503e0 	mov	w0, w21
    204e45d0:	97fffa7d 	bl	204e2fc4 <psci_get_target_local_pwr_states>
    204e45d4:	34000377 	cbz	w23, 204e4640 <psci_cpu_suspend_start+0x190>
    204e45d8:	aa1403e2 	mov	x2, x20
    204e45dc:	2a1603e1 	mov	w1, w22
    204e45e0:	2a1503e0 	mov	w0, w21
    204e45e4:	52800023 	mov	w3, #0x1                   	// #1
    204e45e8:	97ffff89 	bl	204e440c <psci_cpu_suspend_to_powerdown_finish>
    204e45ec:	2a1303e1 	mov	w1, w19
    204e45f0:	2a1503e0 	mov	w0, w21
    204e45f4:	97fffad2 	bl	204e313c <psci_set_pwr_domains_to_run>
    204e45f8:	910163e1 	add	x1, sp, #0x58
    204e45fc:	2a1303e0 	mov	w0, w19
    204e4600:	97fffb70 	bl	204e33c0 <psci_release_pwr_domain_locks>
    204e4604:	a94153f3 	ldp	x19, x20, [sp, #16]
    204e4608:	52800000 	mov	w0, #0x0                   	// #0
    204e460c:	a9425bf5 	ldp	x21, x22, [sp, #32]
    204e4610:	a94363f7 	ldp	x23, x24, [sp, #48]
    204e4614:	f94023f9 	ldr	x25, [sp, #64]
    204e4618:	a8c67bfd 	ldp	x29, x30, [sp], #96
    204e461c:	d65f03c0 	ret
    204e4620:	f8408701 	ldr	x1, [x24], #8
    204e4624:	910153e0 	add	x0, sp, #0x54
    204e4628:	d63f0020 	blr	x1
    204e462c:	17ffffc4 	b	204e453c <psci_cpu_suspend_start+0x8c>
    204e4630:	52800016 	mov	w22, #0x0                   	// #0
    204e4634:	17ffffd1 	b	204e4578 <psci_cpu_suspend_start+0xc8>
    204e4638:	d503207f 	wfi
    204e463c:	17ffffdf 	b	204e45b8 <psci_cpu_suspend_start+0x108>
    204e4640:	f9423300 	ldr	x0, [x24, #1120]
    204e4644:	f9402001 	ldr	x1, [x0, #64]
    204e4648:	aa1403e0 	mov	x0, x20
    204e464c:	d63f0020 	blr	x1
    204e4650:	90000060 	adrp	x0, 204f0000 <imx_gicv3_ctx+0x26d0>
    204e4654:	910e0000 	add	x0, x0, #0x380
    204e4658:	97fff9fd 	bl	204e2e4c <per_cpu_cur_compute>
    204e465c:	52800041 	mov	w1, #0x2                   	// #2
    204e4660:	b9002401 	str	w1, [x0, #36]
    204e4664:	17ffffe2 	b	204e45ec <psci_cpu_suspend_start+0x13c>

00000000204e4668 <psci_system_off>:
    204e4668:	a9bf7bfd 	stp	x29, x30, [sp, #-16]!
    204e466c:	910003fd 	mov	x29, sp
    204e4670:	97fffbef 	bl	204e362c <psci_print_power_domain_map>
    204e4674:	b0000040 	adrp	x0, 204ed000 <__STACKS_START__+0x1280>
    204e4678:	f9423400 	ldr	x0, [x0, #1128]
    204e467c:	b4000080 	cbz	x0, 204e468c <psci_system_off+0x24>
    204e4680:	f9401c00 	ldr	x0, [x0, #56]
    204e4684:	b4000040 	cbz	x0, 204e468c <psci_system_off+0x24>
    204e4688:	d63f0000 	blr	x0
    204e468c:	97fff5d0 	bl	204e1dcc <console_flush>
    204e4690:	b0000040 	adrp	x0, 204ed000 <__STACKS_START__+0x1280>
    204e4694:	f9423000 	ldr	x0, [x0, #1120]
    204e4698:	f9402800 	ldr	x0, [x0, #80]
    204e469c:	d63f0000 	blr	x0
    204e46a0:	97fffbe5 	bl	204e3634 <psci_pwrdown_cpu_end_terminal>

00000000204e46a4 <psci_system_reset>:
    204e46a4:	a9bf7bfd 	stp	x29, x30, [sp, #-16]!
    204e46a8:	910003fd 	mov	x29, sp
    204e46ac:	97fffbe0 	bl	204e362c <psci_print_power_domain_map>
    204e46b0:	b0000040 	adrp	x0, 204ed000 <__STACKS_START__+0x1280>
    204e46b4:	f9423400 	ldr	x0, [x0, #1128]
    204e46b8:	b4000080 	cbz	x0, 204e46c8 <psci_system_reset+0x24>
    204e46bc:	f9402000 	ldr	x0, [x0, #64]
    204e46c0:	b4000040 	cbz	x0, 204e46c8 <psci_system_reset+0x24>
    204e46c4:	d63f0000 	blr	x0
    204e46c8:	97fff5c1 	bl	204e1dcc <console_flush>
    204e46cc:	b0000040 	adrp	x0, 204ed000 <__STACKS_START__+0x1280>
    204e46d0:	f9423000 	ldr	x0, [x0, #1120]
    204e46d4:	f9402c00 	ldr	x0, [x0, #88]
    204e46d8:	d63f0000 	blr	x0
    204e46dc:	97fffbd6 	bl	204e3634 <psci_pwrdown_cpu_end_terminal>

00000000204e46e0 <psci_system_reset2>:
    204e46e0:	a9bd7bfd 	stp	x29, x30, [sp, #-48]!
    204e46e4:	910003fd 	mov	x29, sp
    204e46e8:	a90153f3 	stp	x19, x20, [sp, #16]
    204e46ec:	2a0003f3 	mov	w19, w0
    204e46f0:	aa0103f4 	mov	x20, x1
    204e46f4:	f90013f5 	str	x21, [sp, #32]
    204e46f8:	531f7e75 	lsr	w21, w19, #31
    204e46fc:	97fffbcc 	bl	204e362c <psci_print_power_domain_map>
    204e4700:	36f80213 	tbz	w19, #31, 204e4740 <psci_system_reset2+0x60>
    204e4704:	b0000040 	adrp	x0, 204ed000 <__STACKS_START__+0x1280>
    204e4708:	f9423400 	ldr	x0, [x0, #1128]
    204e470c:	b50002e0 	cbnz	x0, 204e4768 <psci_system_reset2+0x88>
    204e4710:	97fff5af 	bl	204e1dcc <console_flush>
    204e4714:	b0000040 	adrp	x0, 204ed000 <__STACKS_START__+0x1280>
    204e4718:	2a1303e1 	mov	w1, w19
    204e471c:	aa1403e2 	mov	x2, x20
    204e4720:	f9423000 	ldr	x0, [x0, #1120]
    204e4724:	f9405403 	ldr	x3, [x0, #168]
    204e4728:	2a1503e0 	mov	w0, w21
    204e472c:	d63f0060 	blr	x3
    204e4730:	2a0003e1 	mov	w1, w0
    204e4734:	93407c00 	sxtw	x0, w0
    204e4738:	35000221 	cbnz	w1, 204e477c <psci_system_reset2+0x9c>
    204e473c:	97fffbbe 	bl	204e3634 <psci_pwrdown_cpu_end_terminal>
    204e4740:	350001d3 	cbnz	w19, 204e4778 <psci_system_reset2+0x98>
    204e4744:	b0000040 	adrp	x0, 204ed000 <__STACKS_START__+0x1280>
    204e4748:	f9423000 	ldr	x0, [x0, #1120]
    204e474c:	f9405001 	ldr	x1, [x0, #160]
    204e4750:	b4fffda1 	cbz	x1, 204e4704 <psci_system_reset2+0x24>
    204e4754:	52800000 	mov	w0, #0x0                   	// #0
    204e4758:	d63f0020 	blr	x1
    204e475c:	36fffd40 	tbz	w0, #31, 204e4704 <psci_system_reset2+0x24>
    204e4760:	92800000 	mov	x0, #0xffffffffffffffff    	// #-1
    204e4764:	14000006 	b	204e477c <psci_system_reset2+0x9c>
    204e4768:	f9402000 	ldr	x0, [x0, #64]
    204e476c:	b4fffd20 	cbz	x0, 204e4710 <psci_system_reset2+0x30>
    204e4770:	d63f0000 	blr	x0
    204e4774:	17ffffe7 	b	204e4710 <psci_system_reset2+0x30>
    204e4778:	92800020 	mov	x0, #0xfffffffffffffffe    	// #-2
    204e477c:	a94153f3 	ldp	x19, x20, [sp, #16]
    204e4780:	f94013f5 	ldr	x21, [sp, #32]
    204e4784:	a8c37bfd 	ldp	x29, x30, [sp], #48
    204e4788:	d65f03c0 	ret

00000000204e478c <xlat_arch_get_pas>:
    204e478c:	121c0400 	and	w0, w0, #0x30
    204e4790:	7100401f 	cmp	w0, #0x10
    204e4794:	1a9f17e0 	cset	w0, eq	// eq = none
    204e4798:	531b6800 	lsl	w0, w0, #5
    204e479c:	d65f03c0 	ret

00000000204e47a0 <tcr_physical_addr_size_bits>:
    204e47a0:	f2540c1f 	tst	x0, #0xf00000000000
    204e47a4:	54000141 	b.ne	204e47cc <tcr_physical_addr_size_bits+0x2c>  // b.any
    204e47a8:	f256041f 	tst	x0, #0xc0000000000
    204e47ac:	54000141 	b.ne	204e47d4 <tcr_physical_addr_size_bits+0x34>  // b.any
    204e47b0:	f258041f 	tst	x0, #0x30000000000
    204e47b4:	54000141 	b.ne	204e47dc <tcr_physical_addr_size_bits+0x3c>  // b.any
    204e47b8:	f25c0c1f 	tst	x0, #0xf000000000
    204e47bc:	54000141 	b.ne	204e47e4 <tcr_physical_addr_size_bits+0x44>  // b.any
    204e47c0:	f2600c1f 	tst	x0, #0xf00000000
    204e47c4:	9a9f07e0 	cset	x0, ne	// ne = any
    204e47c8:	d65f03c0 	ret
    204e47cc:	d28000a0 	mov	x0, #0x5                   	// #5
    204e47d0:	17fffffe 	b	204e47c8 <tcr_physical_addr_size_bits+0x28>
    204e47d4:	d2800080 	mov	x0, #0x4                   	// #4
    204e47d8:	17fffffc 	b	204e47c8 <tcr_physical_addr_size_bits+0x28>
    204e47dc:	d2800060 	mov	x0, #0x3                   	// #3
    204e47e0:	17fffffa 	b	204e47c8 <tcr_physical_addr_size_bits+0x28>
    204e47e4:	d2800040 	mov	x0, #0x2                   	// #2
    204e47e8:	17fffff8 	b	204e47c8 <tcr_physical_addr_size_bits+0x28>

00000000204e47ec <xlat_arch_regime_get_xn_desc>:
    204e47ec:	7100041f 	cmp	w0, #0x1
    204e47f0:	d2e00801 	mov	x1, #0x40000000000000      	// #18014398509481984
    204e47f4:	d2e00c00 	mov	x0, #0x60000000000000      	// #27021597764222976
    204e47f8:	9a801020 	csel	x0, x1, x0, ne	// ne = any
    204e47fc:	d65f03c0 	ret

00000000204e4800 <xlat_arch_current_el>:
    204e4800:	d5384240 	mrs	x0, currentel
    204e4804:	53020c00 	ubfx	w0, w0, #2, #2
    204e4808:	d65f03c0 	ret

00000000204e480c <setup_mmu_cfg>:
    204e480c:	91000484 	add	x4, x4, #0x1
    204e4810:	a9bf7bfd 	stp	x29, x30, [sp, #-16]!
    204e4814:	dac00087 	rbit	x7, x4
    204e4818:	910003fd 	mov	x29, sp
    204e481c:	dac010e7 	clz	x7, x7
    204e4820:	aa0003e6 	mov	x6, x0
    204e4824:	52800804 	mov	w4, #0x40                  	// #64
    204e4828:	aa0303e0 	mov	x0, x3
    204e482c:	4b070084 	sub	w4, w4, w7
    204e4830:	37080061 	tbnz	w1, #1, 204e483c <setup_mmu_cfg+0x30>
    204e4834:	5286a001 	mov	w1, #0x3500                	// #13568
    204e4838:	2a010084 	orr	w4, w4, w1
    204e483c:	93407c84 	sxtw	x4, w4
    204e4840:	97ffffd8 	bl	204e47a0 <tcr_physical_addr_size_bits>
    204e4844:	aa008083 	orr	x3, x4, x0, lsl #32
    204e4848:	aa004081 	orr	x1, x4, x0, lsl #16
    204e484c:	b2690063 	orr	x3, x3, #0x800000
    204e4850:	d2b01000 	mov	x0, #0x80800000            	// #2155872256
    204e4854:	710004bf 	cmp	w5, #0x1
    204e4858:	aa000021 	orr	x1, x1, x0
    204e485c:	9a831021 	csel	x1, x1, x3, ne	// ne = any
    204e4860:	d5380740 	mrs	x0, id_aa64mmfr2_el1
    204e4864:	f2400c1f 	tst	x0, #0xf
    204e4868:	54000040 	b.eq	204e4870 <setup_mmu_cfg+0x64>  // b.none
    204e486c:	b2400042 	orr	x2, x2, #0x1
    204e4870:	d2801fe0 	mov	x0, #0xff                  	// #255
    204e4874:	a8c17bfd 	ldp	x29, x30, [sp], #16
    204e4878:	f2a00880 	movk	x0, #0x44, lsl #16
    204e487c:	a90004c0 	stp	x0, x1, [x6]
    204e4880:	f90008c2 	str	x2, [x6, #16]
    204e4884:	d65f03c0 	ret

00000000204e4888 <mmap_add>:
    204e4888:	aa0003e1 	mov	x1, x0
    204e488c:	f0000020 	adrp	x0, 204eb000 <__RO_END_UNALIGNED__>
    204e4890:	91000000 	add	x0, x0, #0x0
    204e4894:	1400015d 	b	204e4e08 <mmap_add_ctx>

00000000204e4898 <init_xlat_tables>:
    204e4898:	a9bf7bfd 	stp	x29, x30, [sp, #-16]!
    204e489c:	910003fd 	mov	x29, sp
    204e48a0:	97ffffd8 	bl	204e4800 <xlat_arch_current_el>
    204e48a4:	7100041f 	cmp	w0, #0x1
    204e48a8:	54000120 	b.eq	204e48cc <init_xlat_tables+0x34>  // b.none
    204e48ac:	7100081f 	cmp	w0, #0x2
    204e48b0:	1a9f07e0 	cset	w0, ne	// ne = any
    204e48b4:	11000801 	add	w1, w0, #0x2
    204e48b8:	f0000020 	adrp	x0, 204eb000 <__RO_END_UNALIGNED__>
    204e48bc:	91000000 	add	x0, x0, #0x0
    204e48c0:	b9005801 	str	w1, [x0, #88]
    204e48c4:	a8c17bfd 	ldp	x29, x30, [sp], #16
    204e48c8:	1400015f 	b	204e4e44 <init_xlat_tables_ctx>
    204e48cc:	2a0003e1 	mov	w1, w0
    204e48d0:	17fffffa 	b	204e48b8 <init_xlat_tables+0x20>

00000000204e48d4 <enable_mmu_el3>:
    204e48d4:	f0000022 	adrp	x2, 204eb000 <__RO_END_UNALIGNED__>
    204e48d8:	91000042 	add	x2, x2, #0x0
    204e48dc:	a9be7bfd 	stp	x29, x30, [sp, #-32]!
    204e48e0:	2a0003e1 	mov	w1, w0
    204e48e4:	52800065 	mov	w5, #0x3                   	// #3
    204e48e8:	910003fd 	mov	x29, sp
    204e48ec:	f9400444 	ldr	x4, [x2, #8]
    204e48f0:	f9402043 	ldr	x3, [x2, #64]
    204e48f4:	f9401842 	ldr	x2, [x2, #48]
    204e48f8:	f9000bf3 	str	x19, [sp, #16]
    204e48fc:	2a0003f3 	mov	w19, w0
    204e4900:	b0000040 	adrp	x0, 204ed000 <__STACKS_START__+0x1280>
    204e4904:	911f2000 	add	x0, x0, #0x7c8
    204e4908:	97ffffc1 	bl	204e480c <setup_mmu_cfg>
    204e490c:	2a1303e0 	mov	w0, w19
    204e4910:	f9400bf3 	ldr	x19, [sp, #16]
    204e4914:	a8c27bfd 	ldp	x29, x30, [sp], #32
    204e4918:	14001163 	b	204e8ea4 <enable_mmu_direct_el3>

00000000204e491c <xlat_desc>:
    204e491c:	a9bc7bfd 	stp	x29, x30, [sp, #-64]!
    204e4920:	71000c7f 	cmp	w3, #0x3
    204e4924:	910003fd 	mov	x29, sp
    204e4928:	a90153f3 	stp	x19, x20, [sp, #16]
    204e492c:	2a0103f4 	mov	w20, w1
    204e4930:	d27d0293 	eor	x19, x20, #0x8
    204e4934:	a9025bf5 	stp	x21, x22, [sp, #32]
    204e4938:	aa0003f5 	mov	x21, x0
    204e493c:	d3430e73 	ubfx	x19, x19, #3, #1
    204e4940:	2a0103e0 	mov	w0, w1
    204e4944:	d2800076 	mov	x22, #0x3                   	// #3
    204e4948:	9a9f06d6 	csinc	x22, x22, xzr, eq	// eq = none
    204e494c:	f9001bf7 	str	x23, [sp, #48]
    204e4950:	aa0203f7 	mov	x23, x2
    204e4954:	97ffff8e 	bl	204e478c <xlat_arch_get_pas>
    204e4958:	2a0003e1 	mov	w1, w0
    204e495c:	b9405aa0 	ldr	w0, [x21, #88]
    204e4960:	aa131ef3 	orr	x19, x23, x19, lsl #7
    204e4964:	aa160021 	orr	x1, x1, x22
    204e4968:	aa010273 	orr	x19, x19, x1
    204e496c:	7100041f 	cmp	w0, #0x1
    204e4970:	540001a1 	b.ne	204e49a4 <xlat_desc+0x88>  // b.any
    204e4974:	b2760261 	orr	x1, x19, #0x400
    204e4978:	f279029f 	tst	x20, #0x80
    204e497c:	d2808802 	mov	x2, #0x440                 	// #1088
    204e4980:	aa020273 	orr	x19, x19, x2
    204e4984:	9a811273 	csel	x19, x19, x1, ne	// ne = any
    204e4988:	72000a95 	ands	w21, w20, #0x7
    204e498c:	54000121 	b.ne	204e49b0 <xlat_desc+0x94>  // b.any
    204e4990:	97ffff97 	bl	204e47ec <xlat_arch_regime_get_xn_desc>
    204e4994:	aa000273 	orr	x19, x19, x0
    204e4998:	d2804080 	mov	x0, #0x204                 	// #516
    204e499c:	aa000273 	orr	x19, x19, x0
    204e49a0:	14000012 	b	204e49e8 <xlat_desc+0xcc>
    204e49a4:	d2808801 	mov	x1, #0x440                 	// #1088
    204e49a8:	aa010273 	orr	x19, x19, x1
    204e49ac:	17fffff7 	b	204e4988 <xlat_desc+0x6c>
    204e49b0:	52800901 	mov	w1, #0x48                  	// #72
    204e49b4:	6a01029f 	tst	w20, w1
    204e49b8:	54000060 	b.eq	204e49c4 <xlat_desc+0xa8>  // b.none
    204e49bc:	97ffff8c 	bl	204e47ec <xlat_arch_regime_get_xn_desc>
    204e49c0:	aa000273 	orr	x19, x19, x0
    204e49c4:	71000abf 	cmp	w21, #0x2
    204e49c8:	540001c1 	b.ne	204e4a00 <xlat_desc+0xe4>  // b.any
    204e49cc:	12180694 	and	w20, w20, #0x300
    204e49d0:	710c029f 	cmp	w20, #0x300
    204e49d4:	540000a0 	b.eq	204e49e8 <xlat_desc+0xcc>  // b.none
    204e49d8:	b2770260 	orr	x0, x19, #0x200
    204e49dc:	7108029f 	cmp	w20, #0x200
    204e49e0:	b2780673 	orr	x19, x19, #0x300
    204e49e4:	9a801273 	csel	x19, x19, x0, ne	// ne = any
    204e49e8:	a9425bf5 	ldp	x21, x22, [sp, #32]
    204e49ec:	aa1303e0 	mov	x0, x19
    204e49f0:	a94153f3 	ldp	x19, x20, [sp, #16]
    204e49f4:	f9401bf7 	ldr	x23, [sp, #48]
    204e49f8:	a8c47bfd 	ldp	x29, x30, [sp], #64
    204e49fc:	d65f03c0 	ret
    204e4a00:	d2804100 	mov	x0, #0x208                 	// #520
    204e4a04:	17ffffe6 	b	204e499c <xlat_desc+0x80>

00000000204e4a08 <xlat_tables_map_region>:
    204e4a08:	a9b97bfd 	stp	x29, x30, [sp, #-112]!
    204e4a0c:	910003fd 	mov	x29, sp
    204e4a10:	a90153f3 	stp	x19, x20, [sp, #16]
    204e4a14:	12800114 	mov	w20, #0xfffffff7            	// #-9
    204e4a18:	1b147cb4 	mul	w20, w5, w20
    204e4a1c:	a90573fb 	stp	x27, x28, [sp, #80]
    204e4a20:	aa0103fc 	mov	x28, x1
    204e4a24:	f9400421 	ldr	x1, [x1, #8]
    204e4a28:	11009e94 	add	w20, w20, #0x27
    204e4a2c:	a9025bf5 	stp	x21, x22, [sp, #32]
    204e4a30:	d2800035 	mov	x21, #0x1                   	// #1
    204e4a34:	9ad422b5 	lsl	x21, x21, x20
    204e4a38:	a90363f7 	stp	x23, x24, [sp, #48]
    204e4a3c:	aa0003f8 	mov	x24, x0
    204e4a40:	cb1503e0 	neg	x0, x21
    204e4a44:	8a010000 	and	x0, x0, x1
    204e4a48:	eb02003f 	cmp	x1, x2
    204e4a4c:	f9400b96 	ldr	x22, [x28, #16]
    204e4a50:	9a828000 	csel	x0, x0, x2, hi	// hi = pmore
    204e4a54:	cb020013 	sub	x19, x0, x2
    204e4a58:	aa0003f7 	mov	x23, x0
    204e4a5c:	8b160036 	add	x22, x1, x22
    204e4a60:	a9046bf9 	stp	x25, x26, [sp, #64]
    204e4a64:	9ad42673 	lsr	x19, x19, x20
    204e4a68:	2a0503fa 	mov	w26, w5
    204e4a6c:	d10006d6 	sub	x22, x22, #0x1
    204e4a70:	290c93f3 	stp	w19, w4, [sp, #100]
    204e4a74:	8b334c73 	add	x19, x3, w19, uxtw #3
    204e4a78:	110004a1 	add	w1, w5, #0x1
    204e4a7c:	b9006fe1 	str	w1, [sp, #108]
    204e4a80:	294c8be1 	ldp	w1, w2, [sp, #100]
    204e4a84:	6b02003f 	cmp	w1, w2
    204e4a88:	54000362 	b.cs	204e4af4 <xlat_tables_map_region+0xec>  // b.hs, b.nlast
    204e4a8c:	a9401782 	ldp	x2, x5, [x28]
    204e4a90:	8b0002b9 	add	x25, x21, x0
    204e4a94:	f9400b81 	ldr	x1, [x28, #16]
    204e4a98:	d100073b 	sub	x27, x25, #0x1
    204e4a9c:	f9400263 	ldr	x3, [x19]
    204e4aa0:	8b0100a1 	add	x1, x5, x1
    204e4aa4:	12000464 	and	w4, w3, #0x3
    204e4aa8:	d1000421 	sub	x1, x1, #0x1
    204e4aac:	eb1700bf 	cmp	x5, x23
    204e4ab0:	540006c8 	b.hi	204e4b88 <xlat_tables_map_region+0x180>  // b.pmore
    204e4ab4:	eb01037f 	cmp	x27, x1
    204e4ab8:	54000688 	b.hi	204e4b88 <xlat_tables_map_region+0x180>  // b.pmore
    204e4abc:	cb050042 	sub	x2, x2, x5
    204e4ac0:	8b000042 	add	x2, x2, x0
    204e4ac4:	71000f5f 	cmp	w26, #0x3
    204e4ac8:	540001a1 	b.ne	204e4afc <xlat_tables_map_region+0xf4>  // b.any
    204e4acc:	71000c9f 	cmp	w4, #0x3
    204e4ad0:	54000781 	b.ne	204e4bc0 <xlat_tables_map_region+0x1b8>  // b.any
    204e4ad4:	b94067e0 	ldr	w0, [sp, #100]
    204e4ad8:	8b1502f7 	add	x23, x23, x21
    204e4adc:	91002273 	add	x19, x19, #0x8
    204e4ae0:	11000400 	add	w0, w0, #0x1
    204e4ae4:	b90067e0 	str	w0, [sp, #100]
    204e4ae8:	aa1903e0 	mov	x0, x25
    204e4aec:	eb1902df 	cmp	x22, x25
    204e4af0:	54fffc88 	b.hi	204e4a80 <xlat_tables_map_region+0x78>  // b.pmore
    204e4af4:	d1000400 	sub	x0, x0, #0x1
    204e4af8:	1400001d 	b	204e4b6c <xlat_tables_map_region+0x164>
    204e4afc:	71000c9f 	cmp	w4, #0x3
    204e4b00:	540004e0 	b.eq	204e4b9c <xlat_tables_map_region+0x194>  // b.none
    204e4b04:	35fffe84 	cbnz	w4, 204e4ad4 <xlat_tables_map_region+0xcc>
    204e4b08:	92800001 	mov	x1, #0xffffffffffffffff    	// #-1
    204e4b0c:	9ad42021 	lsl	x1, x1, x20
    204e4b10:	ea21005f 	bics	xzr, x2, x1
    204e4b14:	540000a1 	b.ne	204e4b28 <xlat_tables_map_region+0x120>  // b.any
    204e4b18:	3400009a 	cbz	w26, 204e4b28 <xlat_tables_map_region+0x120>
    204e4b1c:	f9401381 	ldr	x1, [x28, #32]
    204e4b20:	9ad42421 	lsr	x1, x1, x20
    204e4b24:	b50004e1 	cbnz	x1, 204e4bc0 <xlat_tables_map_region+0x1b8>
    204e4b28:	b9402f01 	ldr	w1, [x24, #44]
    204e4b2c:	f9401303 	ldr	x3, [x24, #32]
    204e4b30:	11000422 	add	w2, w1, #0x1
    204e4b34:	b9002f02 	str	w2, [x24, #44]
    204e4b38:	93747c21 	sbfiz	x1, x1, #12, #32
    204e4b3c:	ab010063 	adds	x3, x3, x1
    204e4b40:	54000160 	b.eq	204e4b6c <xlat_tables_map_region+0x164>  // b.none
    204e4b44:	b2400461 	orr	x1, x3, #0x3
    204e4b48:	f9000261 	str	x1, [x19]
    204e4b4c:	aa0003e2 	mov	x2, x0
    204e4b50:	11000745 	add	w5, w26, #0x1
    204e4b54:	aa1803e0 	mov	x0, x24
    204e4b58:	aa1c03e1 	mov	x1, x28
    204e4b5c:	52804004 	mov	w4, #0x200                 	// #512
    204e4b60:	97ffffaa 	bl	204e4a08 <xlat_tables_map_region>
    204e4b64:	eb00037f 	cmp	x27, x0
    204e4b68:	54fffb60 	b.eq	204e4ad4 <xlat_tables_map_region+0xcc>  // b.none
    204e4b6c:	a94153f3 	ldp	x19, x20, [sp, #16]
    204e4b70:	a9425bf5 	ldp	x21, x22, [sp, #32]
    204e4b74:	a94363f7 	ldp	x23, x24, [sp, #48]
    204e4b78:	a9446bf9 	ldp	x25, x26, [sp, #64]
    204e4b7c:	a94573fb 	ldp	x27, x28, [sp, #80]
    204e4b80:	a8c77bfd 	ldp	x29, x30, [sp], #112
    204e4b84:	d65f03c0 	ret
    204e4b88:	eb1b00bf 	cmp	x5, x27
    204e4b8c:	54000069 	b.ls	204e4b98 <xlat_tables_map_region+0x190>  // b.plast
    204e4b90:	eb0102ff 	cmp	x23, x1
    204e4b94:	54fffa08 	b.hi	204e4ad4 <xlat_tables_map_region+0xcc>  // b.pmore
    204e4b98:	34fffc84 	cbz	w4, 204e4b28 <xlat_tables_map_region+0x120>
    204e4b9c:	b9406fe5 	ldr	w5, [sp, #108]
    204e4ba0:	aa0003e2 	mov	x2, x0
    204e4ba4:	92748c63 	and	x3, x3, #0xfffffffff000
    204e4ba8:	aa1c03e1 	mov	x1, x28
    204e4bac:	aa1803e0 	mov	x0, x24
    204e4bb0:	52804004 	mov	w4, #0x200                 	// #512
    204e4bb4:	97ffff95 	bl	204e4a08 <xlat_tables_map_region>
    204e4bb8:	eb1b001f 	cmp	x0, x27
    204e4bbc:	17ffffeb 	b	204e4b68 <xlat_tables_map_region+0x160>
    204e4bc0:	b9401b81 	ldr	w1, [x28, #24]
    204e4bc4:	2a1a03e3 	mov	w3, w26
    204e4bc8:	aa1803e0 	mov	x0, x24
    204e4bcc:	97ffff54 	bl	204e491c <xlat_desc>
    204e4bd0:	f9000260 	str	x0, [x19]
    204e4bd4:	17ffffc0 	b	204e4ad4 <xlat_tables_map_region+0xcc>

00000000204e4bd8 <mmap_add_region_ctx>:
    204e4bd8:	a9bc7bfd 	stp	x29, x30, [sp, #-64]!
    204e4bdc:	910003fd 	mov	x29, sp
    204e4be0:	f9400824 	ldr	x4, [x1, #16]
    204e4be4:	a90153f3 	stp	x19, x20, [sp, #16]
    204e4be8:	b9401809 	ldr	w9, [x0, #24]
    204e4bec:	f9400802 	ldr	x2, [x0, #16]
    204e4bf0:	aa0003f3 	mov	x19, x0
    204e4bf4:	a9400025 	ldp	x5, x0, [x1]
    204e4bf8:	a9025bf5 	stp	x21, x22, [sp, #32]
    204e4bfc:	f9001bf7 	str	x23, [sp, #48]
    204e4c00:	b40008e4 	cbz	x4, 204e4d1c <mmap_add_region_ctx+0x144>
    204e4c04:	aa0400a3 	orr	x3, x5, x4
    204e4c08:	aa0103f6 	mov	x22, x1
    204e4c0c:	aa000063 	orr	x3, x3, x0
    204e4c10:	f9401021 	ldr	x1, [x1, #32]
    204e4c14:	f2402c7f 	tst	x3, #0xfff
    204e4c18:	54000d41 	b.ne	204e4dc0 <mmap_add_region_ctx+0x1e8>  // b.any
    204e4c1c:	f148003f 	cmp	x1, #0x200, lsl #12
    204e4c20:	d2a80003 	mov	x3, #0x40000000            	// #1073741824
    204e4c24:	fa431024 	ccmp	x1, x3, #0x4, ne	// ne = any
    204e4c28:	54000060 	b.eq	204e4c34 <mmap_add_region_ctx+0x5c>  // b.none
    204e4c2c:	f140043f 	cmp	x1, #0x1, lsl #12
    204e4c30:	54000c81 	b.ne	204e4dc0 <mmap_add_region_ctx+0x1e8>  // b.any
    204e4c34:	8b0400b5 	add	x21, x5, x4
    204e4c38:	8b00008a 	add	x10, x4, x0
    204e4c3c:	d10006b5 	sub	x21, x21, #0x1
    204e4c40:	d1000554 	sub	x20, x10, #0x1
    204e4c44:	eb1500bf 	cmp	x5, x21
    204e4c48:	fa549002 	ccmp	x0, x20, #0x2, ls	// ls = plast
    204e4c4c:	54000ca8 	b.hi	204e4de0 <mmap_add_region_ctx+0x208>  // b.pmore
    204e4c50:	f9400661 	ldr	x1, [x19, #8]
    204e4c54:	eb01029f 	cmp	x20, x1
    204e4c58:	54000c48 	b.hi	204e4de0 <mmap_add_region_ctx+0x208>  // b.pmore
    204e4c5c:	f9400261 	ldr	x1, [x19]
    204e4c60:	eb0102bf 	cmp	x21, x1
    204e4c64:	54000be8 	b.hi	204e4de0 <mmap_add_region_ctx+0x208>  // b.pmore
    204e4c68:	52800501 	mov	w1, #0x28                  	// #40
    204e4c6c:	9b210929 	smaddl	x9, w9, w1, x2
    204e4c70:	f85e8121 	ldur	x1, [x9, #-24]
    204e4c74:	b5000ba1 	cbnz	x1, 204e4de8 <mmap_add_region_ctx+0x210>
    204e4c78:	aa0203e6 	mov	x6, x2
    204e4c7c:	cb05000b 	sub	x11, x0, x5
    204e4c80:	f94008c3 	ldr	x3, [x6, #16]
    204e4c84:	b5000563 	cbnz	x3, 204e4d30 <mmap_add_region_ctx+0x158>
    204e4c88:	aa0203e1 	mov	x1, x2
    204e4c8c:	a9409423 	ldp	x3, x5, [x1, #8]
    204e4c90:	aa0103e0 	mov	x0, x1
    204e4c94:	9100a021 	add	x1, x1, #0x28
    204e4c98:	8b0300a3 	add	x3, x5, x3
    204e4c9c:	d1000463 	sub	x3, x3, #0x1
    204e4ca0:	eb14007f 	cmp	x3, x20
    204e4ca4:	54000042 	b.cs	204e4cac <mmap_add_region_ctx+0xd4>  // b.hs, b.nlast
    204e4ca8:	b5ffff25 	cbnz	x5, 204e4c8c <mmap_add_region_ctx+0xb4>
    204e4cac:	a9408403 	ldp	x3, x1, [x0, #8]
    204e4cb0:	aa0003f7 	mov	x23, x0
    204e4cb4:	9100a000 	add	x0, x0, #0x28
    204e4cb8:	8b030023 	add	x3, x1, x3
    204e4cbc:	eb03015f 	cmp	x10, x3
    204e4cc0:	54000081 	b.ne	204e4cd0 <mmap_add_region_ctx+0xf8>  // b.any
    204e4cc4:	b4000061 	cbz	x1, 204e4cd0 <mmap_add_region_ctx+0xf8>
    204e4cc8:	eb01009f 	cmp	x4, x1
    204e4ccc:	54ffff08 	b.hi	204e4cac <mmap_add_region_ctx+0xd4>  // b.pmore
    204e4cd0:	f9400841 	ldr	x1, [x2, #16]
    204e4cd4:	b4000061 	cbz	x1, 204e4ce0 <mmap_add_region_ctx+0x108>
    204e4cd8:	eb09005f 	cmp	x2, x9
    204e4cdc:	540008a3 	b.cc	204e4df0 <mmap_add_region_ctx+0x218>  // b.lo, b.ul, b.last
    204e4ce0:	cb170042 	sub	x2, x2, x23
    204e4ce4:	aa1703e1 	mov	x1, x23
    204e4ce8:	9400111f 	bl	204e9164 <memmove>
    204e4cec:	aa1603e1 	mov	x1, x22
    204e4cf0:	aa1703e0 	mov	x0, x23
    204e4cf4:	d2800502 	mov	x2, #0x28                  	// #40
    204e4cf8:	94001113 	bl	204e9144 <memcpy>
    204e4cfc:	f9402260 	ldr	x0, [x19, #64]
    204e4d00:	eb15001f 	cmp	x0, x21
    204e4d04:	54000042 	b.cs	204e4d0c <mmap_add_region_ctx+0x134>  // b.hs, b.nlast
    204e4d08:	f9002275 	str	x21, [x19, #64]
    204e4d0c:	f9402660 	ldr	x0, [x19, #72]
    204e4d10:	eb14001f 	cmp	x0, x20
    204e4d14:	54000042 	b.cs	204e4d1c <mmap_add_region_ctx+0x144>  // b.hs, b.nlast
    204e4d18:	f9002674 	str	x20, [x19, #72]
    204e4d1c:	a94153f3 	ldp	x19, x20, [sp, #16]
    204e4d20:	a9425bf5 	ldp	x21, x22, [sp, #32]
    204e4d24:	f9401bf7 	ldr	x23, [sp, #48]
    204e4d28:	a8c47bfd 	ldp	x29, x30, [sp], #64
    204e4d2c:	d65f03c0 	ret
    204e4d30:	a94004c8 	ldp	x8, x1, [x6]
    204e4d34:	8b030027 	add	x7, x1, x3
    204e4d38:	d10004e7 	sub	x7, x7, #0x1
    204e4d3c:	eb01001f 	cmp	x0, x1
    204e4d40:	540001c3 	b.cc	204e4d78 <mmap_add_region_ctx+0x1a0>  // b.lo, b.ul, b.last
    204e4d44:	eb07029f 	cmp	x20, x7
    204e4d48:	54000069 	b.ls	204e4d54 <mmap_add_region_ctx+0x17c>  // b.plast
    204e4d4c:	eb01001f 	cmp	x0, x1
    204e4d50:	54000181 	b.ne	204e4d80 <mmap_add_region_ctx+0x1a8>  // b.any
    204e4d54:	cb080028 	sub	x8, x1, x8
    204e4d58:	eb0b011f 	cmp	x8, x11
    204e4d5c:	540000a1 	b.ne	204e4d70 <mmap_add_region_ctx+0x198>  // b.any
    204e4d60:	eb01001f 	cmp	x0, x1
    204e4d64:	54000261 	b.ne	204e4db0 <mmap_add_region_ctx+0x1d8>  // b.any
    204e4d68:	eb03009f 	cmp	x4, x3
    204e4d6c:	54000221 	b.ne	204e4db0 <mmap_add_region_ctx+0x1d8>  // b.any
    204e4d70:	12800001 	mov	w1, #0xffffffff            	// #-1
    204e4d74:	14000014 	b	204e4dc4 <mmap_add_region_ctx+0x1ec>
    204e4d78:	eb07029f 	cmp	x20, x7
    204e4d7c:	54fffec2 	b.cs	204e4d54 <mmap_add_region_ctx+0x17c>  // b.hs, b.nlast
    204e4d80:	eb0802bf 	cmp	x21, x8
    204e4d84:	540003a3 	b.cc	204e4df8 <mmap_add_region_ctx+0x220>  // b.lo, b.ul, b.last
    204e4d88:	8b080063 	add	x3, x3, x8
    204e4d8c:	d1000463 	sub	x3, x3, #0x1
    204e4d90:	eb0300bf 	cmp	x5, x3
    204e4d94:	1a9f97e3 	cset	w3, hi	// hi = pmore
    204e4d98:	eb01029f 	cmp	x20, x1
    204e4d9c:	540000e3 	b.cc	204e4db8 <mmap_add_region_ctx+0x1e0>  // b.lo, b.ul, b.last
    204e4da0:	eb07001f 	cmp	x0, x7
    204e4da4:	1a9f97e1 	cset	w1, hi	// hi = pmore
    204e4da8:	6a01007f 	tst	w3, w1
    204e4dac:	54fffe20 	b.eq	204e4d70 <mmap_add_region_ctx+0x198>  // b.none
    204e4db0:	9100a0c6 	add	x6, x6, #0x28
    204e4db4:	17ffffb3 	b	204e4c80 <mmap_add_region_ctx+0xa8>
    204e4db8:	52800021 	mov	w1, #0x1                   	// #1
    204e4dbc:	17fffffb 	b	204e4da8 <mmap_add_region_ctx+0x1d0>
    204e4dc0:	128002a1 	mov	w1, #0xffffffea            	// #-22
    204e4dc4:	a94153f3 	ldp	x19, x20, [sp, #16]
    204e4dc8:	d0000020 	adrp	x0, 204ea000 <wakeupmix_irq_mask+0x2c>
    204e4dcc:	a9425bf5 	ldp	x21, x22, [sp, #32]
    204e4dd0:	91056000 	add	x0, x0, #0x158
    204e4dd4:	f9401bf7 	ldr	x23, [sp, #48]
    204e4dd8:	a8c47bfd 	ldp	x29, x30, [sp], #64
    204e4ddc:	17ffef56 	b	204e0b34 <tf_log>
    204e4de0:	12800421 	mov	w1, #0xffffffde            	// #-34
    204e4de4:	17fffff8 	b	204e4dc4 <mmap_add_region_ctx+0x1ec>
    204e4de8:	12800161 	mov	w1, #0xfffffff4            	// #-12
    204e4dec:	17fffff6 	b	204e4dc4 <mmap_add_region_ctx+0x1ec>
    204e4df0:	9100a042 	add	x2, x2, #0x28
    204e4df4:	17ffffb7 	b	204e4cd0 <mmap_add_region_ctx+0xf8>
    204e4df8:	eb01029f 	cmp	x20, x1
    204e4dfc:	54fffda3 	b.cc	204e4db0 <mmap_add_region_ctx+0x1d8>  // b.lo, b.ul, b.last
    204e4e00:	52800023 	mov	w3, #0x1                   	// #1
    204e4e04:	17ffffe7 	b	204e4da0 <mmap_add_region_ctx+0x1c8>

00000000204e4e08 <mmap_add_ctx>:
    204e4e08:	a9be7bfd 	stp	x29, x30, [sp, #-32]!
    204e4e0c:	910003fd 	mov	x29, sp
    204e4e10:	a90153f3 	stp	x19, x20, [sp, #16]
    204e4e14:	aa0003f4 	mov	x20, x0
    204e4e18:	aa0103f3 	mov	x19, x1
    204e4e1c:	f9401260 	ldr	x0, [x19, #32]
    204e4e20:	b5000080 	cbnz	x0, 204e4e30 <mmap_add_ctx+0x28>
    204e4e24:	a94153f3 	ldp	x19, x20, [sp, #16]
    204e4e28:	a8c27bfd 	ldp	x29, x30, [sp], #32
    204e4e2c:	d65f03c0 	ret
    204e4e30:	aa1303e1 	mov	x1, x19
    204e4e34:	aa1403e0 	mov	x0, x20
    204e4e38:	9100a273 	add	x19, x19, #0x28
    204e4e3c:	97ffff67 	bl	204e4bd8 <mmap_add_region_ctx>
    204e4e40:	17fffff7 	b	204e4e1c <mmap_add_ctx+0x14>

00000000204e4e44 <init_xlat_tables_ctx>:
    204e4e44:	a9bd7bfd 	stp	x29, x30, [sp, #-48]!
    204e4e48:	910003fd 	mov	x29, sp
    204e4e4c:	a90153f3 	stp	x19, x20, [sp, #16]
    204e4e50:	aa0003f3 	mov	x19, x0
    204e4e54:	f9400814 	ldr	x20, [x0, #16]
    204e4e58:	f90013f5 	str	x21, [sp, #32]
    204e4e5c:	d2800015 	mov	x21, #0x0                   	// #0
    204e4e60:	aa1403e0 	mov	x0, x20
    204e4e64:	9400002c 	bl	204e4f14 <xlat_mmap_print>
    204e4e68:	f9401a60 	ldr	x0, [x19, #48]
    204e4e6c:	b9403a61 	ldr	w1, [x19, #56]
    204e4e70:	d37df021 	lsl	x1, x1, #3
    204e4e74:	94000f0c 	bl	204e8aa4 <zeromem>
    204e4e78:	b9402a60 	ldr	w0, [x19, #40]
    204e4e7c:	6b15001f 	cmp	w0, w21
    204e4e80:	5400014c 	b.gt	204e4ea8 <init_xlat_tables_ctx+0x64>
    204e4e84:	f9400a80 	ldr	x0, [x20, #16]
    204e4e88:	b50001c0 	cbnz	x0, 204e4ec0 <init_xlat_tables_ctx+0x7c>
    204e4e8c:	52800020 	mov	w0, #0x1                   	// #1
    204e4e90:	39015260 	strb	w0, [x19, #84]
    204e4e94:	f94013f5 	ldr	x21, [sp, #32]
    204e4e98:	aa1303e0 	mov	x0, x19
    204e4e9c:	a94153f3 	ldp	x19, x20, [sp, #16]
    204e4ea0:	a8c37bfd 	ldp	x29, x30, [sp], #48
    204e4ea4:	1400001d 	b	204e4f18 <xlat_tables_print>
    204e4ea8:	f9401260 	ldr	x0, [x19, #32]
    204e4eac:	d2820001 	mov	x1, #0x1000                	// #4096
    204e4eb0:	8b153000 	add	x0, x0, x21, lsl #12
    204e4eb4:	910006b5 	add	x21, x21, #0x1
    204e4eb8:	94000efb 	bl	204e8aa4 <zeromem>
    204e4ebc:	17ffffef 	b	204e4e78 <init_xlat_tables_ctx+0x34>
    204e4ec0:	f9401a63 	ldr	x3, [x19, #48]
    204e4ec4:	aa1403e1 	mov	x1, x20
    204e4ec8:	b9403a64 	ldr	w4, [x19, #56]
    204e4ecc:	d2800002 	mov	x2, #0x0                   	// #0
    204e4ed0:	b9405265 	ldr	w5, [x19, #80]
    204e4ed4:	aa1303e0 	mov	x0, x19
    204e4ed8:	97fffecc 	bl	204e4a08 <xlat_tables_map_region>
    204e4edc:	a9408e81 	ldp	x1, x3, [x20, #8]
    204e4ee0:	8b030022 	add	x2, x1, x3
    204e4ee4:	d1000442 	sub	x2, x2, #0x1
    204e4ee8:	eb00005f 	cmp	x2, x0
    204e4eec:	54000100 	b.eq	204e4f0c <init_xlat_tables_ctx+0xc8>  // b.none
    204e4ef0:	f9400282 	ldr	x2, [x20]
    204e4ef4:	d0000020 	adrp	x0, 204ea000 <wakeupmix_irq_mask+0x2c>
    204e4ef8:	b9401a84 	ldr	w4, [x20, #24]
    204e4efc:	91060c00 	add	x0, x0, #0x183
    204e4f00:	97ffef0d 	bl	204e0b34 <tf_log>
    204e4f04:	97fff3b2 	bl	204e1dcc <console_flush>
    204e4f08:	94000e6d 	bl	204e88bc <el3_panic>
    204e4f0c:	9100a294 	add	x20, x20, #0x28
    204e4f10:	17ffffdd 	b	204e4e84 <init_xlat_tables_ctx+0x40>

00000000204e4f14 <xlat_mmap_print>:
    204e4f14:	d65f03c0 	ret

00000000204e4f18 <xlat_tables_print>:
    204e4f18:	d65f03c0 	ret

00000000204e4f1c <bl31_plat_runtime_setup>:
    204e4f1c:	d65f03c0 	ret

00000000204e4f20 <plat_get_soc_version>:
    204e4f20:	12800000 	mov	w0, #0xffffffff            	// #-1
    204e4f24:	d65f03c0 	ret

00000000204e4f28 <plat_get_soc_revision>:
    204e4f28:	12800000 	mov	w0, #0xffffffff            	// #-1
    204e4f2c:	d65f03c0 	ret

00000000204e4f30 <plat_get_soc_name>:
    204e4f30:	12800000 	mov	w0, #0xffffffff            	// #-1
    204e4f34:	d65f03c0 	ret

00000000204e4f38 <plat_is_smccc_feature_available>:
    204e4f38:	12800000 	mov	w0, #0xffffffff            	// #-1
    204e4f3c:	d65f03c0 	ret

00000000204e4f40 <setup_page_tables>:
    204e4f40:	a9be7bfd 	stp	x29, x30, [sp, #-32]!
    204e4f44:	910003fd 	mov	x29, sp
    204e4f48:	f9000bf3 	str	x19, [sp, #16]
    204e4f4c:	aa0103f3 	mov	x19, x1
    204e4f50:	97fffe4e 	bl	204e4888 <mmap_add>
    204e4f54:	aa1303e0 	mov	x0, x19
    204e4f58:	97fffe4c 	bl	204e4888 <mmap_add>
    204e4f5c:	f9400bf3 	ldr	x19, [sp, #16]
    204e4f60:	a8c27bfd 	ldp	x29, x30, [sp], #32
    204e4f64:	17fffe4d 	b	204e4898 <init_xlat_tables>

00000000204e4f68 <plat_ic_get_pending_interrupt_type>:
    204e4f68:	a9bf7bfd 	stp	x29, x30, [sp, #-16]!
    204e4f6c:	910003fd 	mov	x29, sp
    204e4f70:	97fff1a6 	bl	204e1608 <gicv3_get_pending_interrupt_type>
    204e4f74:	510ff000 	sub	w0, w0, #0x3fc
    204e4f78:	71000c1f 	cmp	w0, #0x3
    204e4f7c:	540000c8 	b.hi	204e4f94 <plat_ic_get_pending_interrupt_type+0x2c>  // b.pmore
    204e4f80:	d0000021 	adrp	x1, 204ea000 <wakeupmix_irq_mask+0x2c>
    204e4f84:	910d6421 	add	x1, x1, #0x359
    204e4f88:	38604820 	ldrb	w0, [x1, w0, uxtw]
    204e4f8c:	a8c17bfd 	ldp	x29, x30, [sp], #16
    204e4f90:	d65f03c0 	ret
    204e4f94:	52800020 	mov	w0, #0x1                   	// #1
    204e4f98:	17fffffd 	b	204e4f8c <plat_ic_get_pending_interrupt_type+0x24>

00000000204e4f9c <plat_ic_acknowledge_interrupt>:
    204e4f9c:	d538c800 	mrs	x0, icc_iar0_el1
    204e4fa0:	12005c00 	and	w0, w0, #0xffffff
    204e4fa4:	d65f03c0 	ret

00000000204e4fa8 <plat_ic_end_of_interrupt>:
    204e4fa8:	d5033a9f 	dsb	ishst
    204e4fac:	2a0003e0 	mov	w0, w0
    204e4fb0:	d518c820 	msr	icc_eoir0_el1, x0
    204e4fb4:	d65f03c0 	ret

00000000204e4fb8 <plat_interrupt_type_to_line>:
    204e4fb8:	7100041f 	cmp	w0, #0x1
    204e4fbc:	540001e0 	b.eq	204e4ff8 <plat_interrupt_type_to_line+0x40>  // b.none
    204e4fc0:	7100081f 	cmp	w0, #0x2
    204e4fc4:	540000c0 	b.eq	204e4fdc <plat_interrupt_type_to_line+0x24>  // b.none
    204e4fc8:	35000100 	cbnz	w0, 204e4fe8 <plat_interrupt_type_to_line+0x30>
    204e4fcc:	7100003f 	cmp	w1, #0x0
    204e4fd0:	1a9f07e0 	cset	w0, ne	// ne = any
    204e4fd4:	11000400 	add	w0, w0, #0x1
    204e4fd8:	d65f03c0 	ret
    204e4fdc:	7100003f 	cmp	w1, #0x0
    204e4fe0:	1a9f17e0 	cset	w0, eq	// eq = none
    204e4fe4:	17fffffc 	b	204e4fd4 <plat_interrupt_type_to_line+0x1c>
    204e4fe8:	a9bf7bfd 	stp	x29, x30, [sp, #-16]!
    204e4fec:	910003fd 	mov	x29, sp
    204e4ff0:	97fff377 	bl	204e1dcc <console_flush>
    204e4ff4:	94000e32 	bl	204e88bc <el3_panic>
    204e4ff8:	52800040 	mov	w0, #0x2                   	// #2
    204e4ffc:	d65f03c0 	ret

00000000204e5000 <plat_ic_has_interrupt_type>:
    204e5000:	7100081f 	cmp	w0, #0x2
    204e5004:	1a9f87e0 	cset	w0, ls	// ls = plast
    204e5008:	d65f03c0 	ret

00000000204e500c <plat_ic_raise_el3_sgi>:
    204e500c:	aa0103e2 	mov	x2, x1
    204e5010:	52800041 	mov	w1, #0x2                   	// #2
    204e5014:	17fff2ff 	b	204e1c10 <gicv3_raise_sgi>

00000000204e5018 <plat_log_get_prefix>:
    204e5018:	7100c81f 	cmp	w0, #0x32
    204e501c:	52800641 	mov	w1, #0x32                  	// #50
    204e5020:	1a819000 	csel	w0, w0, w1, ls	// ls = plast
    204e5024:	52800141 	mov	w1, #0xa                   	// #10
    204e5028:	6b01001f 	cmp	w0, w1
    204e502c:	1a812000 	csel	w0, w0, w1, cs	// cs = hs, nlast
    204e5030:	1ac10800 	udiv	w0, w0, w1
    204e5034:	90000021 	adrp	x1, 204e9000 <flush_continue>
    204e5038:	91202021 	add	x1, x1, #0x808
    204e503c:	51000400 	sub	w0, w0, #0x1
    204e5040:	f8607820 	ldr	x0, [x1, x0, lsl #3]
    204e5044:	d65f03c0 	ret

00000000204e5048 <plat_get_target_pwr_state>:
    204e5048:	d2800003 	mov	x3, #0x0                   	// #0
    204e504c:	52800084 	mov	w4, #0x4                   	// #4
    204e5050:	38636820 	ldrb	w0, [x1, x3]
    204e5054:	91000463 	add	x3, x3, #0x1
    204e5058:	6b04001f 	cmp	w0, w4
    204e505c:	1a849000 	csel	w0, w0, w4, ls	// ls = plast
    204e5060:	12001c04 	and	w4, w0, #0xff
    204e5064:	6b03005f 	cmp	w2, w3
    204e5068:	54ffff41 	b.ne	204e5050 <plat_get_target_pwr_state+0x8>  // b.any
    204e506c:	d65f03c0 	ret

00000000204e5070 <imx_bl31_params_parse>:
    204e5070:	f240041f 	tst	x0, #0x3
    204e5074:	54000281 	b.ne	204e50c4 <imx_bl31_params_parse+0x54>  // b.any
    204e5078:	eb01001f 	cmp	x0, x1
    204e507c:	54000243 	b.cc	204e50c4 <imx_bl31_params_parse+0x54>  // b.lo, b.ul, b.last
    204e5080:	8b020026 	add	x6, x1, x2
    204e5084:	eb0000df 	cmp	x6, x0
    204e5088:	540001e9 	b.ls	204e50c4 <imx_bl31_params_parse+0x54>  // b.plast
    204e508c:	aa0303e1 	mov	x1, x3
    204e5090:	39400403 	ldrb	w3, [x0, #1]
    204e5094:	7100087f 	cmp	w3, #0x2
    204e5098:	54000161 	b.ne	204e50c4 <imx_bl31_params_parse+0x54>  // b.any
    204e509c:	39400003 	ldrb	w3, [x0]
    204e50a0:	7100147f 	cmp	w3, #0x5
    204e50a4:	54000101 	b.ne	204e50c4 <imx_bl31_params_parse+0x54>  // b.any
    204e50a8:	a9bf7bfd 	stp	x29, x30, [sp, #-16]!
    204e50ac:	aa0403e2 	mov	x2, x4
    204e50b0:	910003fd 	mov	x29, sp
    204e50b4:	97ffee28 	bl	204e0954 <bl31_params_parse_helper>
    204e50b8:	52800000 	mov	w0, #0x0                   	// #0
    204e50bc:	a8c17bfd 	ldp	x29, x30, [sp], #16
    204e50c0:	d65f03c0 	ret
    204e50c4:	128002a0 	mov	w0, #0xffffffea            	// #-22
    204e50c8:	d65f03c0 	ret

00000000204e50cc <imx_buildinfo_handler>:
    204e50cc:	f100003f 	cmp	x1, #0x0
    204e50d0:	da9f03e0 	csetm	x0, ne	// ne = any
    204e50d4:	d65f03c0 	ret

00000000204e50d8 <imx_kernel_entry_handler>:
    204e50d8:	b2407be0 	mov	x0, #0x7fffffff            	// #2147483647
    204e50dc:	eb00003f 	cmp	x1, x0
    204e50e0:	540002a9 	b.ls	204e5134 <imx_kernel_entry_handler+0x5c>  // b.plast
    204e50e4:	a9bf7bfd 	stp	x29, x30, [sp, #-16]!
    204e50e8:	90000040 	adrp	x0, 204ed000 <__STACKS_START__+0x1280>
    204e50ec:	911f8000 	add	x0, x0, #0x7e0
    204e50f0:	910003fd 	mov	x29, sp
    204e50f4:	12800422 	mov	w2, #0xffffffde            	// #-34
    204e50f8:	f9000401 	str	x1, [x0, #8]
    204e50fc:	52803a61 	mov	w1, #0x1d3                 	// #467
    204e5100:	b9001001 	str	w1, [x0, #16]
    204e5104:	b9400401 	ldr	w1, [x0, #4]
    204e5108:	a901fc1f 	stp	xzr, xzr, [x0, #24]
    204e510c:	0a020021 	and	w1, w1, w2
    204e5110:	32000021 	orr	w1, w1, #0x1
    204e5114:	b9000401 	str	w1, [x0, #4]
    204e5118:	f9001403 	str	x3, [x0, #40]
    204e511c:	97fff664 	bl	204e2aac <cm_init_my_context>
    204e5120:	d2800020 	mov	x0, #0x1                   	// #1
    204e5124:	97fff6e5 	bl	204e2cb8 <cm_prepare_el3_exit>
    204e5128:	52800000 	mov	w0, #0x0                   	// #0
    204e512c:	a8c17bfd 	ldp	x29, x30, [sp], #16
    204e5130:	d65f03c0 	ret
    204e5134:	12800000 	mov	w0, #0xffffffff            	// #-1
    204e5138:	d65f03c0 	ret

00000000204e513c <imx_bbsm_handler>:
    204e513c:	a9bd7bfd 	stp	x29, x30, [sp, #-48]!
    204e5140:	910003fd 	mov	x29, sp
    204e5144:	f9000bf3 	str	x19, [sp, #16]
    204e5148:	aa0203f3 	mov	x19, x2
    204e514c:	b9002fff 	str	wzr, [sp, #44]
    204e5150:	f100043f 	cmp	x1, #0x1
    204e5154:	54000120 	b.eq	204e5178 <imx_bbsm_handler+0x3c>  // b.none
    204e5158:	f100083f 	cmp	x1, #0x2
    204e515c:	54000200 	b.eq	204e519c <imx_bbsm_handler+0x60>  // b.none
    204e5160:	92800000 	mov	x0, #0xffffffffffffffff    	// #-1
    204e5164:	f9000260 	str	x0, [x19]
    204e5168:	2a1303e0 	mov	w0, w19
    204e516c:	f9400bf3 	ldr	x19, [sp, #16]
    204e5170:	a8c37bfd 	ldp	x29, x30, [sp], #48
    204e5174:	d65f03c0 	ret
    204e5178:	d2800005 	mov	x5, #0x0                   	// #0
    204e517c:	d2800004 	mov	x4, #0x0                   	// #0
    204e5180:	52800003 	mov	w3, #0x0                   	// #0
    204e5184:	52800002 	mov	w2, #0x0                   	// #0
    204e5188:	52800001 	mov	w1, #0x0                   	// #0
    204e518c:	12800020 	mov	w0, #0xfffffffe            	// #-2
    204e5190:	940000af 	bl	204e544c <ele_program_bbsm>
    204e5194:	93407c00 	sxtw	x0, w0
    204e5198:	17fffff3 	b	204e5164 <imx_bbsm_handler+0x28>
    204e519c:	52800001 	mov	w1, #0x0                   	// #0
    204e51a0:	9100b3e5 	add	x5, sp, #0x2c
    204e51a4:	d2800004 	mov	x4, #0x0                   	// #0
    204e51a8:	52800003 	mov	w3, #0x0                   	// #0
    204e51ac:	52800302 	mov	w2, #0x18                  	// #24
    204e51b0:	52800d40 	mov	w0, #0x6a                  	// #106
    204e51b4:	940000a6 	bl	204e544c <ele_program_bbsm>
    204e51b8:	b9402fe1 	ldr	w1, [sp, #44]
    204e51bc:	7100003f 	cmp	w1, #0x0
    204e51c0:	9a9f07e1 	cset	x1, ne	// ne = any
    204e51c4:	f9000661 	str	x1, [x19, #8]
    204e51c8:	17fffff3 	b	204e5194 <imx_bbsm_handler+0x58>

00000000204e51cc <imx_sip_setup>:
    204e51cc:	52800000 	mov	w0, #0x0                   	// #0
    204e51d0:	d65f03c0 	ret

00000000204e51d4 <imx_sip_handler>:
    204e51d4:	a9be7bfd 	stp	x29, x30, [sp, #-32]!
    204e51d8:	528000c5 	mov	w5, #0x6                   	// #6
    204e51dc:	72b84005 	movk	w5, #0xc200, lsl #16
    204e51e0:	910003fd 	mov	x29, sp
    204e51e4:	f9000bf3 	str	x19, [sp, #16]
    204e51e8:	aa0603f3 	mov	x19, x6
    204e51ec:	6b05001f 	cmp	w0, w5
    204e51f0:	54000320 	b.eq	204e5254 <imx_sip_handler+0x80>  // b.none
    204e51f4:	54000188 	b.hi	204e5224 <imx_sip_handler+0x50>  // b.pmore
    204e51f8:	510008a5 	sub	w5, w5, #0x2
    204e51fc:	6b05001f 	cmp	w0, w5
    204e5200:	54000380 	b.eq	204e5270 <imx_sip_handler+0x9c>  // b.none
    204e5204:	110004a6 	add	w6, w5, #0x1
    204e5208:	6b06001f 	cmp	w0, w6
    204e520c:	54000440 	b.eq	204e5294 <imx_sip_handler+0xc0>  // b.none
    204e5210:	510004a5 	sub	w5, w5, #0x1
    204e5214:	6b05001f 	cmp	w0, w5
    204e5218:	54000180 	b.eq	204e5248 <imx_sip_handler+0x74>  // b.none
    204e521c:	92800000 	mov	x0, #0xffffffffffffffff    	// #-1
    204e5220:	1400000b 	b	204e524c <imx_sip_handler+0x78>
    204e5224:	11001ca5 	add	w5, w5, #0x7
    204e5228:	6b05001f 	cmp	w0, w5
    204e522c:	540002e0 	b.eq	204e5288 <imx_sip_handler+0xb4>  // b.none
    204e5230:	1103c0a5 	add	w5, w5, #0xf0
    204e5234:	6b05001f 	cmp	w0, w5
    204e5238:	54ffff21 	b.ne	204e521c <imx_sip_handler+0x48>  // b.any
    204e523c:	97ffffa7 	bl	204e50d8 <imx_kernel_entry_handler>
    204e5240:	93407c00 	sxtw	x0, w0
    204e5244:	14000002 	b	204e524c <imx_sip_handler+0x78>
    204e5248:	97ffffa1 	bl	204e50cc <imx_buildinfo_handler>
    204e524c:	f9000260 	str	x0, [x19]
    204e5250:	14000004 	b	204e5260 <imx_sip_handler+0x8c>
    204e5254:	aa0603e1 	mov	x1, x6
    204e5258:	94000050 	bl	204e5398 <imx9_soc_info_handler>
    204e525c:	93407c13 	sxtw	x19, w0
    204e5260:	aa1303e0 	mov	x0, x19
    204e5264:	f9400bf3 	ldr	x19, [sp, #16]
    204e5268:	a8c27bfd 	ldp	x29, x30, [sp], #32
    204e526c:	d65f03c0 	ret
    204e5270:	aa0303e4 	mov	x4, x3
    204e5274:	aa0203e3 	mov	x3, x2
    204e5278:	aa0103e2 	mov	x2, x1
    204e527c:	aa0603e1 	mov	x1, x6
    204e5280:	940003fe 	bl	204e6278 <dram_dvfs_handler>
    204e5284:	17fffff6 	b	204e525c <imx_sip_handler+0x88>
    204e5288:	aa0603e2 	mov	x2, x6
    204e528c:	97ffffac 	bl	204e513c <imx_bbsm_handler>
    204e5290:	17fffff3 	b	204e525c <imx_sip_handler+0x88>
    204e5294:	aa1303e4 	mov	x4, x19
    204e5298:	94000b0e 	bl	204e7ed0 <imx_src_handler>
    204e529c:	17ffffe9 	b	204e5240 <imx_sip_handler+0x6c>

00000000204e52a0 <plat_imx_mpidr_to_core_pos>:
    204e52a0:	14000a83 	b	204e7cac <plat_core_pos_by_mpidr>

00000000204e52a4 <plat_gic_driver_init>:
    204e52a4:	90000020 	adrp	x0, 204e9000 <flush_continue>
    204e52a8:	9120c000 	add	x0, x0, #0x830
    204e52ac:	17fff047 	b	204e13c8 <gicv3_driver_init>

00000000204e52b0 <plat_gic_init>:
    204e52b0:	d2800281 	mov	x1, #0x14                  	// #20
    204e52b4:	a9bf7bfd 	stp	x29, x30, [sp, #-16]!
    204e52b8:	f2a90081 	movk	x1, #0x4804, lsl #16
    204e52bc:	910003fd 	mov	x29, sp
    204e52c0:	b9400020 	ldr	w0, [x1]
    204e52c4:	36f800a0 	tbz	w0, #31, 204e52d8 <plat_gic_init+0x28>
    204e52c8:	121f7800 	and	w0, w0, #0xfffffffe
    204e52cc:	b9000020 	str	w0, [x1]
    204e52d0:	b9400020 	ldr	w0, [x1]
    204e52d4:	37ffffe0 	tbnz	w0, #31, 204e52d0 <plat_gic_init+0x20>
    204e52d8:	97fff04f 	bl	204e1414 <gicv3_distif_init>
    204e52dc:	94000f82 	bl	204e90e4 <plat_my_core_pos>
    204e52e0:	97fff06a 	bl	204e1488 <gicv3_rdistif_init>
    204e52e4:	94000f80 	bl	204e90e4 <plat_my_core_pos>
    204e52e8:	a8c17bfd 	ldp	x29, x30, [sp], #16
    204e52ec:	17fff08b 	b	204e1518 <gicv3_cpuif_enable>

00000000204e52f0 <plat_gic_cpuif_enable>:
    204e52f0:	a9bf7bfd 	stp	x29, x30, [sp, #-16]!
    204e52f4:	910003fd 	mov	x29, sp
    204e52f8:	94000f7b 	bl	204e90e4 <plat_my_core_pos>
    204e52fc:	a8c17bfd 	ldp	x29, x30, [sp], #16
    204e5300:	17fff086 	b	204e1518 <gicv3_cpuif_enable>

00000000204e5304 <plat_gic_cpuif_disable>:
    204e5304:	a9bf7bfd 	stp	x29, x30, [sp, #-16]!
    204e5308:	910003fd 	mov	x29, sp
    204e530c:	94000f76 	bl	204e90e4 <plat_my_core_pos>
    204e5310:	a8c17bfd 	ldp	x29, x30, [sp], #16
    204e5314:	17fff0a5 	b	204e15a8 <gicv3_cpuif_disable>

00000000204e5318 <plat_gic_pcpu_init>:
    204e5318:	a9bf7bfd 	stp	x29, x30, [sp, #-16]!
    204e531c:	910003fd 	mov	x29, sp
    204e5320:	94000f71 	bl	204e90e4 <plat_my_core_pos>
    204e5324:	a8c17bfd 	ldp	x29, x30, [sp], #16
    204e5328:	17fff058 	b	204e1488 <gicv3_rdistif_init>

00000000204e532c <plat_gic_save>:
    204e532c:	a9be7bfd 	stp	x29, x30, [sp, #-32]!
    204e5330:	52800000 	mov	w0, #0x0                   	// #0
    204e5334:	910003fd 	mov	x29, sp
    204e5338:	f9000bf3 	str	x19, [sp, #16]
    204e533c:	aa0103f3 	mov	x19, x1
    204e5340:	97fff0b5 	bl	204e1614 <gicv3_rdistif_save>
    204e5344:	91016261 	add	x1, x19, #0x58
    204e5348:	52800020 	mov	w0, #0x1                   	// #1
    204e534c:	97fff0b2 	bl	204e1614 <gicv3_rdistif_save>
    204e5350:	9102c260 	add	x0, x19, #0xb0
    204e5354:	f9400bf3 	ldr	x19, [sp, #16]
    204e5358:	a8c27bfd 	ldp	x29, x30, [sp], #32
    204e535c:	17fff12c 	b	204e180c <gicv3_distif_save>

00000000204e5360 <plat_gic_restore>:
    204e5360:	a9be7bfd 	stp	x29, x30, [sp, #-32]!
    204e5364:	9102c020 	add	x0, x1, #0xb0
    204e5368:	910003fd 	mov	x29, sp
    204e536c:	f9000bf3 	str	x19, [sp, #16]
    204e5370:	aa0103f3 	mov	x19, x1
    204e5374:	97fff1a3 	bl	204e1a00 <gicv3_distif_init_restore>
    204e5378:	aa1303e1 	mov	x1, x19
    204e537c:	52800000 	mov	w0, #0x0                   	// #0
    204e5380:	97fff0dc 	bl	204e16f0 <gicv3_rdistif_init_restore>
    204e5384:	91016261 	add	x1, x19, #0x58
    204e5388:	52800020 	mov	w0, #0x1                   	// #1
    204e538c:	f9400bf3 	ldr	x19, [sp, #16]
    204e5390:	a8c27bfd 	ldp	x29, x30, [sp], #32
    204e5394:	17fff0d7 	b	204e16f0 <gicv3_rdistif_init_restore>

00000000204e5398 <imx9_soc_info_handler>:
    204e5398:	aa0103e0 	mov	x0, x1
    204e539c:	f0000041 	adrp	x1, 204f0000 <imx_gicv3_ctx+0x26d0>
    204e53a0:	9104c021 	add	x1, x1, #0x130
    204e53a4:	29428c22 	ldp	w2, w3, [x1, #20]
    204e53a8:	aa028062 	orr	x2, x3, x2, lsl #32
    204e53ac:	b9401023 	ldr	w3, [x1, #16]
    204e53b0:	f9000c02 	str	x2, [x0, #24]
    204e53b4:	b9400c22 	ldr	w2, [x1, #12]
    204e53b8:	b9400421 	ldr	w1, [x1, #4]
    204e53bc:	a900041f 	stp	xzr, x1, [x0]
    204e53c0:	aa028062 	orr	x2, x3, x2, lsl #32
    204e53c4:	f9000802 	str	x2, [x0, #16]
    204e53c8:	d65f03c0 	ret

00000000204e53cc <ele_get_soc_info>:
    204e53cc:	a9be7bfd 	stp	x29, x30, [sp, #-32]!
    204e53d0:	d2802001 	mov	x1, #0x100                 	// #256
    204e53d4:	910003fd 	mov	x29, sp
    204e53d8:	f9000bf3 	str	x19, [sp, #16]
    204e53dc:	f0000053 	adrp	x19, 204f0000 <imx_gicv3_ctx+0x26d0>
    204e53e0:	9104c273 	add	x19, x19, #0x130
    204e53e4:	aa1303e0 	mov	x0, x19
    204e53e8:	94000d41 	bl	204e88ec <flush_dcache_range>
    204e53ec:	d2804000 	mov	x0, #0x200                 	// #512
    204e53f0:	528080c2 	mov	w2, #0x406                 	// #1030
    204e53f4:	f2a8ea40 	movk	x0, #0x4752, lsl #16
    204e53f8:	aa0003e1 	mov	x1, x0
    204e53fc:	72a2fb42 	movk	w2, #0x17da, lsl #16
    204e5400:	b8004422 	str	w2, [x1], #4
    204e5404:	d360fe62 	lsr	x2, x19, #32
    204e5408:	b9000402 	str	w2, [x0, #4]
    204e540c:	52802000 	mov	w0, #0x100                 	// #256
    204e5410:	b9000433 	str	w19, [x1, #4]
    204e5414:	d1036021 	sub	x1, x1, #0xd8
    204e5418:	b900e020 	str	w0, [x1, #224]
    204e541c:	b9400020 	ldr	w0, [x1]
    204e5420:	12000400 	and	w0, w0, #0x3
    204e5424:	71000c1f 	cmp	w0, #0x3
    204e5428:	54ffffa1 	b.ne	204e541c <ele_get_soc_info+0x50>  // b.any
    204e542c:	b9415420 	ldr	w0, [x1, #340]
    204e5430:	d2805000 	mov	x0, #0x280                 	// #640
    204e5434:	f2a8ea40 	movk	x0, #0x4752, lsl #16
    204e5438:	b9400400 	ldr	w0, [x0, #4]
    204e543c:	d5033f9f 	dsb	sy
    204e5440:	f9400bf3 	ldr	x19, [sp, #16]
    204e5444:	a8c27bfd 	ldp	x29, x30, [sp], #32
    204e5448:	d65f03c0 	ret

00000000204e544c <ele_program_bbsm>:
    204e544c:	12001c00 	and	w0, w0, #0xff
    204e5450:	a9bd7bfd 	stp	x29, x30, [sp, #-48]!
    204e5454:	2a014000 	orr	w0, w0, w1, lsl #16
    204e5458:	d2804001 	mov	x1, #0x200                 	// #512
    204e545c:	910003fd 	mov	x29, sp
    204e5460:	f2a8ea81 	movk	x1, #0x4754, lsl #16
    204e5464:	aa0103e6 	mov	x6, x1
    204e5468:	a90153f3 	stp	x19, x20, [sp, #16]
    204e546c:	aa0403f4 	mov	x20, x4
    204e5470:	528080c4 	mov	w4, #0x406                 	// #1030
    204e5474:	a9025bf5 	stp	x21, x22, [sp, #32]
    204e5478:	72a2f764 	movk	w4, #0x17bb, lsl #16
    204e547c:	aa0503f3 	mov	x19, x5
    204e5480:	b80044c4 	str	w4, [x6], #4
    204e5484:	b9000420 	str	w0, [x1, #4]
    204e5488:	b90004c2 	str	w2, [x6, #4]
    204e548c:	d10360c6 	sub	x6, x6, #0xd8
    204e5490:	b900e0c3 	str	w3, [x6, #224]
    204e5494:	b94000c0 	ldr	w0, [x6]
    204e5498:	12000800 	and	w0, w0, #0x7
    204e549c:	71001c1f 	cmp	w0, #0x7
    204e54a0:	54ffffa1 	b.ne	204e5494 <ele_program_bbsm+0x48>  // b.any
    204e54a4:	d2805000 	mov	x0, #0x280                 	// #640
    204e54a8:	b94154c1 	ldr	w1, [x6, #340]
    204e54ac:	f2a8ea80 	movk	x0, #0x4754, lsl #16
    204e54b0:	b9400415 	ldr	w21, [x0, #4]
    204e54b4:	b9400816 	ldr	w22, [x0, #8]
    204e54b8:	52800000 	mov	w0, #0x0                   	// #0
    204e54bc:	71035abf 	cmp	w21, #0xd6
    204e54c0:	540000a0 	b.eq	204e54d4 <ele_program_bbsm+0x88>  // b.none
    204e54c4:	b0000020 	adrp	x0, 204ea000 <wakeupmix_irq_mask+0x2c>
    204e54c8:	91084000 	add	x0, x0, #0x210
    204e54cc:	97ffed9a 	bl	204e0b34 <tf_log>
    204e54d0:	12800000 	mov	w0, #0xffffffff            	// #-1
    204e54d4:	b4000054 	cbz	x20, 204e54dc <ele_program_bbsm+0x90>
    204e54d8:	b9000295 	str	w21, [x20]
    204e54dc:	b4000053 	cbz	x19, 204e54e4 <ele_program_bbsm+0x98>
    204e54e0:	b9000276 	str	w22, [x19]
    204e54e4:	a94153f3 	ldp	x19, x20, [sp, #16]
    204e54e8:	a9425bf5 	ldp	x21, x22, [sp, #32]
    204e54ec:	a8c37bfd 	ldp	x29, x30, [sp], #48
    204e54f0:	d65f03c0 	ret

00000000204e54f4 <ddr_pll_init>:
    204e54f4:	53027c01 	lsr	w1, w0, #2
    204e54f8:	52884800 	mov	w0, #0x4240                	// #16960
    204e54fc:	72a001e0 	movk	w0, #0xf, lsl #16
    204e5500:	90000022 	adrp	x2, 204e9000 <flush_continue>
    204e5504:	9130a042 	add	x2, x2, #0xc28
    204e5508:	d2800303 	mov	x3, #0x18                  	// #24
    204e550c:	1b007c21 	mul	w1, w1, w0
    204e5510:	d2800000 	mov	x0, #0x0                   	// #0
    204e5514:	9b037c04 	mul	x4, x0, x3
    204e5518:	b8646844 	ldr	w4, [x2, x4]
    204e551c:	6b01009f 	cmp	w4, w1
    204e5520:	540000c0 	b.eq	204e5538 <ddr_pll_init+0x44>  // b.none
    204e5524:	91000400 	add	x0, x0, #0x1
    204e5528:	f100381f 	cmp	x0, #0xe
    204e552c:	54ffff41 	b.ne	204e5514 <ddr_pll_init+0x20>  // b.any
    204e5530:	12800000 	mov	w0, #0xffffffff            	// #-1
    204e5534:	d65f03c0 	ret
    204e5538:	2a0003e0 	mov	w0, w0
    204e553c:	9b030800 	madd	x0, x0, x3, x2
    204e5540:	29408402 	ldp	w2, w1, [x0, #4]
    204e5544:	29420c04 	ldp	w4, w3, [x0, #16]
    204e5548:	53130842 	ubfiz	w2, w2, #13, #3
    204e554c:	53102021 	ubfiz	w1, w1, #16, #9
    204e5550:	2a020021 	orr	w1, w1, w2
    204e5554:	39403002 	ldrb	w2, [x0, #12]
    204e5558:	531e7484 	lsl	w4, w4, #2
    204e555c:	12007463 	and	w3, w3, #0x3fffffff
    204e5560:	2a020021 	orr	w1, w1, w2
    204e5564:	d2826c02 	mov	x2, #0x1360                	// #4960
    204e5568:	f2a88902 	movk	x2, #0x4448, lsl #16
    204e556c:	aa0203e5 	mov	x5, x2
    204e5570:	b85e04a0 	ldr	w0, [x5], #-32
    204e5574:	b85e0046 	ldur	w6, [x2, #-32]
    204e5578:	12006000 	and	w0, w0, #0x1ffffff
    204e557c:	12136800 	and	w0, w0, #0xffffe0ff
    204e5580:	121e74c6 	and	w6, w6, #0xfffffffc
    204e5584:	b94010a5 	ldr	w5, [x5, #16]
    204e5588:	6b01001f 	cmp	w0, w1
    204e558c:	7a4400c0 	ccmp	w6, w4, #0x0, eq	// eq = none
    204e5590:	54000081 	b.ne	204e55a0 <ddr_pll_init+0xac>  // b.any
    204e5594:	120074a0 	and	w0, w5, #0x3fffffff
    204e5598:	6b00007f 	cmp	w3, w0
    204e559c:	540003c0 	b.eq	204e5614 <ddr_pll_init+0x120>  // b.none
    204e55a0:	a9be7bfd 	stp	x29, x30, [sp, #-32]!
    204e55a4:	d2826100 	mov	x0, #0x1308                	// #4872
    204e55a8:	f2a88900 	movk	x0, #0x4448, lsl #16
    204e55ac:	910003fd 	mov	x29, sp
    204e55b0:	a90153f3 	stp	x19, x20, [sp, #16]
    204e55b4:	52800065 	mov	w5, #0x3                   	// #3
    204e55b8:	9103a013 	add	x19, x0, #0xe8
    204e55bc:	b9000005 	str	w5, [x0]
    204e55c0:	52800154 	mov	w20, #0xa                   	// #10
    204e55c4:	b9005801 	str	w1, [x0, #88]
    204e55c8:	52800021 	mov	w1, #0x1                   	// #1
    204e55cc:	b81e0044 	stur	w4, [x2, #-32]
    204e55d0:	b81f0043 	stur	w3, [x2, #-16]
    204e55d4:	b81a4041 	stur	w1, [x2, #-92]
    204e55d8:	b9400260 	ldr	w0, [x19]
    204e55dc:	36000120 	tbz	w0, #0, 204e5600 <ddr_pll_init+0x10c>
    204e55e0:	52800280 	mov	w0, #0x14                  	// #20
    204e55e4:	97fff20f 	bl	204e1e20 <udelay>
    204e55e8:	52800040 	mov	w0, #0x2                   	// #2
    204e55ec:	b8114260 	stur	w0, [x19, #-236]
    204e55f0:	a94153f3 	ldp	x19, x20, [sp, #16]
    204e55f4:	52800000 	mov	w0, #0x0                   	// #0
    204e55f8:	a8c27bfd 	ldp	x29, x30, [sp], #32
    204e55fc:	d65f03c0 	ret
    204e5600:	52800140 	mov	w0, #0xa                   	// #10
    204e5604:	97fff207 	bl	204e1e20 <udelay>
    204e5608:	71000694 	subs	w20, w20, #0x1
    204e560c:	54fffe61 	b.ne	204e55d8 <ddr_pll_init+0xe4>  // b.any
    204e5610:	17fffff8 	b	204e55f0 <ddr_pll_init+0xfc>
    204e5614:	52800000 	mov	w0, #0x0                   	// #0
    204e5618:	d65f03c0 	ret

00000000204e561c <ddr_pll_bypass>:
    204e561c:	7106401f 	cmp	w0, #0x190
    204e5620:	54000440 	b.eq	204e56a8 <ddr_pll_bypass+0x8c>  // b.none
    204e5624:	54000308 	b.hi	204e5684 <ddr_pll_bypass+0x68>  // b.pmore
    204e5628:	7101901f 	cmp	w0, #0x64
    204e562c:	54000580 	b.eq	204e56dc <ddr_pll_bypass+0xc0>  // b.none
    204e5630:	7103201f 	cmp	w0, #0xc8
    204e5634:	54000480 	b.eq	204e56c4 <ddr_pll_bypass+0xa8>  // b.none
    204e5638:	d284c401 	mov	x1, #0x2620                	// #9760
    204e563c:	f2a888a1 	movk	x1, #0x4445, lsl #16
    204e5640:	b9400020 	ldr	w0, [x1]
    204e5644:	37e7ffe0 	tbnz	w0, #28, 204e5640 <ddr_pll_bypass+0x24>
    204e5648:	b9406020 	ldr	w0, [x1, #96]
    204e564c:	52804042 	mov	w2, #0x202                 	// #514
    204e5650:	12165400 	and	w0, w0, #0xfffffc00
    204e5654:	2a020000 	orr	w0, w0, w2
    204e5658:	b9006020 	str	w0, [x1, #96]
    204e565c:	d284d401 	mov	x1, #0x26a0                	// #9888
    204e5660:	f2a888a1 	movk	x1, #0x4445, lsl #16
    204e5664:	b9400020 	ldr	w0, [x1]
    204e5668:	37e7ffe0 	tbnz	w0, #28, 204e5664 <ddr_pll_bypass+0x48>
    204e566c:	d2890801 	mov	x1, #0x4840                	// #18496
    204e5670:	f2a888a1 	movk	x1, #0x4445, lsl #16
    204e5674:	b9400020 	ldr	w0, [x1]
    204e5678:	32000000 	orr	w0, w0, #0x1
    204e567c:	b9000020 	str	w0, [x1]
    204e5680:	d65f03c0 	ret
    204e5684:	7109c41f 	cmp	w0, #0x271
    204e5688:	54fffd81 	b.ne	204e5638 <ddr_pll_bypass+0x1c>  // b.any
    204e568c:	d284c001 	mov	x1, #0x2600                	// #9728
    204e5690:	f2a888a1 	movk	x1, #0x4445, lsl #16
    204e5694:	b9400020 	ldr	w0, [x1]
    204e5698:	12165400 	and	w0, w0, #0xfffffc00
    204e569c:	32180400 	orr	w0, w0, #0x300
    204e56a0:	b9000020 	str	w0, [x1]
    204e56a4:	17ffffe5 	b	204e5638 <ddr_pll_bypass+0x1c>
    204e56a8:	d284c001 	mov	x1, #0x2600                	// #9728
    204e56ac:	52804022 	mov	w2, #0x201                 	// #513
    204e56b0:	f2a888a1 	movk	x1, #0x4445, lsl #16
    204e56b4:	b9400020 	ldr	w0, [x1]
    204e56b8:	12165400 	and	w0, w0, #0xfffffc00
    204e56bc:	2a020000 	orr	w0, w0, w2
    204e56c0:	17fffff8 	b	204e56a0 <ddr_pll_bypass+0x84>
    204e56c4:	d284c001 	mov	x1, #0x2600                	// #9728
    204e56c8:	52804062 	mov	w2, #0x203                 	// #515
    204e56cc:	f2a888a1 	movk	x1, #0x4445, lsl #16
    204e56d0:	b9400020 	ldr	w0, [x1]
    204e56d4:	12165400 	and	w0, w0, #0xfffffc00
    204e56d8:	17fffff9 	b	204e56bc <ddr_pll_bypass+0xa0>
    204e56dc:	d284c001 	mov	x1, #0x2600                	// #9728
    204e56e0:	528040e2 	mov	w2, #0x207                 	// #519
    204e56e4:	f2a888a1 	movk	x1, #0x4445, lsl #16
    204e56e8:	b9400020 	ldr	w0, [x1]
    204e56ec:	12165400 	and	w0, w0, #0xfffffc00
    204e56f0:	17fffff3 	b	204e56bc <ddr_pll_bypass+0xa0>

00000000204e56f4 <ddr_disable_bypass>:
    204e56f4:	d284d000 	mov	x0, #0x2680                	// #9856
    204e56f8:	52804042 	mov	w2, #0x202                 	// #514
    204e56fc:	f2a888a0 	movk	x0, #0x4445, lsl #16
    204e5700:	b9400001 	ldr	w1, [x0]
    204e5704:	12165421 	and	w1, w1, #0xfffffc00
    204e5708:	2a020021 	orr	w1, w1, w2
    204e570c:	b8020401 	str	w1, [x0], #32
    204e5710:	b9400001 	ldr	w1, [x0]
    204e5714:	37e7ffe1 	tbnz	w1, #28, 204e5710 <ddr_disable_bypass+0x1c>
    204e5718:	d2890801 	mov	x1, #0x4840                	// #18496
    204e571c:	f2a888a1 	movk	x1, #0x4445, lsl #16
    204e5720:	b9400020 	ldr	w0, [x1]
    204e5724:	121f7800 	and	w0, w0, #0xfffffffe
    204e5728:	b9000020 	str	w0, [x1]
    204e572c:	d65f03c0 	ret

00000000204e5730 <ddr_clock_switch>:
    204e5730:	aa0003e2 	mov	x2, x0
    204e5734:	2a0103e0 	mov	w0, w1
    204e5738:	b940f041 	ldr	w1, [x2, #240]
    204e573c:	350000c1 	cbnz	w1, 204e5754 <ddr_clock_switch+0x24>
    204e5740:	a9bf7bfd 	stp	x29, x30, [sp, #-16]!
    204e5744:	910003fd 	mov	x29, sp
    204e5748:	97ffff6b 	bl	204e54f4 <ddr_pll_init>
    204e574c:	a8c17bfd 	ldp	x29, x30, [sp], #16
    204e5750:	17ffffe9 	b	204e56f4 <ddr_disable_bypass>
    204e5754:	17ffffb2 	b	204e561c <ddr_pll_bypass>

00000000204e5758 <ddr_swffc>:
    204e5758:	a9bb7bfd 	stp	x29, x30, [sp, #-80]!
    204e575c:	910003fd 	mov	x29, sp
    204e5760:	a90363f7 	stp	x23, x24, [sp, #48]
    204e5764:	f0000057 	adrp	x23, 204f0000 <imx_gicv3_ctx+0x26d0>
    204e5768:	a90153f3 	stp	x19, x20, [sp, #16]
    204e576c:	aa0003f4 	mov	x20, x0
    204e5770:	b94236e0 	ldr	w0, [x23, #564]
    204e5774:	a9025bf5 	stp	x21, x22, [sp, #32]
    204e5778:	f90023f9 	str	x25, [sp, #64]
    204e577c:	6b01001f 	cmp	w0, w1
    204e5780:	54001200 	b.eq	204e59c0 <ddr_swffc+0x268>  // b.none
    204e5784:	2a0103f3 	mov	w19, w1
    204e5788:	528000a0 	mov	w0, #0x5                   	// #5
    204e578c:	97fff1a5 	bl	204e1e20 <udelay>
    204e5790:	d2820000 	mov	x0, #0x1000                	// #4096
    204e5794:	b94236e1 	ldr	w1, [x23, #564]
    204e5798:	f2a9c600 	movk	x0, #0x4e30, lsl #16
    204e579c:	b9400002 	ldr	w2, [x0]
    204e57a0:	8b010a81 	add	x1, x20, x1, lsl #2
    204e57a4:	12020043 	and	w3, w2, #0x40000000
    204e57a8:	b9405c38 	ldr	w24, [x1, #92]
    204e57ac:	36f00102 	tbz	w2, #30, 204e57cc <ddr_swffc+0x74>
    204e57b0:	d1200000 	sub	x0, x0, #0x800
    204e57b4:	b9400001 	ldr	w1, [x0]
    204e57b8:	f2400c3f 	tst	x1, #0xf
    204e57bc:	54000080 	b.eq	204e57cc <ddr_swffc+0x74>  // b.none
    204e57c0:	b9400001 	ldr	w1, [x0]
    204e57c4:	121c6c21 	and	w1, w1, #0xfffffff0
    204e57c8:	b9000001 	str	w1, [x0]
    204e57cc:	d2804c00 	mov	x0, #0x260                 	// #608
    204e57d0:	52801041 	mov	w1, #0x82                  	// #130
    204e57d4:	f2a9c600 	movk	x0, #0x4e30, lsl #16
    204e57d8:	b9400019 	ldr	w25, [x0]
    204e57dc:	6a01033f 	tst	w25, w1
    204e57e0:	540000a0 	b.eq	204e57f4 <ddr_swffc+0x9c>  // b.none
    204e57e4:	b9400001 	ldr	w1, [x0]
    204e57e8:	12801042 	mov	w2, #0xffffff7d            	// #-131
    204e57ec:	0a020021 	and	w1, w1, w2
    204e57f0:	b9000001 	str	w1, [x0]
    204e57f4:	d2802200 	mov	x0, #0x110                 	// #272
    204e57f8:	f2a9c600 	movk	x0, #0x4e30, lsl #16
    204e57fc:	b9400001 	ldr	w1, [x0]
    204e5800:	321f0021 	orr	w1, w1, #0x2
    204e5804:	b9000001 	str	w1, [x0]
    204e5808:	b9400001 	ldr	w1, [x0]
    204e580c:	360fffe1 	tbz	w1, #1, 204e5808 <ddr_swffc+0xb0>
    204e5810:	35000c23 	cbnz	w3, 204e5994 <ddr_swffc+0x23c>
    204e5814:	528000a1 	mov	w1, #0x5                   	// #5
    204e5818:	7108571f 	cmp	w24, #0x215
    204e581c:	52800c80 	mov	w0, #0x64                  	// #100
    204e5820:	1a818000 	csel	w0, w0, w1, hi	// hi = pmore
    204e5824:	52b00001 	mov	w1, #0x80000000            	// #-2147483648
    204e5828:	940001f9 	bl	204e600c <check_ddrc_idle>
    204e582c:	7108571f 	cmp	w24, #0x215
    204e5830:	3a418800 	ccmn	w0, #0x1, #0x0, hi	// hi = pmore
    204e5834:	54000c20 	b.eq	204e59b8 <ddr_swffc+0x260>  // b.none
    204e5838:	528001a2 	mov	w2, #0xd                   	// #13
    204e583c:	52801801 	mov	w1, #0xc0                  	// #192
    204e5840:	52800080 	mov	w0, #0x4                   	// #4
    204e5844:	52801e95 	mov	w21, #0xf4                  	// #244
    204e5848:	9400020f 	bl	204e6084 <ddrc_mrs>
    204e584c:	d2804c96 	mov	x22, #0x264                 	// #612
    204e5850:	f9400a81 	ldr	x1, [x20, #16]
    204e5854:	9bb57e75 	umull	x21, w19, w21
    204e5858:	f2a9c616 	movk	x22, #0x4e30, lsl #16
    204e585c:	52800020 	mov	w0, #0x1                   	// #1
    204e5860:	8b150021 	add	x1, x1, x21
    204e5864:	91028021 	add	x1, x1, #0xa0
    204e5868:	94000248 	bl	204e6188 <ddrc_apply_reg_config>
    204e586c:	b94002c0 	ldr	w0, [x22]
    204e5870:	120f6800 	and	w0, w0, #0xfffe0fff
    204e5874:	2a133000 	orr	w0, w0, w19, lsl #12
    204e5878:	b90002c0 	str	w0, [x22]
    204e587c:	b94002c0 	ldr	w0, [x22]
    204e5880:	d34c4000 	ubfx	x0, x0, #12, #5
    204e5884:	6b13001f 	cmp	w0, w19
    204e5888:	54ffffa1 	b.ne	204e587c <ddr_swffc+0x124>  // b.any
    204e588c:	7108571f 	cmp	w24, #0x215
    204e5890:	54000188 	b.hi	204e58c0 <ddr_swffc+0x168>  // b.pmore
    204e5894:	52800040 	mov	w0, #0x2                   	// #2
    204e5898:	97fff162 	bl	204e1e20 <udelay>
    204e589c:	b85fc2c0 	ldur	w0, [x22, #-4]
    204e58a0:	d2804c01 	mov	x1, #0x260                 	// #608
    204e58a4:	f2a9c601 	movk	x1, #0x4e30, lsl #16
    204e58a8:	32010000 	orr	w0, w0, #0x80000000
    204e58ac:	b81fc2c0 	stur	w0, [x22, #-4]
    204e58b0:	b9400020 	ldr	w0, [x1]
    204e58b4:	37ffffe0 	tbnz	w0, #31, 204e58b0 <ddr_swffc+0x158>
    204e58b8:	528000a0 	mov	w0, #0x5                   	// #5
    204e58bc:	97fff159 	bl	204e1e20 <udelay>
    204e58c0:	d2802281 	mov	x1, #0x114                 	// #276
    204e58c4:	f2a9c601 	movk	x1, #0x4e30, lsl #16
    204e58c8:	b9400020 	ldr	w0, [x1]
    204e58cc:	32010000 	orr	w0, w0, #0x80000000
    204e58d0:	b9000020 	str	w0, [x1]
    204e58d4:	b94236e0 	ldr	w0, [x23, #564]
    204e58d8:	8b000a80 	add	x0, x20, x0, lsl #2
    204e58dc:	b9405c00 	ldr	w0, [x0, #92]
    204e58e0:	713a501f 	cmp	w0, #0xe94
    204e58e4:	540005e9 	b.ls	204e59a0 <ddr_swffc+0x248>  // b.plast
    204e58e8:	52800060 	mov	w0, #0x3                   	// #3
    204e58ec:	97fff14d 	bl	204e1e20 <udelay>
    204e58f0:	8b334a81 	add	x1, x20, w19, uxtw #2
    204e58f4:	f9400a80 	ldr	x0, [x20, #16]
    204e58f8:	b9405c21 	ldr	w1, [x1, #92]
    204e58fc:	8b150000 	add	x0, x0, x21
    204e5900:	97ffff8c 	bl	204e5730 <ddr_clock_switch>
    204e5904:	f9400a81 	ldr	x1, [x20, #16]
    204e5908:	52800000 	mov	w0, #0x0                   	// #0
    204e590c:	8b150021 	add	x1, x1, x21
    204e5910:	9400021e 	bl	204e6188 <ddrc_apply_reg_config>
    204e5914:	d2802281 	mov	x1, #0x114                 	// #276
    204e5918:	f2a9c601 	movk	x1, #0x4e30, lsl #16
    204e591c:	b9400020 	ldr	w0, [x1]
    204e5920:	12007800 	and	w0, w0, #0x7fffffff
    204e5924:	b9000020 	str	w0, [x1]
    204e5928:	7108571f 	cmp	w24, #0x215
    204e592c:	54000068 	b.hi	204e5938 <ddr_swffc+0x1e0>  // b.pmore
    204e5930:	528000a0 	mov	w0, #0x5                   	// #5
    204e5934:	97fff13b 	bl	204e1e20 <udelay>
    204e5938:	52800080 	mov	w0, #0x4                   	// #4
    204e593c:	528001a2 	mov	w2, #0xd                   	// #13
    204e5940:	52801801 	mov	w1, #0xc0                  	// #192
    204e5944:	940001d0 	bl	204e6084 <ddrc_mrs>
    204e5948:	52800000 	mov	w0, #0x0                   	// #0
    204e594c:	b90236f3 	str	w19, [x23, #564]
    204e5950:	34000099 	cbz	w25, 204e5960 <ddr_swffc+0x208>
    204e5954:	d2804c01 	mov	x1, #0x260                 	// #608
    204e5958:	f2a9c601 	movk	x1, #0x4e30, lsl #16
    204e595c:	b9000039 	str	w25, [x1]
    204e5960:	d2802201 	mov	x1, #0x110                 	// #272
    204e5964:	f2a9c601 	movk	x1, #0x4e30, lsl #16
    204e5968:	b9400022 	ldr	w2, [x1]
    204e596c:	121e7842 	and	w2, w2, #0xfffffffd
    204e5970:	b9000022 	str	w2, [x1]
    204e5974:	b9400022 	ldr	w2, [x1]
    204e5978:	370fffe2 	tbnz	w2, #1, 204e5974 <ddr_swffc+0x21c>
    204e597c:	a94153f3 	ldp	x19, x20, [sp, #16]
    204e5980:	a9425bf5 	ldp	x21, x22, [sp, #32]
    204e5984:	a94363f7 	ldp	x23, x24, [sp, #48]
    204e5988:	f94023f9 	ldr	x25, [sp, #64]
    204e598c:	a8c57bfd 	ldp	x29, x30, [sp], #80
    204e5990:	d65f03c0 	ret
    204e5994:	52800c80 	mov	w0, #0x64                  	// #100
    204e5998:	52b80001 	mov	w1, #0xc0000000            	// #-1073741824
    204e599c:	17ffffa3 	b	204e5828 <ddr_swffc+0xd0>
    204e59a0:	7109c01f 	cmp	w0, #0x270
    204e59a4:	54000069 	b.ls	204e59b0 <ddr_swffc+0x258>  // b.plast
    204e59a8:	528000e0 	mov	w0, #0x7                   	// #7
    204e59ac:	17ffffd0 	b	204e58ec <ddr_swffc+0x194>
    204e59b0:	528008c0 	mov	w0, #0x46                  	// #70
    204e59b4:	17ffffce 	b	204e58ec <ddr_swffc+0x194>
    204e59b8:	12800000 	mov	w0, #0xffffffff            	// #-1
    204e59bc:	17ffffe5 	b	204e5950 <ddr_swffc+0x1f8>
    204e59c0:	52800000 	mov	w0, #0x0                   	// #0
    204e59c4:	17ffffee 	b	204e597c <ddr_swffc+0x224>

00000000204e59c8 <ipg_stop_ack_wait>:
    204e59c8:	d2800182 	mov	x2, #0xc                   	// #12
    204e59cc:	f2a9c022 	movk	x2, #0x4e01, lsl #16
    204e59d0:	b9400041 	ldr	w1, [x2]
    204e59d4:	d3410421 	ubfx	x1, x1, #1, #1
    204e59d8:	6b00003f 	cmp	w1, w0
    204e59dc:	54ffffa1 	b.ne	204e59d0 <ipg_stop_ack_wait+0x8>  // b.any
    204e59e0:	d65f03c0 	ret

00000000204e59e4 <dram_hwffc_half_speed>:
    204e59e4:	a9bf7bfd 	stp	x29, x30, [sp, #-16]!
    204e59e8:	d2a9c023 	mov	x3, #0x4e010000            	// #1308688384
    204e59ec:	52800060 	mov	w0, #0x3                   	// #3
    204e59f0:	910003fd 	mov	x29, sp
    204e59f4:	b9000060 	str	w0, [x3]
    204e59f8:	52800000 	mov	w0, #0x0                   	// #0
    204e59fc:	97fffff3 	bl	204e59c8 <ipg_stop_ack_wait>
    204e5a00:	b9400c60 	ldr	w0, [x3, #12]
    204e5a04:	32000000 	orr	w0, w0, #0x1
    204e5a08:	b9000c60 	str	w0, [x3, #12]
    204e5a0c:	52800020 	mov	w0, #0x1                   	// #1
    204e5a10:	97ffffee 	bl	204e59c8 <ipg_stop_ack_wait>
    204e5a14:	b9400c60 	ldr	w0, [x3, #12]
    204e5a18:	121f7800 	and	w0, w0, #0xfffffffe
    204e5a1c:	b9000c60 	str	w0, [x3, #12]
    204e5a20:	a8c17bfd 	ldp	x29, x30, [sp], #16
    204e5a24:	d65f03c0 	ret

00000000204e5a28 <dram_hwffc_full_speed>:
    204e5a28:	a9be7bfd 	stp	x29, x30, [sp, #-32]!
    204e5a2c:	d2a9c023 	mov	x3, #0x4e010000            	// #1308688384
    204e5a30:	52800024 	mov	w4, #0x1                   	// #1
    204e5a34:	910003fd 	mov	x29, sp
    204e5a38:	f9000bf3 	str	x19, [sp, #16]
    204e5a3c:	52800000 	mov	w0, #0x0                   	// #0
    204e5a40:	b9000064 	str	w4, [x3]
    204e5a44:	97ffffe1 	bl	204e59c8 <ipg_stop_ack_wait>
    204e5a48:	b9400c60 	ldr	w0, [x3, #12]
    204e5a4c:	2a040000 	orr	w0, w0, w4
    204e5a50:	b9000c60 	str	w0, [x3, #12]
    204e5a54:	2a0403e0 	mov	w0, w4
    204e5a58:	97ffffdc 	bl	204e59c8 <ipg_stop_ack_wait>
    204e5a5c:	b9400c60 	ldr	w0, [x3, #12]
    204e5a60:	121f7800 	and	w0, w0, #0xfffffffe
    204e5a64:	b9000c60 	str	w0, [x3, #12]
    204e5a68:	d2804c00 	mov	x0, #0x260                 	// #608
    204e5a6c:	f2a9c600 	movk	x0, #0x4e30, lsl #16
    204e5a70:	b9400001 	ldr	w1, [x0]
    204e5a74:	12190033 	and	w19, w1, #0x80
    204e5a78:	36380081 	tbz	w1, #7, 204e5a88 <dram_hwffc_full_speed+0x60>
    204e5a7c:	b9400001 	ldr	w1, [x0]
    204e5a80:	12187821 	and	w1, w1, #0xffffff7f
    204e5a84:	b9000001 	str	w1, [x0]
    204e5a88:	528001a2 	mov	w2, #0xd                   	// #13
    204e5a8c:	52801801 	mov	w1, #0xc0                  	// #192
    204e5a90:	52800080 	mov	w0, #0x4                   	// #4
    204e5a94:	9400017c 	bl	204e6084 <ddrc_mrs>
    204e5a98:	340000d3 	cbz	w19, 204e5ab0 <dram_hwffc_full_speed+0x88>
    204e5a9c:	d2804c01 	mov	x1, #0x260                 	// #608
    204e5aa0:	f2a9c601 	movk	x1, #0x4e30, lsl #16
    204e5aa4:	b9400020 	ldr	w0, [x1]
    204e5aa8:	32190000 	orr	w0, w0, #0x80
    204e5aac:	b9000020 	str	w0, [x1]
    204e5ab0:	f9400bf3 	ldr	x19, [sp, #16]
    204e5ab4:	a8c27bfd 	ldp	x29, x30, [sp], #32
    204e5ab8:	d65f03c0 	ret

00000000204e5abc <ddr_hwffc>:
    204e5abc:	a9bd7bfd 	stp	x29, x30, [sp, #-48]!
    204e5ac0:	910003fd 	mov	x29, sp
    204e5ac4:	a9025bf5 	stp	x21, x22, [sp, #32]
    204e5ac8:	f0000055 	adrp	x21, 204f0000 <imx_gicv3_ctx+0x26d0>
    204e5acc:	a90153f3 	stp	x19, x20, [sp, #16]
    204e5ad0:	2a0003f3 	mov	w19, w0
    204e5ad4:	b94232a0 	ldr	w0, [x21, #560]
    204e5ad8:	6b13001f 	cmp	w0, w19
    204e5adc:	54000260 	b.eq	204e5b28 <ddr_hwffc+0x6c>  // b.none
    204e5ae0:	d2800201 	mov	x1, #0x10                  	// #16
    204e5ae4:	d2804c14 	mov	x20, #0x260                 	// #608
    204e5ae8:	f2a9c021 	movk	x1, #0x4e01, lsl #16
    204e5aec:	f2a9c614 	movk	x20, #0x4e30, lsl #16
    204e5af0:	b9400020 	ldr	w0, [x1]
    204e5af4:	320f0000 	orr	w0, w0, #0x20000
    204e5af8:	b9000020 	str	w0, [x1]
    204e5afc:	b9400296 	ldr	w22, [x20]
    204e5b00:	b9400280 	ldr	w0, [x20]
    204e5b04:	121e7800 	and	w0, w0, #0xfffffffd
    204e5b08:	b9000280 	str	w0, [x20]
    204e5b0c:	34000173 	cbz	w19, 204e5b38 <ddr_hwffc+0x7c>
    204e5b10:	97ffffb5 	bl	204e59e4 <dram_hwffc_half_speed>
    204e5b14:	36080096 	tbz	w22, #1, 204e5b24 <ddr_hwffc+0x68>
    204e5b18:	b9400280 	ldr	w0, [x20]
    204e5b1c:	321f0000 	orr	w0, w0, #0x2
    204e5b20:	b9000280 	str	w0, [x20]
    204e5b24:	b90232b3 	str	w19, [x21, #560]
    204e5b28:	a94153f3 	ldp	x19, x20, [sp, #16]
    204e5b2c:	a9425bf5 	ldp	x21, x22, [sp, #32]
    204e5b30:	a8c37bfd 	ldp	x29, x30, [sp], #48
    204e5b34:	d65f03c0 	ret
    204e5b38:	97ffffbc 	bl	204e5a28 <dram_hwffc_full_speed>
    204e5b3c:	17fffff6 	b	204e5b14 <ddr_hwffc+0x58>

00000000204e5b40 <waiting_dvfs>:
    204e5b40:	a9be7bfd 	stp	x29, x30, [sp, #-32]!
    204e5b44:	910003fd 	mov	x29, sp
    204e5b48:	f9000bf3 	str	x19, [sp, #16]
    204e5b4c:	97fffd14 	bl	204e4f9c <plat_ic_acknowledge_interrupt>
    204e5b50:	710ff41f 	cmp	w0, #0x3fd
    204e5b54:	54000048 	b.hi	204e5b5c <waiting_dvfs+0x1c>  // b.pmore
    204e5b58:	97fffd14 	bl	204e4fa8 <plat_ic_end_of_interrupt>
    204e5b5c:	f0000053 	adrp	x19, 204f0000 <imx_gicv3_ctx+0x26d0>
    204e5b60:	91091273 	add	x19, x19, #0x244
    204e5b64:	aa1303e0 	mov	x0, x19
    204e5b68:	94000cbe 	bl	204e8e60 <spin_lock>
    204e5b6c:	f0000041 	adrp	x1, 204f0000 <imx_gicv3_ctx+0x26d0>
    204e5b70:	b9424020 	ldr	w0, [x1, #576]
    204e5b74:	11000400 	add	w0, w0, #0x1
    204e5b78:	b9024020 	str	w0, [x1, #576]
    204e5b7c:	d5033f9f 	dsb	sy
    204e5b80:	aa1303e0 	mov	x0, x19
    204e5b84:	94000cbf 	bl	204e8e80 <spin_unlock>
    204e5b88:	f0000040 	adrp	x0, 204f0000 <imx_gicv3_ctx+0x26d0>
    204e5b8c:	910bf800 	add	x0, x0, #0x2fe
    204e5b90:	39400001 	ldrb	w1, [x0]
    204e5b94:	36000061 	tbz	w1, #0, 204e5ba0 <waiting_dvfs+0x60>
    204e5b98:	d503205f 	wfe
    204e5b9c:	17fffffd 	b	204e5b90 <waiting_dvfs+0x50>
    204e5ba0:	f9400bf3 	ldr	x19, [sp, #16]
    204e5ba4:	d2800000 	mov	x0, #0x0                   	// #0
    204e5ba8:	a8c27bfd 	ldp	x29, x30, [sp], #32
    204e5bac:	d65f03c0 	ret

00000000204e5bb0 <ddrphy_addr_remap>:
    204e5bb0:	531f7801 	lsl	w1, w0, #1
    204e5bb4:	d34c5400 	ubfx	x0, x0, #12, #10
    204e5bb8:	7105001f 	cmp	w0, #0x140
    204e5bbc:	540008c8 	b.hi	204e5cd4 <ddrphy_addr_remap+0x124>  // b.pmore
    204e5bc0:	720b043f 	tst	w1, #0x600000
    204e5bc4:	540003e1 	b.ne	204e5c40 <ddrphy_addr_remap+0x90>  // b.any
    204e5bc8:	71015c1f 	cmp	w0, #0x57
    204e5bcc:	540006a8 	b.hi	204e5ca0 <ddrphy_addr_remap+0xf0>  // b.pmore
    204e5bd0:	35000520 	cbnz	w0, 204e5c74 <ddrphy_addr_remap+0xc4>
    204e5bd4:	121f2c21 	and	w1, w1, #0x1ffe
    204e5bd8:	2a003420 	orr	w0, w1, w0, lsl #13
    204e5bdc:	531f7800 	lsl	w0, w0, #1
    204e5be0:	d65f03c0 	ret
    204e5be4:	510c0000 	sub	w0, w0, #0x300
    204e5be8:	7101001f 	cmp	w0, #0x40
    204e5bec:	54000128 	b.hi	204e5c10 <ddrphy_addr_remap+0x60>  // b.pmore
    204e5bf0:	90000022 	adrp	x2, 204e9000 <flush_continue>
    204e5bf4:	9135e042 	add	x2, x2, #0xd78
    204e5bf8:	78605842 	ldrh	w2, [x2, w0, uxtw #1]
    204e5bfc:	10000060 	adr	x0, 204e5c08 <ddrphy_addr_remap+0x58>
    204e5c00:	8b22a802 	add	x2, x0, w2, sxth #2
    204e5c04:	d61f0040 	br	x2
    204e5c08:	528004a0 	mov	w0, #0x25                  	// #37
    204e5c0c:	17fffff2 	b	204e5bd4 <ddrphy_addr_remap+0x24>
    204e5c10:	52800000 	mov	w0, #0x0                   	// #0
    204e5c14:	17fffff0 	b	204e5bd4 <ddrphy_addr_remap+0x24>
    204e5c18:	90000022 	adrp	x2, 204e9000 <flush_continue>
    204e5c1c:	9137f042 	add	x2, x2, #0xdfc
    204e5c20:	78605842 	ldrh	w2, [x2, w0, uxtw #1]
    204e5c24:	10000060 	adr	x0, 204e5c30 <ddrphy_addr_remap+0x80>
    204e5c28:	8b22a802 	add	x2, x0, w2, sxth #2
    204e5c2c:	d61f0040 	br	x2
    204e5c30:	52800320 	mov	w0, #0x19                  	// #25
    204e5c34:	17ffffe8 	b	204e5bd4 <ddrphy_addr_remap+0x24>
    204e5c38:	52800000 	mov	w0, #0x0                   	// #0
    204e5c3c:	17ffffe6 	b	204e5bd4 <ddrphy_addr_remap+0x24>
    204e5c40:	51040000 	sub	w0, w0, #0x100
    204e5c44:	7101001f 	cmp	w0, #0x40
    204e5c48:	54000128 	b.hi	204e5c6c <ddrphy_addr_remap+0xbc>  // b.pmore
    204e5c4c:	90000022 	adrp	x2, 204e9000 <flush_continue>
    204e5c50:	913a0042 	add	x2, x2, #0xe80
    204e5c54:	78605842 	ldrh	w2, [x2, w0, uxtw #1]
    204e5c58:	10000060 	adr	x0, 204e5c64 <ddrphy_addr_remap+0xb4>
    204e5c5c:	8b22a802 	add	x2, x0, w2, sxth #2
    204e5c60:	d61f0040 	br	x2
    204e5c64:	528001a0 	mov	w0, #0xd                   	// #13
    204e5c68:	17ffffdb 	b	204e5bd4 <ddrphy_addr_remap+0x24>
    204e5c6c:	52800000 	mov	w0, #0x0                   	// #0
    204e5c70:	17ffffd9 	b	204e5bd4 <ddrphy_addr_remap+0x24>
    204e5c74:	51000403 	sub	w3, w0, #0x1
    204e5c78:	7101587f 	cmp	w3, #0x56
    204e5c7c:	540000e8 	b.hi	204e5c98 <ddrphy_addr_remap+0xe8>  // b.pmore
    204e5c80:	90000022 	adrp	x2, 204e9000 <flush_continue>
    204e5c84:	913c1042 	add	x2, x2, #0xf04
    204e5c88:	78635842 	ldrh	w2, [x2, w3, uxtw #1]
    204e5c8c:	10000063 	adr	x3, 204e5c98 <ddrphy_addr_remap+0xe8>
    204e5c90:	8b22a862 	add	x2, x3, w2, sxth #2
    204e5c94:	d61f0040 	br	x2
    204e5c98:	52800000 	mov	w0, #0x0                   	// #0
    204e5c9c:	17ffffce 	b	204e5bd4 <ddrphy_addr_remap+0x24>
    204e5ca0:	7103001f 	cmp	w0, #0xc0
    204e5ca4:	54001a40 	b.eq	204e5fec <ddrphy_addr_remap+0x43c>  // b.none
    204e5ca8:	540000e8 	b.hi	204e5cc4 <ddrphy_addr_remap+0x114>  // b.pmore
    204e5cac:	7101c01f 	cmp	w0, #0x70
    204e5cb0:	54001a20 	b.eq	204e5ff4 <ddrphy_addr_remap+0x444>  // b.none
    204e5cb4:	7102401f 	cmp	w0, #0x90
    204e5cb8:	52800d20 	mov	w0, #0x69                  	// #105
    204e5cbc:	1a8013e0 	csel	w0, wzr, w0, ne	// ne = any
    204e5cc0:	17ffffc5 	b	204e5bd4 <ddrphy_addr_remap+0x24>
    204e5cc4:	7103401f 	cmp	w0, #0xd0
    204e5cc8:	52800dc0 	mov	w0, #0x6e                  	// #110
    204e5ccc:	1a8013e0 	csel	w0, wzr, w0, ne	// ne = any
    204e5cd0:	17ffffc1 	b	204e5bd4 <ddrphy_addr_remap+0x24>
    204e5cd4:	710a401f 	cmp	w0, #0x290
    204e5cd8:	54001920 	b.eq	204e5ffc <ddrphy_addr_remap+0x44c>  // b.none
    204e5cdc:	54000108 	b.hi	204e5cfc <ddrphy_addr_remap+0x14c>  // b.pmore
    204e5ce0:	7106401f 	cmp	w0, #0x190
    204e5ce4:	54001900 	b.eq	204e6004 <ddrphy_addr_remap+0x454>  // b.none
    204e5ce8:	51080000 	sub	w0, w0, #0x200
    204e5cec:	7101001f 	cmp	w0, #0x40
    204e5cf0:	54fff949 	b.ls	204e5c18 <ddrphy_addr_remap+0x68>  // b.plast
    204e5cf4:	52800000 	mov	w0, #0x0                   	// #0
    204e5cf8:	17ffffb7 	b	204e5bd4 <ddrphy_addr_remap+0x24>
    204e5cfc:	710d001f 	cmp	w0, #0x340
    204e5d00:	540000a8 	b.hi	204e5d14 <ddrphy_addr_remap+0x164>  // b.pmore
    204e5d04:	710bfc1f 	cmp	w0, #0x2ff
    204e5d08:	54fff6e8 	b.hi	204e5be4 <ddrphy_addr_remap+0x34>  // b.pmore
    204e5d0c:	52800000 	mov	w0, #0x0                   	// #0
    204e5d10:	17ffffb1 	b	204e5bd4 <ddrphy_addr_remap+0x24>
    204e5d14:	710e401f 	cmp	w0, #0x390
    204e5d18:	52800d80 	mov	w0, #0x6c                  	// #108
    204e5d1c:	1a8013e0 	csel	w0, wzr, w0, ne	// ne = any
    204e5d20:	17ffffad 	b	204e5bd4 <ddrphy_addr_remap+0x24>
    204e5d24:	528001c0 	mov	w0, #0xe                   	// #14
    204e5d28:	17ffffab 	b	204e5bd4 <ddrphy_addr_remap+0x24>
    204e5d2c:	528001e0 	mov	w0, #0xf                   	// #15
    204e5d30:	17ffffa9 	b	204e5bd4 <ddrphy_addr_remap+0x24>
    204e5d34:	52800200 	mov	w0, #0x10                  	// #16
    204e5d38:	17ffffa7 	b	204e5bd4 <ddrphy_addr_remap+0x24>
    204e5d3c:	52800220 	mov	w0, #0x11                  	// #17
    204e5d40:	17ffffa5 	b	204e5bd4 <ddrphy_addr_remap+0x24>
    204e5d44:	52800240 	mov	w0, #0x12                  	// #18
    204e5d48:	17ffffa3 	b	204e5bd4 <ddrphy_addr_remap+0x24>
    204e5d4c:	52800260 	mov	w0, #0x13                  	// #19
    204e5d50:	17ffffa1 	b	204e5bd4 <ddrphy_addr_remap+0x24>
    204e5d54:	52800280 	mov	w0, #0x14                  	// #20
    204e5d58:	17ffff9f 	b	204e5bd4 <ddrphy_addr_remap+0x24>
    204e5d5c:	528002a0 	mov	w0, #0x15                  	// #21
    204e5d60:	17ffff9d 	b	204e5bd4 <ddrphy_addr_remap+0x24>
    204e5d64:	528002c0 	mov	w0, #0x16                  	// #22
    204e5d68:	17ffff9b 	b	204e5bd4 <ddrphy_addr_remap+0x24>
    204e5d6c:	528002e0 	mov	w0, #0x17                  	// #23
    204e5d70:	17ffff99 	b	204e5bd4 <ddrphy_addr_remap+0x24>
    204e5d74:	52800340 	mov	w0, #0x1a                  	// #26
    204e5d78:	17ffff97 	b	204e5bd4 <ddrphy_addr_remap+0x24>
    204e5d7c:	52800360 	mov	w0, #0x1b                  	// #27
    204e5d80:	17ffff95 	b	204e5bd4 <ddrphy_addr_remap+0x24>
    204e5d84:	52800380 	mov	w0, #0x1c                  	// #28
    204e5d88:	17ffff93 	b	204e5bd4 <ddrphy_addr_remap+0x24>
    204e5d8c:	528003a0 	mov	w0, #0x1d                  	// #29
    204e5d90:	17ffff91 	b	204e5bd4 <ddrphy_addr_remap+0x24>
    204e5d94:	528003c0 	mov	w0, #0x1e                  	// #30
    204e5d98:	17ffff8f 	b	204e5bd4 <ddrphy_addr_remap+0x24>
    204e5d9c:	528003e0 	mov	w0, #0x1f                  	// #31
    204e5da0:	17ffff8d 	b	204e5bd4 <ddrphy_addr_remap+0x24>
    204e5da4:	52800400 	mov	w0, #0x20                  	// #32
    204e5da8:	17ffff8b 	b	204e5bd4 <ddrphy_addr_remap+0x24>
    204e5dac:	52800420 	mov	w0, #0x21                  	// #33
    204e5db0:	17ffff89 	b	204e5bd4 <ddrphy_addr_remap+0x24>
    204e5db4:	52800440 	mov	w0, #0x22                  	// #34
    204e5db8:	17ffff87 	b	204e5bd4 <ddrphy_addr_remap+0x24>
    204e5dbc:	52800460 	mov	w0, #0x23                  	// #35
    204e5dc0:	17ffff85 	b	204e5bd4 <ddrphy_addr_remap+0x24>
    204e5dc4:	528004c0 	mov	w0, #0x26                  	// #38
    204e5dc8:	17ffff83 	b	204e5bd4 <ddrphy_addr_remap+0x24>
    204e5dcc:	528004e0 	mov	w0, #0x27                  	// #39
    204e5dd0:	17ffff81 	b	204e5bd4 <ddrphy_addr_remap+0x24>
    204e5dd4:	52800500 	mov	w0, #0x28                  	// #40
    204e5dd8:	17ffff7f 	b	204e5bd4 <ddrphy_addr_remap+0x24>
    204e5ddc:	52800520 	mov	w0, #0x29                  	// #41
    204e5de0:	17ffff7d 	b	204e5bd4 <ddrphy_addr_remap+0x24>
    204e5de4:	52800540 	mov	w0, #0x2a                  	// #42
    204e5de8:	17ffff7b 	b	204e5bd4 <ddrphy_addr_remap+0x24>
    204e5dec:	52800560 	mov	w0, #0x2b                  	// #43
    204e5df0:	17ffff79 	b	204e5bd4 <ddrphy_addr_remap+0x24>
    204e5df4:	52800580 	mov	w0, #0x2c                  	// #44
    204e5df8:	17ffff77 	b	204e5bd4 <ddrphy_addr_remap+0x24>
    204e5dfc:	528005a0 	mov	w0, #0x2d                  	// #45
    204e5e00:	17ffff75 	b	204e5bd4 <ddrphy_addr_remap+0x24>
    204e5e04:	528005c0 	mov	w0, #0x2e                  	// #46
    204e5e08:	17ffff73 	b	204e5bd4 <ddrphy_addr_remap+0x24>
    204e5e0c:	528005e0 	mov	w0, #0x2f                  	// #47
    204e5e10:	17ffff71 	b	204e5bd4 <ddrphy_addr_remap+0x24>
    204e5e14:	52800600 	mov	w0, #0x30                  	// #48
    204e5e18:	17ffff6f 	b	204e5bd4 <ddrphy_addr_remap+0x24>
    204e5e1c:	52800620 	mov	w0, #0x31                  	// #49
    204e5e20:	17ffff6d 	b	204e5bd4 <ddrphy_addr_remap+0x24>
    204e5e24:	52800640 	mov	w0, #0x32                  	// #50
    204e5e28:	17ffff6b 	b	204e5bd4 <ddrphy_addr_remap+0x24>
    204e5e2c:	52800660 	mov	w0, #0x33                  	// #51
    204e5e30:	17ffff69 	b	204e5bd4 <ddrphy_addr_remap+0x24>
    204e5e34:	52800680 	mov	w0, #0x34                  	// #52
    204e5e38:	17ffff67 	b	204e5bd4 <ddrphy_addr_remap+0x24>
    204e5e3c:	528006a0 	mov	w0, #0x35                  	// #53
    204e5e40:	17ffff65 	b	204e5bd4 <ddrphy_addr_remap+0x24>
    204e5e44:	528006c0 	mov	w0, #0x36                  	// #54
    204e5e48:	17ffff63 	b	204e5bd4 <ddrphy_addr_remap+0x24>
    204e5e4c:	528006e0 	mov	w0, #0x37                  	// #55
    204e5e50:	17ffff61 	b	204e5bd4 <ddrphy_addr_remap+0x24>
    204e5e54:	52800700 	mov	w0, #0x38                  	// #56
    204e5e58:	17ffff5f 	b	204e5bd4 <ddrphy_addr_remap+0x24>
    204e5e5c:	52800720 	mov	w0, #0x39                  	// #57
    204e5e60:	17ffff5d 	b	204e5bd4 <ddrphy_addr_remap+0x24>
    204e5e64:	52800740 	mov	w0, #0x3a                  	// #58
    204e5e68:	17ffff5b 	b	204e5bd4 <ddrphy_addr_remap+0x24>
    204e5e6c:	52800760 	mov	w0, #0x3b                  	// #59
    204e5e70:	17ffff59 	b	204e5bd4 <ddrphy_addr_remap+0x24>
    204e5e74:	52800780 	mov	w0, #0x3c                  	// #60
    204e5e78:	17ffff57 	b	204e5bd4 <ddrphy_addr_remap+0x24>
    204e5e7c:	528007a0 	mov	w0, #0x3d                  	// #61
    204e5e80:	17ffff55 	b	204e5bd4 <ddrphy_addr_remap+0x24>
    204e5e84:	528007c0 	mov	w0, #0x3e                  	// #62
    204e5e88:	17ffff53 	b	204e5bd4 <ddrphy_addr_remap+0x24>
    204e5e8c:	528007e0 	mov	w0, #0x3f                  	// #63
    204e5e90:	17ffff51 	b	204e5bd4 <ddrphy_addr_remap+0x24>
    204e5e94:	52800800 	mov	w0, #0x40                  	// #64
    204e5e98:	17ffff4f 	b	204e5bd4 <ddrphy_addr_remap+0x24>
    204e5e9c:	52800820 	mov	w0, #0x41                  	// #65
    204e5ea0:	17ffff4d 	b	204e5bd4 <ddrphy_addr_remap+0x24>
    204e5ea4:	52800840 	mov	w0, #0x42                  	// #66
    204e5ea8:	17ffff4b 	b	204e5bd4 <ddrphy_addr_remap+0x24>
    204e5eac:	52800860 	mov	w0, #0x43                  	// #67
    204e5eb0:	17ffff49 	b	204e5bd4 <ddrphy_addr_remap+0x24>
    204e5eb4:	52800880 	mov	w0, #0x44                  	// #68
    204e5eb8:	17ffff47 	b	204e5bd4 <ddrphy_addr_remap+0x24>
    204e5ebc:	528008a0 	mov	w0, #0x45                  	// #69
    204e5ec0:	17ffff45 	b	204e5bd4 <ddrphy_addr_remap+0x24>
    204e5ec4:	528008c0 	mov	w0, #0x46                  	// #70
    204e5ec8:	17ffff43 	b	204e5bd4 <ddrphy_addr_remap+0x24>
    204e5ecc:	528008e0 	mov	w0, #0x47                  	// #71
    204e5ed0:	17ffff41 	b	204e5bd4 <ddrphy_addr_remap+0x24>
    204e5ed4:	52800900 	mov	w0, #0x48                  	// #72
    204e5ed8:	17ffff3f 	b	204e5bd4 <ddrphy_addr_remap+0x24>
    204e5edc:	52800920 	mov	w0, #0x49                  	// #73
    204e5ee0:	17ffff3d 	b	204e5bd4 <ddrphy_addr_remap+0x24>
    204e5ee4:	52800940 	mov	w0, #0x4a                  	// #74
    204e5ee8:	17ffff3b 	b	204e5bd4 <ddrphy_addr_remap+0x24>
    204e5eec:	52800960 	mov	w0, #0x4b                  	// #75
    204e5ef0:	17ffff39 	b	204e5bd4 <ddrphy_addr_remap+0x24>
    204e5ef4:	52800980 	mov	w0, #0x4c                  	// #76
    204e5ef8:	17ffff37 	b	204e5bd4 <ddrphy_addr_remap+0x24>
    204e5efc:	528009a0 	mov	w0, #0x4d                  	// #77
    204e5f00:	17ffff35 	b	204e5bd4 <ddrphy_addr_remap+0x24>
    204e5f04:	528009c0 	mov	w0, #0x4e                  	// #78
    204e5f08:	17ffff33 	b	204e5bd4 <ddrphy_addr_remap+0x24>
    204e5f0c:	528009e0 	mov	w0, #0x4f                  	// #79
    204e5f10:	17ffff31 	b	204e5bd4 <ddrphy_addr_remap+0x24>
    204e5f14:	52800a00 	mov	w0, #0x50                  	// #80
    204e5f18:	17ffff2f 	b	204e5bd4 <ddrphy_addr_remap+0x24>
    204e5f1c:	52800a20 	mov	w0, #0x51                  	// #81
    204e5f20:	17ffff2d 	b	204e5bd4 <ddrphy_addr_remap+0x24>
    204e5f24:	52800a40 	mov	w0, #0x52                  	// #82
    204e5f28:	17ffff2b 	b	204e5bd4 <ddrphy_addr_remap+0x24>
    204e5f2c:	52800a60 	mov	w0, #0x53                  	// #83
    204e5f30:	17ffff29 	b	204e5bd4 <ddrphy_addr_remap+0x24>
    204e5f34:	52800a80 	mov	w0, #0x54                  	// #84
    204e5f38:	17ffff27 	b	204e5bd4 <ddrphy_addr_remap+0x24>
    204e5f3c:	52800aa0 	mov	w0, #0x55                  	// #85
    204e5f40:	17ffff25 	b	204e5bd4 <ddrphy_addr_remap+0x24>
    204e5f44:	52800ac0 	mov	w0, #0x56                  	// #86
    204e5f48:	17ffff23 	b	204e5bd4 <ddrphy_addr_remap+0x24>
    204e5f4c:	52800ae0 	mov	w0, #0x57                  	// #87
    204e5f50:	17ffff21 	b	204e5bd4 <ddrphy_addr_remap+0x24>
    204e5f54:	52800b00 	mov	w0, #0x58                  	// #88
    204e5f58:	17ffff1f 	b	204e5bd4 <ddrphy_addr_remap+0x24>
    204e5f5c:	52800b20 	mov	w0, #0x59                  	// #89
    204e5f60:	17ffff1d 	b	204e5bd4 <ddrphy_addr_remap+0x24>
    204e5f64:	52800b40 	mov	w0, #0x5a                  	// #90
    204e5f68:	17ffff1b 	b	204e5bd4 <ddrphy_addr_remap+0x24>
    204e5f6c:	52800b60 	mov	w0, #0x5b                  	// #91
    204e5f70:	17ffff19 	b	204e5bd4 <ddrphy_addr_remap+0x24>
    204e5f74:	52800b80 	mov	w0, #0x5c                  	// #92
    204e5f78:	17ffff17 	b	204e5bd4 <ddrphy_addr_remap+0x24>
    204e5f7c:	52800ba0 	mov	w0, #0x5d                  	// #93
    204e5f80:	17ffff15 	b	204e5bd4 <ddrphy_addr_remap+0x24>
    204e5f84:	52800bc0 	mov	w0, #0x5e                  	// #94
    204e5f88:	17ffff13 	b	204e5bd4 <ddrphy_addr_remap+0x24>
    204e5f8c:	52800be0 	mov	w0, #0x5f                  	// #95
    204e5f90:	17ffff11 	b	204e5bd4 <ddrphy_addr_remap+0x24>
    204e5f94:	52800c00 	mov	w0, #0x60                  	// #96
    204e5f98:	17ffff0f 	b	204e5bd4 <ddrphy_addr_remap+0x24>
    204e5f9c:	52800c20 	mov	w0, #0x61                  	// #97
    204e5fa0:	17ffff0d 	b	204e5bd4 <ddrphy_addr_remap+0x24>
    204e5fa4:	52800c40 	mov	w0, #0x62                  	// #98
    204e5fa8:	17ffff0b 	b	204e5bd4 <ddrphy_addr_remap+0x24>
    204e5fac:	52800c60 	mov	w0, #0x63                  	// #99
    204e5fb0:	17ffff09 	b	204e5bd4 <ddrphy_addr_remap+0x24>
    204e5fb4:	52800c80 	mov	w0, #0x64                  	// #100
    204e5fb8:	17ffff07 	b	204e5bd4 <ddrphy_addr_remap+0x24>
    204e5fbc:	52800ca0 	mov	w0, #0x65                  	// #101
    204e5fc0:	17ffff05 	b	204e5bd4 <ddrphy_addr_remap+0x24>
    204e5fc4:	52800cc0 	mov	w0, #0x66                  	// #102
    204e5fc8:	17ffff03 	b	204e5bd4 <ddrphy_addr_remap+0x24>
    204e5fcc:	52800ce0 	mov	w0, #0x67                  	// #103
    204e5fd0:	17ffff01 	b	204e5bd4 <ddrphy_addr_remap+0x24>
    204e5fd4:	52800480 	mov	w0, #0x24                  	// #36
    204e5fd8:	17fffeff 	b	204e5bd4 <ddrphy_addr_remap+0x24>
    204e5fdc:	52800300 	mov	w0, #0x18                  	// #24
    204e5fe0:	17fffefd 	b	204e5bd4 <ddrphy_addr_remap+0x24>
    204e5fe4:	52800180 	mov	w0, #0xc                   	// #12
    204e5fe8:	17fffefb 	b	204e5bd4 <ddrphy_addr_remap+0x24>
    204e5fec:	52800da0 	mov	w0, #0x6d                  	// #109
    204e5ff0:	17fffef9 	b	204e5bd4 <ddrphy_addr_remap+0x24>
    204e5ff4:	52800d00 	mov	w0, #0x68                  	// #104
    204e5ff8:	17fffef7 	b	204e5bd4 <ddrphy_addr_remap+0x24>
    204e5ffc:	52800d60 	mov	w0, #0x6b                  	// #107
    204e6000:	17fffef5 	b	204e5bd4 <ddrphy_addr_remap+0x24>
    204e6004:	52800d40 	mov	w0, #0x6a                  	// #106
    204e6008:	17fffef3 	b	204e5bd4 <ddrphy_addr_remap+0x24>

00000000204e600c <check_ddrc_idle>:
    204e600c:	a9bc7bfd 	stp	x29, x30, [sp, #-64]!
    204e6010:	7100001f 	cmp	w0, #0x0
    204e6014:	910003fd 	mov	x29, sp
    204e6018:	a90153f3 	stp	x19, x20, [sp, #16]
    204e601c:	2a0003f3 	mov	w19, w0
    204e6020:	2a0003f4 	mov	w20, w0
    204e6024:	a9025bf5 	stp	x21, x22, [sp, #32]
    204e6028:	2a0103f6 	mov	w22, w1
    204e602c:	1a9f17f5 	cset	w21, eq	// eq = none
    204e6030:	f9001bf7 	str	x23, [sp, #48]
    204e6034:	d2816497 	mov	x23, #0xb24                 	// #2852
    204e6038:	f2a9c617 	movk	x23, #0x4e30, lsl #16
    204e603c:	b94002e0 	ldr	w0, [x23]
    204e6040:	6a2002df 	bics	wzr, w22, w0
    204e6044:	54000100 	b.eq	204e6064 <check_ddrc_idle+0x58>  // b.none
    204e6048:	52800020 	mov	w0, #0x1                   	// #1
    204e604c:	51000694 	sub	w20, w20, #0x1
    204e6050:	97ffef74 	bl	204e1e20 <udelay>
    204e6054:	2a150280 	orr	w0, w20, w21
    204e6058:	35ffff20 	cbnz	w0, 204e603c <check_ddrc_idle+0x30>
    204e605c:	12800000 	mov	w0, #0xffffffff            	// #-1
    204e6060:	14000004 	b	204e6070 <check_ddrc_idle+0x64>
    204e6064:	2a150295 	orr	w21, w20, w21
    204e6068:	4b140260 	sub	w0, w19, w20
    204e606c:	34ffff95 	cbz	w21, 204e605c <check_ddrc_idle+0x50>
    204e6070:	a94153f3 	ldp	x19, x20, [sp, #16]
    204e6074:	a9425bf5 	ldp	x21, x22, [sp, #32]
    204e6078:	f9401bf7 	ldr	x23, [sp, #48]
    204e607c:	a8c47bfd 	ldp	x29, x30, [sp], #64
    204e6080:	d65f03c0 	ret

00000000204e6084 <ddrc_mrs>:
    204e6084:	d2804c03 	mov	x3, #0x260                 	// #608
    204e6088:	a9bd7bfd 	stp	x29, x30, [sp, #-48]!
    204e608c:	f2a9c603 	movk	x3, #0x4e30, lsl #16
    204e6090:	910003fd 	mov	x29, sp
    204e6094:	d104f063 	sub	x3, x3, #0x13c
    204e6098:	b9413c64 	ldr	w4, [x3, #316]
    204e609c:	a90153f3 	stp	x19, x20, [sp, #16]
    204e60a0:	b9400073 	ldr	w19, [x3]
    204e60a4:	f90013f5 	str	x21, [sp, #32]
    204e60a8:	12190095 	and	w21, w4, #0x80
    204e60ac:	36380324 	tbz	w4, #7, 204e6110 <ddrc_mrs+0x8c>
    204e60b0:	b9419c64 	ldr	w4, [x3, #412]
    204e60b4:	53107e66 	lsr	w6, w19, #16
    204e60b8:	9105b063 	add	x3, x3, #0x16c
    204e60bc:	b900007f 	str	wzr, [x3]
    204e60c0:	d3482c85 	ubfx	x5, x4, #8, #4
    204e60c4:	12000c84 	and	w4, w4, #0xf
    204e60c8:	6b0400bf 	cmp	w5, w4
    204e60cc:	1a8420a5 	csel	w5, w5, w4, cs	// cs = hs, nlast
    204e60d0:	53127e64 	lsr	w4, w19, #18
    204e60d4:	710010bf 	cmp	w5, #0x4
    204e60d8:	53117e65 	lsr	w5, w19, #17
    204e60dc:	1a868084 	csel	w4, w4, w6, hi	// hi = pmore
    204e60e0:	1a851084 	csel	w4, w4, w5, ne	// ne = any
    204e60e4:	b9400065 	ldr	w5, [x3]
    204e60e8:	3607ffe5 	tbz	w5, #0, 204e60e4 <ddrc_mrs+0x60>
    204e60ec:	b85d0065 	ldur	w5, [x3, #-48]
    204e60f0:	121878a5 	and	w5, w5, #0xffffff7f
    204e60f4:	b81d0065 	stur	w5, [x3, #-48]
    204e60f8:	d2802485 	mov	x5, #0x124                 	// #292
    204e60fc:	f2a9c605 	movk	x5, #0x4e30, lsl #16
    204e6100:	b94000a3 	ldr	w3, [x5]
    204e6104:	12003c63 	and	w3, w3, #0xffff
    204e6108:	2a044063 	orr	w3, w3, w4, lsl #16
    204e610c:	b90000a3 	str	w3, [x5]
    204e6110:	d2802403 	mov	x3, #0x120                 	// #288
    204e6114:	f2a9c603 	movk	x3, #0x4e30, lsl #16
    204e6118:	b9400064 	ldr	w4, [x3]
    204e611c:	37ffffe4 	tbnz	w4, #31, 204e6118 <ddrc_mrs+0x94>
    204e6120:	2a011841 	orr	w1, w2, w1, lsl #6
    204e6124:	d2802414 	mov	x20, #0x120                 	// #288
    204e6128:	2a007020 	orr	w0, w1, w0, lsl #28
    204e612c:	b9000060 	str	w0, [x3]
    204e6130:	f2a9c614 	movk	x20, #0x4e30, lsl #16
    204e6134:	b9400060 	ldr	w0, [x3]
    204e6138:	32010000 	orr	w0, w0, #0x80000000
    204e613c:	b9000060 	str	w0, [x3]
    204e6140:	b9400280 	ldr	w0, [x20]
    204e6144:	37ffffe0 	tbnz	w0, #31, 204e6140 <ddrc_mrs+0xbc>
    204e6148:	52b00001 	mov	w1, #0x80000000            	// #-2147483648
    204e614c:	52800060 	mov	w0, #0x3                   	// #3
    204e6150:	97ffffaf 	bl	204e600c <check_ddrc_idle>
    204e6154:	34000135 	cbz	w21, 204e6178 <ddrc_mrs+0xf4>
    204e6158:	b9400680 	ldr	w0, [x20, #4]
    204e615c:	d2802481 	mov	x1, #0x124                 	// #292
    204e6160:	f2a9c601 	movk	x1, #0x4e30, lsl #16
    204e6164:	33003c13 	bfxil	w19, w0, #0, #16
    204e6168:	b9000693 	str	w19, [x20, #4]
    204e616c:	b9413c20 	ldr	w0, [x1, #316]
    204e6170:	32190000 	orr	w0, w0, #0x80
    204e6174:	b9013c20 	str	w0, [x1, #316]
    204e6178:	a94153f3 	ldp	x19, x20, [sp, #16]
    204e617c:	f94013f5 	ldr	x21, [sp, #32]
    204e6180:	a8c37bfd 	ldp	x29, x30, [sp], #48
    204e6184:	d65f03c0 	ret

00000000204e6188 <ddrc_apply_reg_config>:
    204e6188:	b40002a1 	cbz	x1, 204e61dc <ddrc_apply_reg_config+0x54>
    204e618c:	a9be7bfd 	stp	x29, x30, [sp, #-32]!
    204e6190:	910003fd 	mov	x29, sp
    204e6194:	a90153f3 	stp	x19, x20, [sp, #16]
    204e6198:	2a0003f4 	mov	w20, w0
    204e619c:	aa0103f3 	mov	x19, x1
    204e61a0:	b9400262 	ldr	w2, [x19]
    204e61a4:	34000202 	cbz	w2, 204e61e4 <ddrc_apply_reg_config+0x5c>
    204e61a8:	340000b4 	cbz	w20, 204e61bc <ddrc_apply_reg_config+0x34>
    204e61ac:	7100069f 	cmp	w20, #0x1
    204e61b0:	540000e0 	b.eq	204e61cc <ddrc_apply_reg_config+0x44>  // b.none
    204e61b4:	91002273 	add	x19, x19, #0x8
    204e61b8:	17fffffa 	b	204e61a0 <ddrc_apply_reg_config+0x18>
    204e61bc:	2a0203e2 	mov	w2, w2
    204e61c0:	b9400660 	ldr	w0, [x19, #4]
    204e61c4:	b9000040 	str	w0, [x2]
    204e61c8:	17fffffb 	b	204e61b4 <ddrc_apply_reg_config+0x2c>
    204e61cc:	b9400661 	ldr	w1, [x19, #4]
    204e61d0:	52800080 	mov	w0, #0x4                   	// #4
    204e61d4:	97ffffac 	bl	204e6084 <ddrc_mrs>
    204e61d8:	17fffff7 	b	204e61b4 <ddrc_apply_reg_config+0x2c>
    204e61dc:	12800000 	mov	w0, #0xffffffff            	// #-1
    204e61e0:	d65f03c0 	ret
    204e61e4:	a94153f3 	ldp	x19, x20, [sp, #16]
    204e61e8:	52800000 	mov	w0, #0x0                   	// #0
    204e61ec:	a8c27bfd 	ldp	x29, x30, [sp], #32
    204e61f0:	d65f03c0 	ret

00000000204e61f4 <dram_info_init>:
    204e61f4:	f0000021 	adrp	x1, 204ed000 <__STACKS_START__+0x1280>
    204e61f8:	f9042420 	str	x0, [x1, #2120]
    204e61fc:	91017000 	add	x0, x0, #0x5c
    204e6200:	d2800001 	mov	x1, #0x0                   	// #0
    204e6204:	b8617802 	ldr	w2, [x0, x1, lsl #2]
    204e6208:	34000082 	cbz	w2, 204e6218 <dram_info_init+0x24>
    204e620c:	91000421 	add	x1, x1, #0x1
    204e6210:	f100103f 	cmp	x1, #0x4
    204e6214:	54ffff81 	b.ne	204e6204 <dram_info_init+0x10>  // b.any
    204e6218:	d0000042 	adrp	x2, 204f0000 <imx_gicv3_ctx+0x26d0>
    204e621c:	71000c3f 	cmp	w1, #0x3
    204e6220:	52800060 	mov	w0, #0x3                   	// #3
    204e6224:	1a809020 	csel	w0, w1, w0, ls	// ls = plast
    204e6228:	b9023c40 	str	w0, [x2, #572]
    204e622c:	34000241 	cbz	w1, 204e6274 <dram_info_init+0x80>
    204e6230:	d2804c01 	mov	x1, #0x260                 	// #608
    204e6234:	a9bf7bfd 	stp	x29, x30, [sp, #-16]!
    204e6238:	f2a9c601 	movk	x1, #0x4e30, lsl #16
    204e623c:	910003fd 	mov	x29, sp
    204e6240:	b9400020 	ldr	w0, [x1]
    204e6244:	52800042 	mov	w2, #0x2                   	// #2
    204e6248:	321f0000 	orr	w0, w0, #0x2
    204e624c:	b9000020 	str	w0, [x1]
    204e6250:	f0ffffe1 	adrp	x1, 204e5000 <plat_ic_has_interrupt_type>
    204e6254:	52800020 	mov	w0, #0x1                   	// #1
    204e6258:	912d0021 	add	x1, x1, #0xb40
    204e625c:	97ffe994 	bl	204e08ac <register_interrupt_type_handler>
    204e6260:	34000060 	cbz	w0, 204e626c <dram_info_init+0x78>
    204e6264:	97ffeeda 	bl	204e1dcc <console_flush>
    204e6268:	94000995 	bl	204e88bc <el3_panic>
    204e626c:	a8c17bfd 	ldp	x29, x30, [sp], #16
    204e6270:	d65f03c0 	ret
    204e6274:	d65f03c0 	ret

00000000204e6278 <dram_dvfs_handler>:
    204e6278:	a9bc7bfd 	stp	x29, x30, [sp, #-64]!
    204e627c:	910003fd 	mov	x29, sp
    204e6280:	a90153f3 	stp	x19, x20, [sp, #16]
    204e6284:	a9025bf5 	stp	x21, x22, [sp, #32]
    204e6288:	aa0103f5 	mov	x21, x1
    204e628c:	a90363f7 	stp	x23, x24, [sp, #48]
    204e6290:	d53800b6 	mrs	x22, mpidr_el1
    204e6294:	f100405f 	cmp	x2, #0x10
    204e6298:	54000141 	b.ne	204e62c0 <dram_dvfs_handler+0x48>  // b.any
    204e629c:	d0000040 	adrp	x0, 204f0000 <imx_gicv3_ctx+0x26d0>
    204e62a0:	b9423c00 	ldr	w0, [x0, #572]
    204e62a4:	a94153f3 	ldp	x19, x20, [sp, #16]
    204e62a8:	a94363f7 	ldp	x23, x24, [sp, #48]
    204e62ac:	f90002a0 	str	x0, [x21]
    204e62b0:	2a1503e0 	mov	w0, w21
    204e62b4:	a9425bf5 	ldp	x21, x22, [sp, #32]
    204e62b8:	a8c47bfd 	ldp	x29, x30, [sp], #64
    204e62bc:	d65f03c0 	ret
    204e62c0:	aa0203f3 	mov	x19, x2
    204e62c4:	aa0303f4 	mov	x20, x3
    204e62c8:	f100445f 	cmp	x2, #0x11
    204e62cc:	540000c1 	b.ne	204e62e4 <dram_dvfs_handler+0x6c>  // b.any
    204e62d0:	f0000020 	adrp	x0, 204ed000 <__STACKS_START__+0x1280>
    204e62d4:	f9442400 	ldr	x0, [x0, #2120]
    204e62d8:	8b030800 	add	x0, x0, x3, lsl #2
    204e62dc:	b9405c00 	ldr	w0, [x0, #92]
    204e62e0:	17fffff1 	b	204e62a4 <dram_dvfs_handler+0x2c>
    204e62e4:	d0000040 	adrp	x0, 204f0000 <imx_gicv3_ctx+0x26d0>
    204e62e8:	b9423c00 	ldr	w0, [x0, #572]
    204e62ec:	6b02001f 	cmp	w0, w2
    204e62f0:	54000703 	b.cc	204e63d0 <dram_dvfs_handler+0x158>  // b.lo, b.ul, b.last
    204e62f4:	d0000057 	adrp	x23, 204f0000 <imx_gicv3_ctx+0x26d0>
    204e62f8:	b9423ae0 	ldr	w0, [x23, #568]
    204e62fc:	6b02001f 	cmp	w0, w2
    204e6300:	540006c0 	b.eq	204e63d8 <dram_dvfs_handler+0x160>  // b.none
    204e6304:	d0000058 	adrp	x24, 204f0000 <imx_gicv3_ctx+0x26d0>
    204e6308:	52800020 	mov	w0, #0x1                   	// #1
    204e630c:	53083ed6 	ubfx	w22, w22, #8, #8
    204e6310:	390bfb00 	strb	w0, [x24, #766]
    204e6314:	d5033f9f 	dsb	sy
    204e6318:	350003b6 	cbnz	w22, 204e638c <dram_dvfs_handler+0x114>
    204e631c:	d2802001 	mov	x1, #0x100                 	// #256
    204e6320:	52800100 	mov	w0, #0x8                   	// #8
    204e6324:	97fffb3a 	bl	204e500c <plat_ic_raise_el3_sgi>
    204e6328:	d0000056 	adrp	x22, 204f0000 <imx_gicv3_ctx+0x26d0>
    204e632c:	51000694 	sub	w20, w20, #0x1
    204e6330:	910902c1 	add	x1, x22, #0x240
    204e6334:	b9400020 	ldr	w0, [x1]
    204e6338:	6b14001f 	cmp	w0, w20
    204e633c:	54ffffc1 	b.ne	204e6334 <dram_dvfs_handler+0xbc>  // b.any
    204e6340:	d0000054 	adrp	x20, 204f0000 <imx_gicv3_ctx+0x26d0>
    204e6344:	d2800040 	mov	x0, #0x2                   	// #2
    204e6348:	940009d2 	bl	204e8a90 <dcsw_op_all>
    204e634c:	394bf680 	ldrb	w0, [x20, #765]
    204e6350:	370002a0 	tbnz	w0, #0, 204e63a4 <dram_dvfs_handler+0x12c>
    204e6354:	7100067f 	cmp	w19, #0x1
    204e6358:	540002a8 	b.hi	204e63ac <dram_dvfs_handler+0x134>  // b.pmore
    204e635c:	2a1303e0 	mov	w0, w19
    204e6360:	97fffdd7 	bl	204e5abc <ddr_hwffc>
    204e6364:	390bf69f 	strb	wzr, [x20, #765]
    204e6368:	b9023af3 	str	w19, [x23, #568]
    204e636c:	52800000 	mov	w0, #0x0                   	// #0
    204e6370:	390bfb1f 	strb	wzr, [x24, #766]
    204e6374:	b90242df 	str	wzr, [x22, #576]
    204e6378:	d5033f9f 	dsb	sy
    204e637c:	d503209f 	sev
    204e6380:	d5033fdf 	isb
    204e6384:	93407c00 	sxtw	x0, w0
    204e6388:	17ffffc7 	b	204e62a4 <dram_dvfs_handler+0x2c>
    204e638c:	d2800001 	mov	x1, #0x0                   	// #0
    204e6390:	52800100 	mov	w0, #0x8                   	// #8
    204e6394:	97fffb1e 	bl	204e500c <plat_ic_raise_el3_sgi>
    204e6398:	710006df 	cmp	w22, #0x1
    204e639c:	54fffc60 	b.eq	204e6328 <dram_dvfs_handler+0xb0>  // b.none
    204e63a0:	17ffffdf 	b	204e631c <dram_dvfs_handler+0xa4>
    204e63a4:	7100067f 	cmp	w19, #0x1
    204e63a8:	54fffe00 	b.eq	204e6368 <dram_dvfs_handler+0xf0>  // b.none
    204e63ac:	f0000020 	adrp	x0, 204ed000 <__STACKS_START__+0x1280>
    204e63b0:	2a1303e1 	mov	w1, w19
    204e63b4:	f9442400 	ldr	x0, [x0, #2120]
    204e63b8:	97fffce8 	bl	204e5758 <ddr_swffc>
    204e63bc:	35fffda0 	cbnz	w0, 204e6370 <dram_dvfs_handler+0xf8>
    204e63c0:	71000a7f 	cmp	w19, #0x2
    204e63c4:	1a9f17e0 	cset	w0, eq	// eq = none
    204e63c8:	390bf680 	strb	w0, [x20, #765]
    204e63cc:	17ffffe7 	b	204e6368 <dram_dvfs_handler+0xf0>
    204e63d0:	92800000 	mov	x0, #0xffffffffffffffff    	// #-1
    204e63d4:	17ffffb4 	b	204e62a4 <dram_dvfs_handler+0x2c>
    204e63d8:	d2800000 	mov	x0, #0x0                   	// #0
    204e63dc:	17ffffb2 	b	204e62a4 <dram_dvfs_handler+0x2c>

00000000204e63e0 <dram_pll_init>:
    204e63e0:	d2826080 	mov	x0, #0x1304                	// #4868
    204e63e4:	52800021 	mov	w1, #0x1                   	// #1
    204e63e8:	f2a88900 	movk	x0, #0x4448, lsl #16
    204e63ec:	b80ec401 	str	w1, [x0], #236
    204e63f0:	b9400001 	ldr	w1, [x0]
    204e63f4:	3607ffe1 	tbz	w1, #0, 204e63f0 <dram_pll_init+0x10>
    204e63f8:	52800081 	mov	w1, #0x4                   	// #4
    204e63fc:	b8118001 	stur	w1, [x0, #-232]
    204e6400:	d2826100 	mov	x0, #0x1308                	// #4872
    204e6404:	52800041 	mov	w1, #0x2                   	// #2
    204e6408:	f2a88900 	movk	x0, #0x4448, lsl #16
    204e640c:	b81fc001 	stur	w1, [x0, #-4]
    204e6410:	d65f03c0 	ret

00000000204e6414 <self_refresh_enter>:
    204e6414:	d2802281 	mov	x1, #0x114                 	// #276
    204e6418:	f2a9c601 	movk	x1, #0x4e30, lsl #16
    204e641c:	b9400020 	ldr	w0, [x1]
    204e6420:	32010000 	orr	w0, w0, #0x80000000
    204e6424:	b9000020 	str	w0, [x1]
    204e6428:	d65f03c0 	ret

00000000204e642c <check_dfi_init_complete>:
    204e642c:	d2816480 	mov	x0, #0xb24                 	// #2852
    204e6430:	f2a9c600 	movk	x0, #0x4e30, lsl #16
    204e6434:	b9400001 	ldr	w1, [x0]
    204e6438:	3617ffe1 	tbz	w1, #2, 204e6434 <check_dfi_init_complete+0x8>
    204e643c:	b9400001 	ldr	w1, [x0]
    204e6440:	321e0021 	orr	w1, w1, #0x4
    204e6444:	b9000001 	str	w1, [x0]
    204e6448:	d65f03c0 	ret

00000000204e644c <dram_enter_retention>:
    204e644c:	d2820000 	mov	x0, #0x1000                	// #4096
    204e6450:	a9be7bfd 	stp	x29, x30, [sp, #-32]!
    204e6454:	f2a9c600 	movk	x0, #0x4e30, lsl #16
    204e6458:	910003fd 	mov	x29, sp
    204e645c:	b9400001 	ldr	w1, [x0]
    204e6460:	f9000bf3 	str	x19, [sp, #16]
    204e6464:	36f00f21 	tbz	w1, #30, 204e6648 <dram_enter_retention+0x1fc>
    204e6468:	d1200000 	sub	x0, x0, #0x800
    204e646c:	b9400001 	ldr	w1, [x0]
    204e6470:	f2400c3f 	tst	x1, #0xf
    204e6474:	54000080 	b.eq	204e6484 <dram_enter_retention+0x38>  // b.none
    204e6478:	b9400001 	ldr	w1, [x0]
    204e647c:	121c6c21 	and	w1, w1, #0xfffffff0
    204e6480:	b9000001 	str	w1, [x0]
    204e6484:	52b80001 	mov	w1, #0xc0000000            	// #-1073741824
    204e6488:	52800000 	mov	w0, #0x0                   	// #0
    204e648c:	97fffee0 	bl	204e600c <check_ddrc_idle>
    204e6490:	d2802200 	mov	x0, #0x110                 	// #272
    204e6494:	f2a9c600 	movk	x0, #0x4e30, lsl #16
    204e6498:	b9400001 	ldr	w1, [x0]
    204e649c:	321f0021 	orr	w1, w1, #0x2
    204e64a0:	b9000001 	str	w1, [x0]
    204e64a4:	b9415001 	ldr	w1, [x0, #336]
    204e64a8:	321f0021 	orr	w1, w1, #0x2
    204e64ac:	b9015001 	str	w1, [x0, #336]
    204e64b0:	b9415000 	ldr	w0, [x0, #336]
    204e64b4:	36080ce0 	tbz	w0, #1, 204e6650 <dram_enter_retention+0x204>
    204e64b8:	90000020 	adrp	x0, 204ea000 <wakeupmix_irq_mask+0x2c>
    204e64bc:	9108d400 	add	x0, x0, #0x235
    204e64c0:	97ffe99d 	bl	204e0b34 <tf_log>
    204e64c4:	d2804c80 	mov	x0, #0x264                 	// #612
    204e64c8:	f2a9c600 	movk	x0, #0x4e30, lsl #16
    204e64cc:	b9400001 	ldr	w1, [x0]
    204e64d0:	32141021 	orr	w1, w1, #0x1f000
    204e64d4:	b9000001 	str	w1, [x0]
    204e64d8:	b9400000 	ldr	w0, [x0]
    204e64dc:	12141000 	and	w0, w0, #0x1f000
    204e64e0:	71407c1f 	cmp	w0, #0x1f, lsl #12
    204e64e4:	54000bc0 	b.eq	204e665c <dram_enter_retention+0x210>  // b.none
    204e64e8:	90000020 	adrp	x0, 204ea000 <wakeupmix_irq_mask+0x2c>
    204e64ec:	9109d000 	add	x0, x0, #0x274
    204e64f0:	97ffe991 	bl	204e0b34 <tf_log>
    204e64f4:	d2802e00 	mov	x0, #0x170                 	// #368
    204e64f8:	d2802202 	mov	x2, #0x110                 	// #272
    204e64fc:	f2a9c600 	movk	x0, #0x4e30, lsl #16
    204e6500:	f2a9c602 	movk	x2, #0x4e30, lsl #16
    204e6504:	b900001f 	str	wzr, [x0]
    204e6508:	97ffffc3 	bl	204e6414 <self_refresh_enter>
    204e650c:	d2800200 	mov	x0, #0x10                  	// #16
    204e6510:	f2a9c020 	movk	x0, #0x4e01, lsl #16
    204e6514:	b9400001 	ldr	w1, [x0]
    204e6518:	320f0021 	orr	w1, w1, #0x20000
    204e651c:	b9000001 	str	w1, [x0]
    204e6520:	b9400041 	ldr	w1, [x2]
    204e6524:	32020021 	orr	w1, w1, #0x40000000
    204e6528:	b9000041 	str	w1, [x2]
    204e652c:	b9415041 	ldr	w1, [x2, #336]
    204e6530:	32150021 	orr	w1, w1, #0x800
    204e6534:	b9015041 	str	w1, [x2, #336]
    204e6538:	b85fcc01 	ldr	w1, [x0, #-4]!
    204e653c:	37080961 	tbnz	w1, #1, 204e6668 <dram_enter_retention+0x21c>
    204e6540:	b9400001 	ldr	w1, [x0]
    204e6544:	d2800183 	mov	x3, #0xc                   	// #12
    204e6548:	f2a9c023 	movk	x3, #0x4e01, lsl #16
    204e654c:	32000021 	orr	w1, w1, #0x1
    204e6550:	b9000001 	str	w1, [x0]
    204e6554:	b9400000 	ldr	w0, [x0]
    204e6558:	360808c0 	tbz	w0, #1, 204e6670 <dram_enter_retention+0x224>
    204e655c:	d2802480 	mov	x0, #0x124                 	// #292
    204e6560:	52a00201 	mov	w1, #0x100000              	// #1048576
    204e6564:	f2a9c600 	movk	x0, #0x4e30, lsl #16
    204e6568:	aa0003e2 	mov	x2, x0
    204e656c:	b81fc45f 	str	wzr, [x2], #-4
    204e6570:	b81fc001 	stur	w1, [x0, #-4]
    204e6574:	b9400060 	ldr	w0, [x3]
    204e6578:	121f7800 	and	w0, w0, #0xfffffffe
    204e657c:	b9000060 	str	w0, [x3]
    204e6580:	97ffffab 	bl	204e642c <check_dfi_init_complete>
    204e6584:	b85f0040 	ldur	w0, [x2, #-16]
    204e6588:	12017800 	and	w0, w0, #0xbfffffff
    204e658c:	b81f0040 	stur	w0, [x2, #-16]
    204e6590:	b9414040 	ldr	w0, [x2, #320]
    204e6594:	121e7800 	and	w0, w0, #0xfffffffd
    204e6598:	b9014040 	str	w0, [x2, #320]
    204e659c:	d2800180 	mov	x0, #0xc                   	// #12
    204e65a0:	b9400061 	ldr	w1, [x3]
    204e65a4:	f2a9c020 	movk	x0, #0x4e01, lsl #16
    204e65a8:	37080681 	tbnz	w1, #1, 204e6678 <dram_enter_retention+0x22c>
    204e65ac:	b9400001 	ldr	w1, [x0]
    204e65b0:	32000021 	orr	w1, w1, #0x1
    204e65b4:	b9000001 	str	w1, [x0]
    204e65b8:	b9400001 	ldr	w1, [x0]
    204e65bc:	d2800180 	mov	x0, #0xc                   	// #12
    204e65c0:	f2a9c020 	movk	x0, #0x4e01, lsl #16
    204e65c4:	360805e1 	tbz	w1, #1, 204e6680 <dram_enter_retention+0x234>
    204e65c8:	b9400001 	ldr	w1, [x0]
    204e65cc:	d2a9c213 	mov	x19, #0x4e100000            	// #1309671424
    204e65d0:	121f7821 	and	w1, w1, #0xfffffffe
    204e65d4:	b9000001 	str	w1, [x0]
    204e65d8:	52a001a0 	mov	w0, #0xd0000               	// #851968
    204e65dc:	97fffd75 	bl	204e5bb0 <ddrphy_addr_remap>
    204e65e0:	b833681f 	str	wzr, [x0, x19]
    204e65e4:	52800500 	mov	w0, #0x28                  	// #40
    204e65e8:	72a00120 	movk	w0, #0x9, lsl #16
    204e65ec:	97fffd71 	bl	204e5bb0 <ddrphy_addr_remap>
    204e65f0:	b8736800 	ldr	w0, [x0, x19]
    204e65f4:	52a001a0 	mov	w0, #0xd0000               	// #851968
    204e65f8:	97fffd6e 	bl	204e5bb0 <ddrphy_addr_remap>
    204e65fc:	52800021 	mov	w1, #0x1                   	// #1
    204e6600:	b8336801 	str	w1, [x0, x19]
    204e6604:	d2828493 	mov	x19, #0x1424                	// #5156
    204e6608:	f2a888d3 	movk	x19, #0x4446, lsl #16
    204e660c:	d1101273 	sub	x19, x19, #0x404
    204e6610:	b9440660 	ldr	w0, [x19, #1028]
    204e6614:	2a010000 	orr	w0, w0, w1
    204e6618:	b9040660 	str	w0, [x19, #1028]
    204e661c:	90000020 	adrp	x0, 204ea000 <wakeupmix_irq_mask+0x2c>
    204e6620:	910aa800 	add	x0, x0, #0x2aa
    204e6624:	97ffe944 	bl	204e0b34 <tf_log>
    204e6628:	b9400260 	ldr	w0, [x19]
    204e662c:	32010000 	orr	w0, w0, #0x80000000
    204e6630:	b9000260 	str	w0, [x19]
    204e6634:	f9400bf3 	ldr	x19, [sp, #16]
    204e6638:	90000020 	adrp	x0, 204ea000 <wakeupmix_irq_mask+0x2c>
    204e663c:	a8c27bfd 	ldp	x29, x30, [sp], #32
    204e6640:	910b0800 	add	x0, x0, #0x2c2
    204e6644:	17ffe93c 	b	204e0b34 <tf_log>
    204e6648:	52b00001 	mov	w1, #0x80000000            	// #-2147483648
    204e664c:	17ffff8f 	b	204e6488 <dram_enter_retention+0x3c>
    204e6650:	90000020 	adrp	x0, 204ea000 <wakeupmix_irq_mask+0x2c>
    204e6654:	91095400 	add	x0, x0, #0x255
    204e6658:	17ffff9a 	b	204e64c0 <dram_enter_retention+0x74>
    204e665c:	90000020 	adrp	x0, 204ea000 <wakeupmix_irq_mask+0x2c>
    204e6660:	910a4000 	add	x0, x0, #0x290
    204e6664:	17ffffa3 	b	204e64f0 <dram_enter_retention+0xa4>
    204e6668:	b9400001 	ldr	w1, [x0]
    204e666c:	17ffffb4 	b	204e653c <dram_enter_retention+0xf0>
    204e6670:	b9400060 	ldr	w0, [x3]
    204e6674:	17ffffb9 	b	204e6558 <dram_enter_retention+0x10c>
    204e6678:	b9400001 	ldr	w1, [x0]
    204e667c:	17ffffcb 	b	204e65a8 <dram_enter_retention+0x15c>
    204e6680:	b9400001 	ldr	w1, [x0]
    204e6684:	17ffffd0 	b	204e65c4 <dram_enter_retention+0x178>

00000000204e6688 <dram_phy_init>:
    204e6688:	a9bd7bfd 	stp	x29, x30, [sp, #-48]!
    204e668c:	910003fd 	mov	x29, sp
    204e6690:	a90153f3 	stp	x19, x20, [sp, #16]
    204e6694:	aa0003f3 	mov	x19, x0
    204e6698:	f9401014 	ldr	x20, [x0, #32]
    204e669c:	a9025bf5 	stp	x21, x22, [sp, #32]
    204e66a0:	52800015 	mov	w21, #0x0                   	// #0
    204e66a4:	d2a9c216 	mov	x22, #0x4e100000            	// #1309671424
    204e66a8:	b9402a60 	ldr	w0, [x19, #40]
    204e66ac:	6b15001f 	cmp	w0, w21
    204e66b0:	54000448 	b.hi	204e6738 <dram_phy_init+0xb0>  // b.pmore
    204e66b4:	d2a9c216 	mov	x22, #0x4e100000            	// #1309671424
    204e66b8:	52a001a0 	mov	w0, #0xd0000               	// #851968
    204e66bc:	97fffd3d 	bl	204e5bb0 <ddrphy_addr_remap>
    204e66c0:	52800015 	mov	w21, #0x0                   	// #0
    204e66c4:	b836681f 	str	wzr, [x0, x22]
    204e66c8:	52801000 	mov	w0, #0x80                  	// #128
    204e66cc:	72a00180 	movk	w0, #0xc, lsl #16
    204e66d0:	97fffd38 	bl	204e5bb0 <ddrphy_addr_remap>
    204e66d4:	f9402274 	ldr	x20, [x19, #64]
    204e66d8:	52800061 	mov	w1, #0x3                   	// #3
    204e66dc:	b8366801 	str	w1, [x0, x22]
    204e66e0:	b9404a60 	ldr	w0, [x19, #72]
    204e66e4:	6b15001f 	cmp	w0, w21
    204e66e8:	54000368 	b.hi	204e6754 <dram_phy_init+0xcc>  // b.pmore
    204e66ec:	d2a9c216 	mov	x22, #0x4e100000            	// #1309671424
    204e66f0:	52801000 	mov	w0, #0x80                  	// #128
    204e66f4:	72a00180 	movk	w0, #0xc, lsl #16
    204e66f8:	97fffd2e 	bl	204e5bb0 <ddrphy_addr_remap>
    204e66fc:	52800041 	mov	w1, #0x2                   	// #2
    204e6700:	b8366801 	str	w1, [x0, x22]
    204e6704:	52a001a0 	mov	w0, #0xd0000               	// #851968
    204e6708:	52800015 	mov	w21, #0x0                   	// #0
    204e670c:	97fffd29 	bl	204e5bb0 <ddrphy_addr_remap>
    204e6710:	f9402a74 	ldr	x20, [x19, #80]
    204e6714:	52800021 	mov	w1, #0x1                   	// #1
    204e6718:	b8366801 	str	w1, [x0, x22]
    204e671c:	b9405a60 	ldr	w0, [x19, #88]
    204e6720:	6b15001f 	cmp	w0, w21
    204e6724:	54000268 	b.hi	204e6770 <dram_phy_init+0xe8>  // b.pmore
    204e6728:	a94153f3 	ldp	x19, x20, [sp, #16]
    204e672c:	a9425bf5 	ldp	x21, x22, [sp, #32]
    204e6730:	a8c37bfd 	ldp	x29, x30, [sp], #48
    204e6734:	d65f03c0 	ret
    204e6738:	b9400280 	ldr	w0, [x20]
    204e673c:	110006b5 	add	w21, w21, #0x1
    204e6740:	91002294 	add	x20, x20, #0x8
    204e6744:	97fffd1b 	bl	204e5bb0 <ddrphy_addr_remap>
    204e6748:	b85fc281 	ldur	w1, [x20, #-4]
    204e674c:	b8366801 	str	w1, [x0, x22]
    204e6750:	17ffffd6 	b	204e66a8 <dram_phy_init+0x20>
    204e6754:	b9400280 	ldr	w0, [x20]
    204e6758:	110006b5 	add	w21, w21, #0x1
    204e675c:	91002294 	add	x20, x20, #0x8
    204e6760:	97fffd14 	bl	204e5bb0 <ddrphy_addr_remap>
    204e6764:	b85fc281 	ldur	w1, [x20, #-4]
    204e6768:	b8366801 	str	w1, [x0, x22]
    204e676c:	17ffffdd 	b	204e66e0 <dram_phy_init+0x58>
    204e6770:	b9400280 	ldr	w0, [x20]
    204e6774:	110006b5 	add	w21, w21, #0x1
    204e6778:	91002294 	add	x20, x20, #0x8
    204e677c:	97fffd0d 	bl	204e5bb0 <ddrphy_addr_remap>
    204e6780:	b85fc281 	ldur	w1, [x20, #-4]
    204e6784:	b8366801 	str	w1, [x0, x22]
    204e6788:	17ffffe5 	b	204e671c <dram_phy_init+0x94>

00000000204e678c <ddrc_init>:
    204e678c:	a9bf7bfd 	stp	x29, x30, [sp, #-16]!
    204e6790:	52802285 	mov	w5, #0x114                 	// #276
    204e6794:	d2802286 	mov	x6, #0x114                 	// #276
    204e6798:	910003fd 	mov	x29, sp
    204e679c:	f9400001 	ldr	x1, [x0]
    204e67a0:	52800004 	mov	w4, #0x0                   	// #0
    204e67a4:	72a9c605 	movk	w5, #0x4e30, lsl #16
    204e67a8:	f2a9c606 	movk	x6, #0x4e30, lsl #16
    204e67ac:	b9400802 	ldr	w2, [x0, #8]
    204e67b0:	6b04005f 	cmp	w2, w4
    204e67b4:	540001a8 	b.hi	204e67e8 <ddrc_init+0x5c>  // b.pmore
    204e67b8:	f9400800 	ldr	x0, [x0, #16]
    204e67bc:	b5000340 	cbnz	x0, 204e6824 <ddrc_init+0x98>
    204e67c0:	97ffff1b 	bl	204e642c <check_dfi_init_complete>
    204e67c4:	d2802201 	mov	x1, #0x110                 	// #272
    204e67c8:	f2a9c601 	movk	x1, #0x4e30, lsl #16
    204e67cc:	b9400020 	ldr	w0, [x1]
    204e67d0:	32010000 	orr	w0, w0, #0x80000000
    204e67d4:	b9000020 	str	w0, [x1]
    204e67d8:	52b00001 	mov	w1, #0x80000000            	// #-2147483648
    204e67dc:	52800000 	mov	w0, #0x0                   	// #0
    204e67e0:	a8c17bfd 	ldp	x29, x30, [sp], #16
    204e67e4:	17fffe0a 	b	204e600c <check_ddrc_idle>
    204e67e8:	29400c22 	ldp	w2, w3, [x1]
    204e67ec:	6b05005f 	cmp	w2, w5
    204e67f0:	540000c1 	b.ne	204e6808 <ddrc_init+0x7c>  // b.any
    204e67f4:	121b7863 	and	w3, w3, #0xffffffef
    204e67f8:	b90000c3 	str	w3, [x6]
    204e67fc:	91002021 	add	x1, x1, #0x8
    204e6800:	11000484 	add	w4, w4, #0x1
    204e6804:	17ffffea 	b	204e67ac <ddrc_init+0x20>
    204e6808:	2a0203e2 	mov	w2, w2
    204e680c:	b9000043 	str	w3, [x2]
    204e6810:	17fffffb 	b	204e67fc <ddrc_init+0x70>
    204e6814:	2a0103e1 	mov	w1, w1
    204e6818:	b9400402 	ldr	w2, [x0, #4]
    204e681c:	91002000 	add	x0, x0, #0x8
    204e6820:	b9000022 	str	w2, [x1]
    204e6824:	b9400001 	ldr	w1, [x0]
    204e6828:	35ffff61 	cbnz	w1, 204e6814 <ddrc_init+0x88>
    204e682c:	17ffffe5 	b	204e67c0 <ddrc_init+0x34>

00000000204e6830 <ddrphy_coldreset>:
    204e6830:	a9be7bfd 	stp	x29, x30, [sp, #-32]!
    204e6834:	910003fd 	mov	x29, sp
    204e6838:	f9000bf3 	str	x19, [sp, #16]
    204e683c:	d2828413 	mov	x19, #0x1420                	// #5152
    204e6840:	f2a888d3 	movk	x19, #0x4446, lsl #16
    204e6844:	b9400260 	ldr	w0, [x19]
    204e6848:	121f7800 	and	w0, w0, #0xfffffffe
    204e684c:	b9000260 	str	w0, [x19]
    204e6850:	b9400660 	ldr	w0, [x19, #4]
    204e6854:	121d7800 	and	w0, w0, #0xfffffffb
    204e6858:	b9000660 	str	w0, [x19, #4]
    204e685c:	b9400660 	ldr	w0, [x19, #4]
    204e6860:	32000000 	orr	w0, w0, #0x1
    204e6864:	b9000660 	str	w0, [x19, #4]
    204e6868:	52800140 	mov	w0, #0xa                   	// #10
    204e686c:	97ffed6d 	bl	204e1e20 <udelay>
    204e6870:	b9400260 	ldr	w0, [x19]
    204e6874:	32000000 	orr	w0, w0, #0x1
    204e6878:	b9000260 	str	w0, [x19]
    204e687c:	b9400660 	ldr	w0, [x19, #4]
    204e6880:	321e0000 	orr	w0, w0, #0x4
    204e6884:	b9000660 	str	w0, [x19, #4]
    204e6888:	52800140 	mov	w0, #0xa                   	// #10
    204e688c:	97ffed65 	bl	204e1e20 <udelay>
    204e6890:	b9400660 	ldr	w0, [x19, #4]
    204e6894:	121f7800 	and	w0, w0, #0xfffffffe
    204e6898:	b9000660 	str	w0, [x19, #4]
    204e689c:	52800140 	mov	w0, #0xa                   	// #10
    204e68a0:	97ffed60 	bl	204e1e20 <udelay>
    204e68a4:	b9400260 	ldr	w0, [x19]
    204e68a8:	121f7800 	and	w0, w0, #0xfffffffe
    204e68ac:	b9000260 	str	w0, [x19]
    204e68b0:	b9400660 	ldr	w0, [x19, #4]
    204e68b4:	121d7800 	and	w0, w0, #0xfffffffb
    204e68b8:	b9000660 	str	w0, [x19, #4]
    204e68bc:	f9400bf3 	ldr	x19, [sp, #16]
    204e68c0:	a8c27bfd 	ldp	x29, x30, [sp], #32
    204e68c4:	d65f03c0 	ret

00000000204e68c8 <dram_exit_retention>:
    204e68c8:	a9be7bfd 	stp	x29, x30, [sp, #-32]!
    204e68cc:	910003fd 	mov	x29, sp
    204e68d0:	f9000bf3 	str	x19, [sp, #16]
    204e68d4:	d2820413 	mov	x19, #0x1020                	// #4128
    204e68d8:	f2a888d3 	movk	x19, #0x4446, lsl #16
    204e68dc:	b9400260 	ldr	w0, [x19]
    204e68e0:	12007800 	and	w0, w0, #0x7fffffff
    204e68e4:	b9000260 	str	w0, [x19]
    204e68e8:	b9400260 	ldr	w0, [x19]
    204e68ec:	32000000 	orr	w0, w0, #0x1
    204e68f0:	b9000260 	str	w0, [x19]
    204e68f4:	52800140 	mov	w0, #0xa                   	// #10
    204e68f8:	97ffed4a 	bl	204e1e20 <udelay>
    204e68fc:	b9400260 	ldr	w0, [x19]
    204e6900:	121f7800 	and	w0, w0, #0xfffffffe
    204e6904:	b9000260 	str	w0, [x19]
    204e6908:	52800140 	mov	w0, #0xa                   	// #10
    204e690c:	f0000033 	adrp	x19, 204ed000 <__STACKS_START__+0x1280>
    204e6910:	97ffed44 	bl	204e1e20 <udelay>
    204e6914:	97ffffc7 	bl	204e6830 <ddrphy_coldreset>
    204e6918:	97fffeb2 	bl	204e63e0 <dram_pll_init>
    204e691c:	97fffb76 	bl	204e56f4 <ddr_disable_bypass>
    204e6920:	f9442660 	ldr	x0, [x19, #2120]
    204e6924:	97ffff59 	bl	204e6688 <dram_phy_init>
    204e6928:	90000020 	adrp	x0, 204ea000 <wakeupmix_irq_mask+0x2c>
    204e692c:	910b6400 	add	x0, x0, #0x2d9
    204e6930:	94000b7f 	bl	204e972c <printf>
    204e6934:	f9442660 	ldr	x0, [x19, #2120]
    204e6938:	97ffff95 	bl	204e678c <ddrc_init>
    204e693c:	d2804c01 	mov	x1, #0x260                 	// #608
    204e6940:	f2a9c601 	movk	x1, #0x4e30, lsl #16
    204e6944:	f9400bf3 	ldr	x19, [sp, #16]
    204e6948:	b9400020 	ldr	w0, [x1]
    204e694c:	321f0000 	orr	w0, w0, #0x2
    204e6950:	b9000020 	str	w0, [x1]
    204e6954:	90000020 	adrp	x0, 204ea000 <wakeupmix_irq_mask+0x2c>
    204e6958:	910ba800 	add	x0, x0, #0x2ea
    204e695c:	a8c27bfd 	ldp	x29, x30, [sp], #32
    204e6960:	17ffe875 	b	204e0b34 <tf_log>

00000000204e6964 <bl31_early_platform_setup2>:
    204e6964:	a9be7bfd 	stp	x29, x30, [sp, #-32]!
    204e6968:	52984002 	mov	w2, #0xc200                	// #49664
    204e696c:	72a00022 	movk	w2, #0x1, lsl #16
    204e6970:	910003fd 	mov	x29, sp
    204e6974:	a90153f3 	stp	x19, x20, [sp, #16]
    204e6978:	f0000033 	adrp	x19, 204ed000 <__STACKS_START__+0x1280>
    204e697c:	91214273 	add	x19, x19, #0x850
    204e6980:	aa1303e3 	mov	x3, x19
    204e6984:	5286c001 	mov	w1, #0x3600                	// #13824
    204e6988:	aa0003f4 	mov	x20, x0
    204e698c:	72a02dc1 	movk	w1, #0x16e, lsl #16
    204e6990:	d2a88700 	mov	x0, #0x44380000            	// #1144520704
    204e6994:	940009b1 	bl	204e9058 <console_lpuart_register>
    204e6998:	aa1303e0 	mov	x0, x19
    204e699c:	52800021 	mov	w1, #0x1                   	// #1
    204e69a0:	97ffecd1 	bl	204e1ce4 <console_set_scope>
    204e69a4:	f0000024 	adrp	x4, 204ed000 <__STACKS_START__+0x1280>
    204e69a8:	9121e084 	add	x4, x4, #0x878
    204e69ac:	d2b00400 	mov	x0, #0x80200000            	// #2149580800
    204e69b0:	f0000023 	adrp	x3, 204ed000 <__STACKS_START__+0x1280>
    204e69b4:	d2a00142 	mov	x2, #0xa0000               	// #655360
    204e69b8:	91234063 	add	x3, x3, #0x8d0
    204e69bc:	f9000480 	str	x0, [x4, #8]
    204e69c0:	d5380400 	mrs	x0, id_aa64pfr0_el1
    204e69c4:	f2780c1f 	tst	x0, #0xf00
    204e69c8:	52807820 	mov	w0, #0x3c1                 	// #961
    204e69cc:	9a9f07e1 	cset	x1, ne	// ne = any
    204e69d0:	91000421 	add	x1, x1, #0x1
    204e69d4:	2a010801 	orr	w1, w0, w1, lsl #2
    204e69d8:	b9001081 	str	w1, [x4, #16]
    204e69dc:	b9400481 	ldr	w1, [x4, #4]
    204e69e0:	12800420 	mov	w0, #0xffffffde            	// #-34
    204e69e4:	0a000021 	and	w1, w1, w0
    204e69e8:	aa1403e0 	mov	x0, x20
    204e69ec:	a94153f3 	ldp	x19, x20, [sp, #16]
    204e69f0:	32000021 	orr	w1, w1, #0x1
    204e69f4:	b9000481 	str	w1, [x4, #4]
    204e69f8:	d2a40901 	mov	x1, #0x20480000            	// #541589504
    204e69fc:	a8c27bfd 	ldp	x29, x30, [sp], #32
    204e6a00:	17fff99c 	b	204e5070 <imx_bl31_params_parse>

00000000204e6a04 <bl31_plat_arch_setup>:
    204e6a04:	a9b77bfd 	stp	x29, x30, [sp, #-144]!
    204e6a08:	d2800b82 	mov	x2, #0x5c                  	// #92
    204e6a0c:	52800001 	mov	w1, #0x0                   	// #0
    204e6a10:	910003fd 	mov	x29, sp
    204e6a14:	9100d3e0 	add	x0, sp, #0x34
    204e6a18:	94000b5a 	bl	204e9780 <memset>
    204e6a1c:	d2a409c0 	mov	x0, #0x204e0000            	// #541982720
    204e6a20:	a90183e0 	stp	x0, x0, [sp, #24]
    204e6a24:	d2a00080 	mov	x0, #0x40000               	// #262144
    204e6a28:	d2a80002 	mov	x2, #0x40000000            	// #1073741824
    204e6a2c:	d2800203 	mov	x3, #0x10                  	// #16
    204e6a30:	f90017e0 	str	x0, [sp, #40]
    204e6a34:	52800140 	mov	w0, #0xa                   	// #10
    204e6a38:	f2a87023 	movk	x3, #0x4381, lsl #16
    204e6a3c:	d0ffffc1 	adrp	x1, 204e0000 <bl31_entrypoint>
    204e6a40:	91000021 	add	x1, x1, #0x0
    204e6a44:	b90033e0 	str	w0, [sp, #48]
    204e6a48:	b0000020 	adrp	x0, 204eb000 <__RO_END_UNALIGNED__>
    204e6a4c:	91000000 	add	x0, x0, #0x0
    204e6a50:	a90387e2 	stp	x2, x1, [sp, #56]
    204e6a54:	cb010000 	sub	x0, x0, x1
    204e6a58:	f90033e2 	str	x2, [sp, #96]
    204e6a5c:	aa0303e2 	mov	x2, x3
    204e6a60:	f90027e1 	str	x1, [sp, #72]
    204e6a64:	12800001 	mov	w1, #0xffffffff            	// #-1
    204e6a68:	f9002be0 	str	x0, [sp, #80]
    204e6a6c:	52800040 	mov	w0, #0x2                   	// #2
    204e6a70:	b9005be0 	str	w0, [sp, #88]
    204e6a74:	52800060 	mov	w0, #0x3                   	// #3
    204e6a78:	b8004441 	str	w1, [x2], #4
    204e6a7c:	b9000460 	str	w0, [x3, #4]
    204e6a80:	91404063 	add	x3, x3, #0x10, lsl #12
    204e6a84:	b9000441 	str	w1, [x2, #4]
    204e6a88:	b9000840 	str	w0, [x2, #8]
    204e6a8c:	b9000061 	str	w1, [x3]
    204e6a90:	91404043 	add	x3, x2, #0x10, lsl #12
    204e6a94:	91408042 	add	x2, x2, #0x20, lsl #12
    204e6a98:	b9000060 	str	w0, [x3]
    204e6a9c:	d2800303 	mov	x3, #0x18                  	// #24
    204e6aa0:	f2a87043 	movk	x3, #0x4382, lsl #16
    204e6aa4:	b9000061 	str	w1, [x3]
    204e6aa8:	b9000460 	str	w0, [x3, #4]
    204e6aac:	d2800203 	mov	x3, #0x10                  	// #16
    204e6ab0:	f2a87063 	movk	x3, #0x4383, lsl #16
    204e6ab4:	b9000061 	str	w1, [x3]
    204e6ab8:	d2800203 	mov	x3, #0x10                  	// #16
    204e6abc:	b9000040 	str	w0, [x2]
    204e6ac0:	d2800302 	mov	x2, #0x18                  	// #24
    204e6ac4:	f2a87062 	movk	x2, #0x4383, lsl #16
    204e6ac8:	f2a8e803 	movk	x3, #0x4740, lsl #16
    204e6acc:	b9000041 	str	w1, [x2]
    204e6ad0:	b9000440 	str	w0, [x2, #4]
    204e6ad4:	aa0303e2 	mov	x2, x3
    204e6ad8:	b8004441 	str	w1, [x2], #4
    204e6adc:	b9000460 	str	w0, [x3, #4]
    204e6ae0:	b9000441 	str	w1, [x2, #4]
    204e6ae4:	f0000001 	adrp	x1, 204e9000 <flush_continue>
    204e6ae8:	b9000840 	str	w0, [x2, #8]
    204e6aec:	91218021 	add	x1, x1, #0x860
    204e6af0:	910063e0 	add	x0, sp, #0x18
    204e6af4:	97fff913 	bl	204e4f40 <setup_page_tables>
    204e6af8:	52800000 	mov	w0, #0x0                   	// #0
    204e6afc:	97fff776 	bl	204e48d4 <enable_mmu_el3>
    204e6b00:	94000564 	bl	204e8090 <trdc_config>
    204e6b04:	a8c97bfd 	ldp	x29, x30, [sp], #144
    204e6b08:	d65f03c0 	ret

00000000204e6b0c <bl31_platform_setup>:
    204e6b0c:	a9bf7bfd 	stp	x29, x30, [sp, #-16]!
    204e6b10:	910003fd 	mov	x29, sp
    204e6b14:	97ffecfe 	bl	204e1f0c <generic_delay_timer_init>
    204e6b18:	97fffa2d 	bl	204e53cc <ele_get_soc_info>
    204e6b1c:	d2980000 	mov	x0, #0xc000                	// #49152
    204e6b20:	f2a40a20 	movk	x0, #0x2051, lsl #16
    204e6b24:	97fffdb4 	bl	204e61f4 <dram_info_init>
    204e6b28:	97fff9df 	bl	204e52a4 <plat_gic_driver_init>
    204e6b2c:	a8c17bfd 	ldp	x29, x30, [sp], #16
    204e6b30:	17fff9e0 	b	204e52b0 <plat_gic_init>

00000000204e6b34 <bl31_plat_get_next_image_ep_info>:
    204e6b34:	7100041f 	cmp	w0, #0x1
    204e6b38:	540000c0 	b.eq	204e6b50 <bl31_plat_get_next_image_ep_info+0x1c>  // b.none
    204e6b3c:	7100001f 	cmp	w0, #0x0
    204e6b40:	f0000021 	adrp	x1, 204ed000 <__STACKS_START__+0x1280>
    204e6b44:	91234020 	add	x0, x1, #0x8d0
    204e6b48:	9a9f0000 	csel	x0, x0, xzr, eq	// eq = none
    204e6b4c:	d65f03c0 	ret
    204e6b50:	f0000020 	adrp	x0, 204ed000 <__STACKS_START__+0x1280>
    204e6b54:	9121e000 	add	x0, x0, #0x878
    204e6b58:	17fffffd 	b	204e6b4c <bl31_plat_get_next_image_ep_info+0x18>

00000000204e6b5c <plat_get_syscnt_freq2>:
    204e6b5c:	5286c000 	mov	w0, #0x3600                	// #13824
    204e6b60:	72a02dc0 	movk	w0, #0x16e, lsl #16
    204e6b64:	d65f03c0 	ret

00000000204e6b68 <imx_validate_ns_entrypoint>:
    204e6b68:	12affc01 	mov	w1, #0x801fffff            	// #-2145386497
    204e6b6c:	eb01001f 	cmp	x0, x1
    204e6b70:	12800020 	mov	w0, #0xfffffffe            	// #-2
    204e6b74:	1a9f9000 	csel	w0, w0, wzr, ls	// ls = plast
    204e6b78:	d65f03c0 	ret

00000000204e6b7c <imx_validate_power_state>:
    204e6b7c:	d3504002 	ubfx	x2, x0, #16, #1
    204e6b80:	12003c03 	and	w3, w0, #0xffff
    204e6b84:	12080400 	and	w0, w0, #0x3000000
    204e6b88:	52a06004 	mov	w4, #0x3000000             	// #50331648
    204e6b8c:	6b04001f 	cmp	w0, w4
    204e6b90:	54000200 	b.eq	204e6bd0 <imx_validate_power_state+0x54>  // b.none
    204e6b94:	35000082 	cbnz	w2, 204e6ba4 <imx_validate_power_state+0x28>
    204e6b98:	52800040 	mov	w0, #0x2                   	// #2
    204e6b9c:	39000020 	strb	w0, [x1]
    204e6ba0:	39000420 	strb	w0, [x1, #1]
    204e6ba4:	7100cc7f 	cmp	w3, #0x33
    204e6ba8:	1a9f17e0 	cset	w0, eq	// eq = none
    204e6bac:	6a02001f 	tst	w0, w2
    204e6bb0:	54000061 	b.ne	204e6bbc <imx_validate_power_state+0x40>  // b.any
    204e6bb4:	52800000 	mov	w0, #0x0                   	// #0
    204e6bb8:	d65f03c0 	ret
    204e6bbc:	52800080 	mov	w0, #0x4                   	// #4
    204e6bc0:	39000020 	strb	w0, [x1]
    204e6bc4:	52800040 	mov	w0, #0x2                   	// #2
    204e6bc8:	39000420 	strb	w0, [x1, #1]
    204e6bcc:	17fffffa 	b	204e6bb4 <imx_validate_power_state+0x38>
    204e6bd0:	12800020 	mov	w0, #0xfffffffe            	// #-2
    204e6bd4:	17fffff9 	b	204e6bb8 <imx_validate_power_state+0x3c>

00000000204e6bd8 <imx_get_sys_suspend_power_state>:
    204e6bd8:	52800081 	mov	w1, #0x4                   	// #4
    204e6bdc:	39000001 	strb	w1, [x0]
    204e6be0:	52800041 	mov	w1, #0x2                   	// #2
    204e6be4:	39000401 	strb	w1, [x0, #1]
    204e6be8:	39000801 	strb	w1, [x0, #2]
    204e6bec:	d65f03c0 	ret

00000000204e6bf0 <imx_system_reset>:
    204e6bf0:	d2800080 	mov	x0, #0x4                   	// #4
    204e6bf4:	5298a401 	mov	w1, #0xc520                	// #50464
    204e6bf8:	f2a84920 	movk	x0, #0x4249, lsl #16
    204e6bfc:	72bb2501 	movk	w1, #0xd928, lsl #16
    204e6c00:	b9000001 	str	w1, [x0]
    204e6c04:	d2a84920 	mov	x0, #0x42490000            	// #1112080384
    204e6c08:	b9400001 	ldr	w1, [x0]
    204e6c0c:	365fffe1 	tbz	w1, #11, 204e6c08 <imx_system_reset+0x18>
    204e6c10:	52800201 	mov	w1, #0x10                  	// #16
    204e6c14:	b9000801 	str	w1, [x0, #8]
    204e6c18:	52843c61 	mov	w1, #0x21e3                	// #8675
    204e6c1c:	b9000001 	str	w1, [x0]
    204e6c20:	d503207f 	wfi
    204e6c24:	17ffffff 	b	204e6c20 <imx_system_reset+0x30>

00000000204e6c28 <imx_system_off>:
    204e6c28:	d2800101 	mov	x1, #0x8                   	// #8
    204e6c2c:	f2a88881 	movk	x1, #0x4444, lsl #16
    204e6c30:	b9400020 	ldr	w0, [x1]
    204e6c34:	32080400 	orr	w0, w0, #0x3000000
    204e6c38:	b9000020 	str	w0, [x1]
    204e6c3c:	d503207f 	wfi
    204e6c40:	17ffffff 	b	204e6c3c <imx_system_off+0x14>

00000000204e6c44 <imx_pwr_domain_on_finish>:
    204e6c44:	a9be7bfd 	stp	x29, x30, [sp, #-32]!
    204e6c48:	910003fd 	mov	x29, sp
    204e6c4c:	a90153f3 	stp	x19, x20, [sp, #16]
    204e6c50:	d53800b3 	mrs	x19, mpidr_el1
    204e6c54:	97fff9b1 	bl	204e5318 <plat_gic_pcpu_init>
    204e6c58:	d348fe74 	lsr	x20, x19, #8
    204e6c5c:	97fff9a5 	bl	204e52f0 <plat_gic_cpuif_enable>
    204e6c60:	53083e73 	ubfx	w19, w19, #8, #8
    204e6c64:	52810200 	mov	w0, #0x810                 	// #2064
    204e6c68:	b0000024 	adrp	x4, 204eb000 <__RO_END_UNALIGNED__>
    204e6c6c:	72a888e0 	movk	w0, #0x4447, lsl #16
    204e6c70:	0b132c01 	add	w1, w0, w19, lsl #11
    204e6c74:	51001000 	sub	w0, w0, #0x4
    204e6c78:	0b132c00 	add	w0, w0, w19, lsl #11
    204e6c7c:	b900003f 	str	wzr, [x1]
    204e6c80:	b9400001 	ldr	w1, [x0]
    204e6c84:	12197821 	and	w1, w1, #0xffffffbf
    204e6c88:	b9000001 	str	w1, [x0]
    204e6c8c:	b9400001 	ldr	w1, [x0]
    204e6c90:	321b0021 	orr	w1, w1, #0x20
    204e6c94:	b9000001 	str	w1, [x0]
    204e6c98:	395ed080 	ldrb	w0, [x4, #1972]
    204e6c9c:	36000480 	tbz	w0, #0, 204e6d2c <imx_pwr_domain_on_finish+0xe8>
    204e6ca0:	528b8080 	mov	w0, #0x5c04                	// #23556
    204e6ca4:	11002e62 	add	w2, w19, #0xb
    204e6ca8:	72a888c0 	movk	w0, #0x4446, lsl #16
    204e6cac:	531e0a83 	ubfiz	w3, w20, #2, #3
    204e6cb0:	0b132800 	add	w0, w0, w19, lsl #10
    204e6cb4:	391ed09f 	strb	wzr, [x4, #1972]
    204e6cb8:	b9400001 	ldr	w1, [x0]
    204e6cbc:	321e0021 	orr	w1, w1, #0x4
    204e6cc0:	b9000001 	str	w1, [x0]
    204e6cc4:	529000a0 	mov	w0, #0x8005                	// #32773
    204e6cc8:	528000e1 	mov	w1, #0x7                   	// #7
    204e6ccc:	72a22220 	movk	w0, #0x1111, lsl #16
    204e6cd0:	1ac32021 	lsl	w1, w1, w3
    204e6cd4:	0b530c00 	add	w0, w0, w19, lsr #3
    204e6cd8:	0b022002 	add	w2, w0, w2, lsl #8
    204e6cdc:	531e7442 	lsl	w2, w2, #2
    204e6ce0:	b9400040 	ldr	w0, [x2]
    204e6ce4:	0a210001 	bic	w1, w0, w1
    204e6ce8:	52800020 	mov	w0, #0x1                   	// #1
    204e6cec:	1ac32003 	lsl	w3, w0, w3
    204e6cf0:	2a030021 	orr	w1, w1, w3
    204e6cf4:	b9000041 	str	w1, [x2]
    204e6cf8:	52859001 	mov	w1, #0x2c80                	// #11392
    204e6cfc:	72a888c1 	movk	w1, #0x4446, lsl #16
    204e6d00:	1ad32000 	lsl	w0, w0, w19
    204e6d04:	0b132821 	add	w1, w1, w19, lsl #10
    204e6d08:	53103c00 	lsl	w0, w0, #16
    204e6d0c:	321e0000 	orr	w0, w0, #0x4
    204e6d10:	b9400022 	ldr	w2, [x1]
    204e6d14:	12027442 	and	w2, w2, #0xcfffffff
    204e6d18:	b9000022 	str	w2, [x1]
    204e6d1c:	52858081 	mov	w1, #0x2c04                	// #11268
    204e6d20:	72a888c1 	movk	w1, #0x4446, lsl #16
    204e6d24:	0b132833 	add	w19, w1, w19, lsl #10
    204e6d28:	b9000260 	str	w0, [x19]
    204e6d2c:	a94153f3 	ldp	x19, x20, [sp, #16]
    204e6d30:	a8c27bfd 	ldp	x29, x30, [sp], #32
    204e6d34:	d65f03c0 	ret

00000000204e6d38 <imx_pwr_domain_off>:
    204e6d38:	a9be7bfd 	stp	x29, x30, [sp, #-32]!
    204e6d3c:	910003fd 	mov	x29, sp
    204e6d40:	f9000bf3 	str	x19, [sp, #16]
    204e6d44:	d53800b3 	mrs	x19, mpidr_el1
    204e6d48:	97fff96f 	bl	204e5304 <plat_gic_cpuif_disable>
    204e6d4c:	d2800000 	mov	x0, #0x0                   	// #0
    204e6d50:	d518f3c0 	msr	s3_0_c15_c3_6, x0
    204e6d54:	52812003 	mov	w3, #0x900                 	// #2304
    204e6d58:	53083e60 	ubfx	w0, w19, #8, #8
    204e6d5c:	72a888e3 	movk	w3, #0x4447, lsl #16
    204e6d60:	12800004 	mov	w4, #0xffffffff            	// #-1
    204e6d64:	0b002c62 	add	w2, w3, w0, lsl #11
    204e6d68:	11008063 	add	w3, w3, #0x20
    204e6d6c:	53155001 	lsl	w1, w0, #11
    204e6d70:	0b002c60 	add	w0, w3, w0, lsl #11
    204e6d74:	2a0203e3 	mov	w3, w2
    204e6d78:	11001042 	add	w2, w2, #0x4
    204e6d7c:	b9000064 	str	w4, [x3]
    204e6d80:	6b00005f 	cmp	w2, w0
    204e6d84:	54ffff81 	b.ne	204e6d74 <imx_pwr_domain_off+0x3c>  // b.any
    204e6d88:	52810180 	mov	w0, #0x80c                 	// #2060
    204e6d8c:	72a888e0 	movk	w0, #0x4447, lsl #16
    204e6d90:	0b000022 	add	w2, w1, w0
    204e6d94:	11001000 	add	w0, w0, #0x4
    204e6d98:	0b000021 	add	w1, w1, w0
    204e6d9c:	52800060 	mov	w0, #0x3                   	// #3
    204e6da0:	b9400043 	ldr	w3, [x2]
    204e6da4:	f9400bf3 	ldr	x19, [sp, #16]
    204e6da8:	121a7863 	and	w3, w3, #0xffffffdf
    204e6dac:	b9000043 	str	w3, [x2]
    204e6db0:	b9000020 	str	w0, [x1]
    204e6db4:	a8c27bfd 	ldp	x29, x30, [sp], #32
    204e6db8:	d65f03c0 	ret

00000000204e6dbc <arm_gicv3_distif_pre_save>:
    204e6dbc:	d65f03c0 	ret

00000000204e6dc0 <arm_gicv3_distif_post_restore>:
    204e6dc0:	d65f03c0 	ret

00000000204e6dc4 <peripheral_qchannel_hsk>:
    204e6dc4:	52900385 	mov	w5, #0x801c                	// #32796
    204e6dc8:	b0000021 	adrp	x1, 204eb000 <__RO_END_UNALIGNED__>
    204e6dcc:	72a888a5 	movk	w5, #0x4445, lsl #16
    204e6dd0:	52914008 	mov	w8, #0x8a00                	// #35328
    204e6dd4:	5298c80b 	mov	w11, #0xc640                	// #50752
    204e6dd8:	9111f021 	add	x1, x1, #0x47c
    204e6ddc:	12000000 	and	w0, w0, #0x1
    204e6de0:	110050a7 	add	w7, w5, #0x14
    204e6de4:	528001c4 	mov	w4, #0xe                   	// #14
    204e6de8:	72a01108 	movk	w8, #0x88, lsl #16
    204e6dec:	52800029 	mov	w9, #0x1                   	// #1
    204e6df0:	5280004a 	mov	w10, #0x2                   	// #2
    204e6df4:	72a2222b 	movk	w11, #0x1111, lsl #16
    204e6df8:	5280002c 	mov	w12, #0x1                   	// #1
    204e6dfc:	34000480 	cbz	w0, 204e6e8c <peripheral_qchannel_hsk+0xc8>
    204e6e00:	b9400822 	ldr	w2, [x1, #8]
    204e6e04:	340000e2 	cbz	w2, 204e6e20 <peripheral_qchannel_hsk+0x5c>
    204e6e08:	0b421563 	add	w3, w11, w2, lsr #5
    204e6e0c:	1ac22182 	lsl	w2, w12, w2
    204e6e10:	531e7463 	lsl	w3, w3, #2
    204e6e14:	b9400063 	ldr	w3, [x3]
    204e6e18:	6a03005f 	tst	w2, w3
    204e6e1c:	54000341 	b.ne	204e6e84 <peripheral_qchannel_hsk+0xc0>  // b.any
    204e6e20:	b9400422 	ldr	w2, [x1, #4]
    204e6e24:	39006029 	strb	w9, [x1, #24]
    204e6e28:	34000102 	cbz	w2, 204e6e48 <peripheral_qchannel_hsk+0x84>
    204e6e2c:	0b080042 	add	w2, w2, w8
    204e6e30:	53196042 	lsl	w2, w2, #7
    204e6e34:	b9400043 	ldr	w3, [x2]
    204e6e38:	b9000c23 	str	w3, [x1, #12]
    204e6e3c:	b9400043 	ldr	w3, [x2]
    204e6e40:	12077863 	and	w3, w3, #0xfeffffff
    204e6e44:	b9000043 	str	w3, [x2]
    204e6e48:	b9400022 	ldr	w2, [x1]
    204e6e4c:	0b0218e3 	add	w3, w7, w2, lsl #6
    204e6e50:	0b0218a2 	add	w2, w5, w2, lsl #6
    204e6e54:	b9400066 	ldr	w6, [x3]
    204e6e58:	b9001426 	str	w6, [x1, #20]
    204e6e5c:	b9400046 	ldr	w6, [x2]
    204e6e60:	b9001026 	str	w6, [x1, #16]
    204e6e64:	b9400066 	ldr	w6, [x3]
    204e6e68:	321e00c6 	orr	w6, w6, #0x4
    204e6e6c:	b9000066 	str	w6, [x3]
    204e6e70:	b900004a 	str	w10, [x2]
    204e6e74:	91007021 	add	x1, x1, #0x1c
    204e6e78:	71000484 	subs	w4, w4, #0x1
    204e6e7c:	54fffc01 	b.ne	204e6dfc <peripheral_qchannel_hsk+0x38>  // b.any
    204e6e80:	d65f03c0 	ret
    204e6e84:	3900603f 	strb	wzr, [x1, #24]
    204e6e88:	17fffffb 	b	204e6e74 <peripheral_qchannel_hsk+0xb0>
    204e6e8c:	39406022 	ldrb	w2, [x1, #24]
    204e6e90:	3607ff22 	tbz	w2, #0, 204e6e74 <peripheral_qchannel_hsk+0xb0>
    204e6e94:	b9400022 	ldr	w2, [x1]
    204e6e98:	b9401026 	ldr	w6, [x1, #16]
    204e6e9c:	0b0218a3 	add	w3, w5, w2, lsl #6
    204e6ea0:	0b0218e2 	add	w2, w7, w2, lsl #6
    204e6ea4:	b9000066 	str	w6, [x3]
    204e6ea8:	b9401423 	ldr	w3, [x1, #20]
    204e6eac:	b9000043 	str	w3, [x2]
    204e6eb0:	b9400422 	ldr	w2, [x1, #4]
    204e6eb4:	34fffe02 	cbz	w2, 204e6e74 <peripheral_qchannel_hsk+0xb0>
    204e6eb8:	0b080042 	add	w2, w2, w8
    204e6ebc:	b9400c23 	ldr	w3, [x1, #12]
    204e6ec0:	53196042 	lsl	w2, w2, #7
    204e6ec4:	b9000043 	str	w3, [x2]
    204e6ec8:	17ffffeb 	b	204e6e74 <peripheral_qchannel_hsk+0xb0>

00000000204e6ecc <pll_pwr_down>:
    204e6ecc:	d2820002 	mov	x2, #0x1000                	// #4096
    204e6ed0:	f2a88902 	movk	x2, #0x4448, lsl #16
    204e6ed4:	91040041 	add	x1, x2, #0x100
    204e6ed8:	360003c0 	tbz	w0, #0, 204e6f50 <pll_pwr_down+0x84>
    204e6edc:	b9400040 	ldr	w0, [x2]
    204e6ee0:	32100000 	orr	w0, w0, #0x10000
    204e6ee4:	b9000040 	str	w0, [x2]
    204e6ee8:	b9410040 	ldr	w0, [x2, #256]
    204e6eec:	32100000 	orr	w0, w0, #0x10000
    204e6ef0:	b9010040 	str	w0, [x2, #256]
    204e6ef4:	d28a6a02 	mov	x2, #0x5350                	// #21328
    204e6ef8:	b9407020 	ldr	w0, [x1, #112]
    204e6efc:	f2a888a2 	movk	x2, #0x4445, lsl #16
    204e6f00:	32100000 	orr	w0, w0, #0x10000
    204e6f04:	b9007020 	str	w0, [x1, #112]
    204e6f08:	b9409020 	ldr	w0, [x1, #144]
    204e6f0c:	32100000 	orr	w0, w0, #0x10000
    204e6f10:	b9009020 	str	w0, [x1, #144]
    204e6f14:	b940b020 	ldr	w0, [x1, #176]
    204e6f18:	32100000 	orr	w0, w0, #0x10000
    204e6f1c:	b900b020 	str	w0, [x1, #176]
    204e6f20:	d28a0a00 	mov	x0, #0x5050                	// #20560
    204e6f24:	f2a888a0 	movk	x0, #0x4445, lsl #16
    204e6f28:	b9400001 	ldr	w1, [x0]
    204e6f2c:	91010000 	add	x0, x0, #0x40
    204e6f30:	32140021 	orr	w1, w1, #0x1000
    204e6f34:	b81c0001 	stur	w1, [x0, #-64]
    204e6f38:	b85e0001 	ldur	w1, [x0, #-32]
    204e6f3c:	321e0021 	orr	w1, w1, #0x4
    204e6f40:	b81e0001 	stur	w1, [x0, #-32]
    204e6f44:	eb02001f 	cmp	x0, x2
    204e6f48:	54ffff01 	b.ne	204e6f28 <pll_pwr_down+0x5c>  // b.any
    204e6f4c:	d65f03c0 	ret
    204e6f50:	b9400040 	ldr	w0, [x2]
    204e6f54:	120f7800 	and	w0, w0, #0xfffeffff
    204e6f58:	b9000040 	str	w0, [x2]
    204e6f5c:	b9410040 	ldr	w0, [x2, #256]
    204e6f60:	120f7800 	and	w0, w0, #0xfffeffff
    204e6f64:	b9010040 	str	w0, [x2, #256]
    204e6f68:	d28a6e02 	mov	x2, #0x5370                	// #21360
    204e6f6c:	b9407020 	ldr	w0, [x1, #112]
    204e6f70:	f2a888a2 	movk	x2, #0x4445, lsl #16
    204e6f74:	120f7800 	and	w0, w0, #0xfffeffff
    204e6f78:	b9007020 	str	w0, [x1, #112]
    204e6f7c:	b9409020 	ldr	w0, [x1, #144]
    204e6f80:	120f7800 	and	w0, w0, #0xfffeffff
    204e6f84:	b9009020 	str	w0, [x1, #144]
    204e6f88:	b940b020 	ldr	w0, [x1, #176]
    204e6f8c:	120f7800 	and	w0, w0, #0xfffeffff
    204e6f90:	b900b020 	str	w0, [x1, #176]
    204e6f94:	d28a0e00 	mov	x0, #0x5070                	// #20592
    204e6f98:	f2a888a0 	movk	x0, #0x4445, lsl #16
    204e6f9c:	b9400001 	ldr	w1, [x0]
    204e6fa0:	121d7821 	and	w1, w1, #0xfffffffb
    204e6fa4:	b8040401 	str	w1, [x0], #64
    204e6fa8:	eb02001f 	cmp	x0, x2
    204e6fac:	54ffff81 	b.ne	204e6f9c <pll_pwr_down+0xd0>  // b.any
    204e6fb0:	17ffffe7 	b	204e6f4c <pll_pwr_down+0x80>

00000000204e6fb4 <s401_request_pwrdown>:
    204e6fb4:	d2804001 	mov	x1, #0x200                 	// #512
    204e6fb8:	528060c2 	mov	w2, #0x306                 	// #774
    204e6fbc:	f2a8ea41 	movk	x1, #0x4752, lsl #16
    204e6fc0:	aa0103e0 	mov	x0, x1
    204e6fc4:	72a2fa22 	movk	w2, #0x17d1, lsl #16
    204e6fc8:	b8004402 	str	w2, [x0], #4
    204e6fcc:	52880002 	mov	w2, #0x4000                	// #16384
    204e6fd0:	b9000422 	str	w2, [x1, #4]
    204e6fd4:	52a409c1 	mov	w1, #0x204e0000            	// #541982720
    204e6fd8:	d1036000 	sub	x0, x0, #0xd8
    204e6fdc:	b900dc01 	str	w1, [x0, #220]
    204e6fe0:	b9400001 	ldr	w1, [x0]
    204e6fe4:	12000421 	and	w1, w1, #0x3
    204e6fe8:	71000c3f 	cmp	w1, #0x3
    204e6fec:	54ffffa1 	b.ne	204e6fe0 <s401_request_pwrdown+0x2c>  // b.any
    204e6ff0:	b9415400 	ldr	w0, [x0, #340]
    204e6ff4:	d2805000 	mov	x0, #0x280                 	// #640
    204e6ff8:	f2a8ea40 	movk	x0, #0x4752, lsl #16
    204e6ffc:	b9400400 	ldr	w0, [x0, #4]
    204e7000:	d65f03c0 	ret

00000000204e7004 <imx_set_sys_wakeup>:
    204e7004:	a9bc7bfd 	stp	x29, x30, [sp, #-64]!
    204e7008:	d2810180 	mov	x0, #0x80c                 	// #2060
    204e700c:	d290a002 	mov	x2, #0x8500                	// #34048
    204e7010:	910003fd 	mov	x29, sp
    204e7014:	a90153f3 	stp	x19, x20, [sp, #16]
    204e7018:	f2a888e0 	movk	x0, #0x4447, lsl #16
    204e701c:	f2a888a2 	movk	x2, #0x4445, lsl #16
    204e7020:	a9025bf5 	stp	x21, x22, [sp, #32]
    204e7024:	a90363f7 	stp	x23, x24, [sp, #48]
    204e7028:	12000037 	and	w23, w1, #0x1
    204e702c:	360005c1 	tbz	w1, #0, 204e70e4 <imx_set_sys_wakeup+0xe0>
    204e7030:	b9400001 	ldr	w1, [x0]
    204e7034:	121a7821 	and	w1, w1, #0xffffffdf
    204e7038:	b9000001 	str	w1, [x0]
    204e703c:	b9500001 	ldr	w1, [x0, #4096]
    204e7040:	121a7821 	and	w1, w1, #0xffffffdf
    204e7044:	b9100001 	str	w1, [x0, #4096]
    204e7048:	d2802201 	mov	x1, #0x110                 	// #272
    204e704c:	52800020 	mov	w0, #0x1                   	// #1
    204e7050:	f2a88461 	movk	x1, #0x4423, lsl #16
    204e7054:	b9000040 	str	w0, [x2]
    204e7058:	b9400020 	ldr	w0, [x1]
    204e705c:	321f0000 	orr	w0, w0, #0x2
    204e7060:	b9000020 	str	w0, [x1]
    204e7064:	d2812014 	mov	x20, #0x900                 	// #2304
    204e7068:	d0000015 	adrp	x21, 204e9000 <flush_continue>
    204e706c:	b0000056 	adrp	x22, 204f0000 <imx_gicv3_ctx+0x26d0>
    204e7070:	913f52b5 	add	x21, x21, #0xfd4
    204e7074:	910c02d6 	add	x22, x22, #0x300
    204e7078:	f2a888f4 	movk	x20, #0x4447, lsl #16
    204e707c:	d2800013 	mov	x19, #0x0                   	// #0
    204e7080:	52800038 	mov	w24, #0x1                   	// #1
    204e7084:	34000537 	cbz	w23, 204e7128 <imx_set_sys_wakeup+0x124>
    204e7088:	11000661 	add	w1, w19, #0x1
    204e708c:	d2a90000 	mov	x0, #0x48000000            	// #1207959552
    204e7090:	531b6821 	lsl	w1, w1, #5
    204e7094:	97ffe778 	bl	204e0e74 <gicd_read_isenabler>
    204e7098:	2a2003e0 	mvn	w0, w0
    204e709c:	f1001a7f 	cmp	x19, #0x6
    204e70a0:	54000041 	b.ne	204e70a8 <imx_set_sys_wakeup+0xa4>  // b.any
    204e70a4:	12037800 	and	w0, w0, #0xefffffff
    204e70a8:	b8737aa1 	ldr	w1, [x21, x19, lsl #2]
    204e70ac:	6a20003f 	bics	wzr, w1, w0
    204e70b0:	54000040 	b.eq	204e70b8 <imx_set_sys_wakeup+0xb4>  // b.none
    204e70b4:	390002d8 	strb	w24, [x22]
    204e70b8:	b9000280 	str	w0, [x20]
    204e70bc:	91000673 	add	x19, x19, #0x1
    204e70c0:	b9100280 	str	w0, [x20, #4096]
    204e70c4:	91001294 	add	x20, x20, #0x4
    204e70c8:	f100227f 	cmp	x19, #0x8
    204e70cc:	54fffdc1 	b.ne	204e7084 <imx_set_sys_wakeup+0x80>  // b.any
    204e70d0:	a94153f3 	ldp	x19, x20, [sp, #16]
    204e70d4:	a9425bf5 	ldp	x21, x22, [sp, #32]
    204e70d8:	a94363f7 	ldp	x23, x24, [sp, #48]
    204e70dc:	a8c47bfd 	ldp	x29, x30, [sp], #64
    204e70e0:	d65f03c0 	ret
    204e70e4:	b9400001 	ldr	w1, [x0]
    204e70e8:	321b0021 	orr	w1, w1, #0x20
    204e70ec:	b9000001 	str	w1, [x0]
    204e70f0:	b9500001 	ldr	w1, [x0, #4096]
    204e70f4:	321b0021 	orr	w1, w1, #0x20
    204e70f8:	b9100001 	str	w1, [x0, #4096]
    204e70fc:	d2802201 	mov	x1, #0x110                 	// #272
    204e7100:	52800020 	mov	w0, #0x1                   	// #1
    204e7104:	f2a88461 	movk	x1, #0x4423, lsl #16
    204e7108:	b9000040 	str	w0, [x2]
    204e710c:	b9400020 	ldr	w0, [x1]
    204e7110:	121e7800 	and	w0, w0, #0xfffffffd
    204e7114:	b9000020 	str	w0, [x1]
    204e7118:	b9400820 	ldr	w0, [x1, #8]
    204e711c:	321f0000 	orr	w0, w0, #0x2
    204e7120:	b9000820 	str	w0, [x1, #8]
    204e7124:	17ffffd0 	b	204e7064 <imx_set_sys_wakeup+0x60>
    204e7128:	12800000 	mov	w0, #0xffffffff            	// #-1
    204e712c:	17ffffdf 	b	204e70a8 <imx_set_sys_wakeup+0xa4>

00000000204e7130 <nicmix_qos_init>:
    204e7130:	d2800202 	mov	x2, #0x10                  	// #16
    204e7134:	52800881 	mov	w1, #0x44                  	// #68
    204e7138:	f2a92002 	movk	x2, #0x4900, lsl #16
    204e713c:	aa0203e0 	mov	x0, x2
    204e7140:	b8004401 	str	w1, [x0], #4
    204e7144:	52800661 	mov	w1, #0x33                  	// #51
    204e7148:	72a00661 	movk	w1, #0x33, lsl #16
    204e714c:	b9000441 	str	w1, [x2, #4]
    204e7150:	b9000401 	str	w1, [x0, #4]
    204e7154:	b9000801 	str	w1, [x0, #8]
    204e7158:	52800881 	mov	w1, #0x44                  	// #68
    204e715c:	72a00881 	movk	w1, #0x44, lsl #16
    204e7160:	b9000c01 	str	w1, [x0, #12]
    204e7164:	d65f03c0 	ret

00000000204e7168 <wakeupmix_qos_init>:
    204e7168:	d28c2002 	mov	x2, #0x6100                	// #24832
    204e716c:	52800080 	mov	w0, #0x4                   	// #4
    204e7170:	f2a85082 	movk	x2, #0x4284, lsl #16
    204e7174:	aa0203e1 	mov	x1, x2
    204e7178:	b8004420 	str	w0, [x1], #4
    204e717c:	b9000440 	str	w0, [x2, #4]
    204e7180:	b90ffc20 	str	w0, [x1, #4092]
    204e7184:	b9100440 	str	w0, [x2, #4100]
    204e7188:	d1401042 	sub	x2, x2, #0x4, lsl #12
    204e718c:	b9000040 	str	w0, [x2]
    204e7190:	d1401022 	sub	x2, x1, #0x4, lsl #12
    204e7194:	b9000040 	str	w0, [x2]
    204e7198:	d2862002 	mov	x2, #0x3100                	// #12544
    204e719c:	f2a85082 	movk	x2, #0x4284, lsl #16
    204e71a0:	b9000040 	str	w0, [x2]
    204e71a4:	d1400c22 	sub	x2, x1, #0x3, lsl #12
    204e71a8:	d1400421 	sub	x1, x1, #0x1, lsl #12
    204e71ac:	b9000040 	str	w0, [x2]
    204e71b0:	d28a2002 	mov	x2, #0x5100                	// #20736
    204e71b4:	f2a85082 	movk	x2, #0x4284, lsl #16
    204e71b8:	b9000040 	str	w0, [x2]
    204e71bc:	b9000020 	str	w0, [x1]
    204e71c0:	d28e2001 	mov	x1, #0x7100                	// #28928
    204e71c4:	f2a87281 	movk	x1, #0x4394, lsl #16
    204e71c8:	d1400821 	sub	x1, x1, #0x2, lsl #12
    204e71cc:	b9200020 	str	w0, [x1, #8192]
    204e71d0:	b9200420 	str	w0, [x1, #8196]
    204e71d4:	b9000020 	str	w0, [x1]
    204e71d8:	b9000420 	str	w0, [x1, #4]
    204e71dc:	d65f03c0 	ret

00000000204e71e0 <nicmix_pwr_down>:
    204e71e0:	d2802202 	mov	x2, #0x110                 	// #272
    204e71e4:	a9be7bfd 	stp	x29, x30, [sp, #-32]!
    204e71e8:	f2a889e2 	movk	x2, #0x444f, lsl #16
    204e71ec:	910003fd 	mov	x29, sp
    204e71f0:	b9400041 	ldr	w1, [x2]
    204e71f4:	d2807004 	mov	x4, #0x380                 	// #896
    204e71f8:	f9000bf3 	str	x19, [sp, #16]
    204e71fc:	f2a888a4 	movk	x4, #0x4445, lsl #16
    204e7200:	32150021 	orr	w1, w1, #0x800
    204e7204:	b9000041 	str	w1, [x2]
    204e7208:	b0000041 	adrp	x1, 204f0000 <imx_gicv3_ctx+0x26d0>
    204e720c:	91098021 	add	x1, x1, #0x260
    204e7210:	b9400082 	ldr	w2, [x4]
    204e7214:	d283d003 	mov	x3, #0x1e80                	// #7808
    204e7218:	f2a888a3 	movk	x3, #0x4445, lsl #16
    204e721c:	2a0003f3 	mov	w19, w0
    204e7220:	b9000422 	str	w2, [x1, #4]
    204e7224:	b9400062 	ldr	w2, [x3]
    204e7228:	b9000822 	str	w2, [x1, #8]
    204e722c:	d2841002 	mov	x2, #0x2080                	// #8320
    204e7230:	f2a888a2 	movk	x2, #0x4445, lsl #16
    204e7234:	b9400045 	ldr	w5, [x2]
    204e7238:	b9000c25 	str	w5, [x1, #12]
    204e723c:	b9400081 	ldr	w1, [x4]
    204e7240:	12167421 	and	w1, w1, #0xfffffcff
    204e7244:	b9000081 	str	w1, [x4]
    204e7248:	b9400061 	ldr	w1, [x3]
    204e724c:	12167421 	and	w1, w1, #0xfffffcff
    204e7250:	b9000061 	str	w1, [x3]
    204e7254:	b9400041 	ldr	w1, [x2]
    204e7258:	12167421 	and	w1, w1, #0xfffffcff
    204e725c:	b9000041 	str	w1, [x2]
    204e7260:	d2838282 	mov	x2, #0x1c14                	// #7188
    204e7264:	f2a888c2 	movk	x2, #0x4446, lsl #16
    204e7268:	b9400041 	ldr	w1, [x2]
    204e726c:	12117021 	and	w1, w1, #0xffff8fff
    204e7270:	32140021 	orr	w1, w1, #0x1000
    204e7274:	b9000041 	str	w1, [x2]
    204e7278:	d2838081 	mov	x1, #0x1c04                	// #7172
    204e727c:	52800082 	mov	w2, #0x4                   	// #4
    204e7280:	f2a888c1 	movk	x1, #0x4446, lsl #16
    204e7284:	72a00102 	movk	w2, #0x8, lsl #16
    204e7288:	b9000022 	str	w2, [x1]
    204e728c:	d2898082 	mov	x2, #0x4c04                	// #19460
    204e7290:	f2a888c2 	movk	x2, #0x4446, lsl #16
    204e7294:	b9400041 	ldr	w1, [x2]
    204e7298:	321e0021 	orr	w1, w1, #0x4
    204e729c:	b9000041 	str	w1, [x2]
    204e72a0:	b9440041 	ldr	w1, [x2, #1024]
    204e72a4:	321f0421 	orr	w1, w1, #0x6
    204e72a8:	b9040041 	str	w1, [x2, #1024]
    204e72ac:	d0000021 	adrp	x1, 204ed000 <__STACKS_START__+0x1280>
    204e72b0:	9124c021 	add	x1, x1, #0x930
    204e72b4:	97fff81e 	bl	204e532c <plat_gic_save>
    204e72b8:	2a1303e0 	mov	w0, w19
    204e72bc:	52800021 	mov	w1, #0x1                   	// #1
    204e72c0:	f9400bf3 	ldr	x19, [sp, #16]
    204e72c4:	a8c27bfd 	ldp	x29, x30, [sp], #32
    204e72c8:	17ffff4f 	b	204e7004 <imx_set_sys_wakeup>

00000000204e72cc <nicmix_pwr_up>:
    204e72cc:	a9be7bfd 	stp	x29, x30, [sp, #-32]!
    204e72d0:	d2807002 	mov	x2, #0x380                 	// #896
    204e72d4:	b0000041 	adrp	x1, 204f0000 <imx_gicv3_ctx+0x26d0>
    204e72d8:	91098021 	add	x1, x1, #0x260
    204e72dc:	f2a888a2 	movk	x2, #0x4445, lsl #16
    204e72e0:	910003fd 	mov	x29, sp
    204e72e4:	b9400043 	ldr	w3, [x2]
    204e72e8:	f9000bf3 	str	x19, [sp, #16]
    204e72ec:	2a0003f3 	mov	w19, w0
    204e72f0:	b9400420 	ldr	w0, [x1, #4]
    204e72f4:	12180400 	and	w0, w0, #0x300
    204e72f8:	2a030000 	orr	w0, w0, w3
    204e72fc:	b9000040 	str	w0, [x2]
    204e7300:	d283d000 	mov	x0, #0x1e80                	// #7808
    204e7304:	f2a888a0 	movk	x0, #0x4445, lsl #16
    204e7308:	b9400822 	ldr	w2, [x1, #8]
    204e730c:	b9400003 	ldr	w3, [x0]
    204e7310:	12180442 	and	w2, w2, #0x300
    204e7314:	2a030042 	orr	w2, w2, w3
    204e7318:	b9000002 	str	w2, [x0]
    204e731c:	b9400c21 	ldr	w1, [x1, #12]
    204e7320:	b9420002 	ldr	w2, [x0, #512]
    204e7324:	12180421 	and	w1, w1, #0x300
    204e7328:	2a020021 	orr	w1, w1, w2
    204e732c:	b9020001 	str	w1, [x0, #512]
    204e7330:	d2838280 	mov	x0, #0x1c14                	// #7188
    204e7334:	f2a888c0 	movk	x0, #0x4446, lsl #16
    204e7338:	b9400001 	ldr	w1, [x0]
    204e733c:	12117021 	and	w1, w1, #0xffff8fff
    204e7340:	32140421 	orr	w1, w1, #0x3000
    204e7344:	b9000001 	str	w1, [x0]
    204e7348:	d2838081 	mov	x1, #0x1c04                	// #7172
    204e734c:	f2a888c1 	movk	x1, #0x4446, lsl #16
    204e7350:	b9400020 	ldr	w0, [x1]
    204e7354:	121d7800 	and	w0, w0, #0xfffffffb
    204e7358:	b9000020 	str	w0, [x1]
    204e735c:	940003d9 	bl	204e82c0 <trdc_n_reinit>
    204e7360:	97ffff74 	bl	204e7130 <nicmix_qos_init>
    204e7364:	2a1303e0 	mov	w0, w19
    204e7368:	d0000021 	adrp	x1, 204ed000 <__STACKS_START__+0x1280>
    204e736c:	9124c021 	add	x1, x1, #0x930
    204e7370:	97fff7fc 	bl	204e5360 <plat_gic_restore>
    204e7374:	2a1303e0 	mov	w0, w19
    204e7378:	52800001 	mov	w1, #0x0                   	// #0
    204e737c:	f9400bf3 	ldr	x19, [sp, #16]
    204e7380:	a8c27bfd 	ldp	x29, x30, [sp], #32
    204e7384:	17ffff20 	b	204e7004 <imx_set_sys_wakeup>

00000000204e7388 <set_gpio_secure>:
    204e7388:	a9be7bfd 	stp	x29, x30, [sp, #-32]!
    204e738c:	52800006 	mov	w6, #0x0                   	// #0
    204e7390:	52800004 	mov	w4, #0x0                   	// #0
    204e7394:	910003fd 	mov	x29, sp
    204e7398:	f9000bf3 	str	x19, [sp, #16]
    204e739c:	12001c13 	and	w19, w0, #0xff
    204e73a0:	2a1303e5 	mov	w5, w19
    204e73a4:	52800023 	mov	w3, #0x1                   	// #1
    204e73a8:	52800062 	mov	w2, #0x3                   	// #3
    204e73ac:	52800001 	mov	w1, #0x0                   	// #0
    204e73b0:	d2a848c0 	mov	x0, #0x42460000            	// #1111883776
    204e73b4:	97ffeb6e 	bl	204e216c <trdc_mbc_blk_config>
    204e73b8:	2a1303e5 	mov	w5, w19
    204e73bc:	52800006 	mov	w6, #0x0                   	// #0
    204e73c0:	52800004 	mov	w4, #0x0                   	// #0
    204e73c4:	52800043 	mov	w3, #0x2                   	// #2
    204e73c8:	52800062 	mov	w2, #0x3                   	// #3
    204e73cc:	52800001 	mov	w1, #0x0                   	// #0
    204e73d0:	d2a848c0 	mov	x0, #0x42460000            	// #1111883776
    204e73d4:	97ffeb66 	bl	204e216c <trdc_mbc_blk_config>
    204e73d8:	2a1303e5 	mov	w5, w19
    204e73dc:	52800063 	mov	w3, #0x3                   	// #3
    204e73e0:	f9400bf3 	ldr	x19, [sp, #16]
    204e73e4:	2a0303e2 	mov	w2, w3
    204e73e8:	a8c27bfd 	ldp	x29, x30, [sp], #32
    204e73ec:	52800006 	mov	w6, #0x0                   	// #0
    204e73f0:	52800004 	mov	w4, #0x0                   	// #0
    204e73f4:	52800021 	mov	w1, #0x1                   	// #1
    204e73f8:	d2a848c0 	mov	x0, #0x42460000            	// #1111883776
    204e73fc:	17ffeb5c 	b	204e216c <trdc_mbc_blk_config>

00000000204e7400 <gpio_save>:
    204e7400:	a9be7bfd 	stp	x29, x30, [sp, #-32]!
    204e7404:	910003fd 	mov	x29, sp
    204e7408:	a90153f3 	stp	x19, x20, [sp, #16]
    204e740c:	aa0003f3 	mov	x19, x0
    204e7410:	2a0103f4 	mov	w20, w1
    204e7414:	52800020 	mov	w0, #0x1                   	// #1
    204e7418:	97ffffdc 	bl	204e7388 <set_gpio_secure>
    204e741c:	d0000001 	adrp	x1, 204e9000 <flush_continue>
    204e7420:	91002260 	add	x0, x19, #0x8
    204e7424:	913ed021 	add	x1, x1, #0xfb4
    204e7428:	52800004 	mov	w4, #0x0                   	// #0
    204e742c:	52800005 	mov	w5, #0x0                   	// #0
    204e7430:	52800028 	mov	w8, #0x1                   	// #1
    204e7434:	6b05029f 	cmp	w20, w5
    204e7438:	54000121 	b.ne	204e745c <gpio_save+0x5c>  // b.any
    204e743c:	36000084 	tbz	w4, #0, 204e744c <gpio_save+0x4c>
    204e7440:	b0000040 	adrp	x0, 204f0000 <imx_gicv3_ctx+0x26d0>
    204e7444:	52800021 	mov	w1, #0x1                   	// #1
    204e7448:	390c0401 	strb	w1, [x0, #769]
    204e744c:	a94153f3 	ldp	x19, x20, [sp, #16]
    204e7450:	52800000 	mov	w0, #0x0                   	// #0
    204e7454:	a8c27bfd 	ldp	x29, x30, [sp], #32
    204e7458:	17ffffcc 	b	204e7388 <set_gpio_secure>
    204e745c:	f85f8002 	ldur	x2, [x0, #-8]
    204e7460:	d2800003 	mov	x3, #0x0                   	// #0
    204e7464:	b8637826 	ldr	w6, [x1, x3, lsl #2]
    204e7468:	f1000c7f 	cmp	x3, #0x3
    204e746c:	91000467 	add	x7, x3, #0x1
    204e7470:	540000c8 	b.hi	204e7488 <gpio_save+0x88>  // b.pmore
    204e7474:	b8666849 	ldr	w9, [x2, x6]
    204e7478:	b8237809 	str	w9, [x0, x3, lsl #2]
    204e747c:	aa0703e3 	mov	x3, x7
    204e7480:	b826685f 	str	wzr, [x2, x6]
    204e7484:	17fffff8 	b	204e7464 <gpio_save+0x64>
    204e7488:	b8666846 	ldr	w6, [x2, x6]
    204e748c:	b8237806 	str	w6, [x0, x3, lsl #2]
    204e7490:	aa0703e3 	mov	x3, x7
    204e7494:	f10020ff 	cmp	x7, #0x8
    204e7498:	54fffe61 	b.ne	204e7464 <gpio_save+0x64>  // b.any
    204e749c:	b9402007 	ldr	w7, [x0, #32]
    204e74a0:	91020049 	add	x9, x2, #0x80
    204e74a4:	9100900a 	add	x10, x0, #0x24
    204e74a8:	d2800003 	mov	x3, #0x0                   	// #0
    204e74ac:	6b0300ff 	cmp	w7, w3
    204e74b0:	54000188 	b.hi	204e74e0 <gpio_save+0xe0>  // b.pmore
    204e74b4:	b9400003 	ldr	w3, [x0]
    204e74b8:	110004a5 	add	w5, w5, #0x1
    204e74bc:	b9000c43 	str	w3, [x2, #12]
    204e74c0:	9102c000 	add	x0, x0, #0xb0
    204e74c4:	b8554003 	ldur	w3, [x0, #-172]
    204e74c8:	b9001043 	str	w3, [x2, #16]
    204e74cc:	b8558003 	ldur	w3, [x0, #-168]
    204e74d0:	b9001443 	str	w3, [x2, #20]
    204e74d4:	b855c003 	ldur	w3, [x0, #-164]
    204e74d8:	b9001843 	str	w3, [x2, #24]
    204e74dc:	17ffffd6 	b	204e7434 <gpio_save+0x34>
    204e74e0:	531e7466 	lsl	w6, w3, #2
    204e74e4:	b8666926 	ldr	w6, [x9, x6]
    204e74e8:	b8237946 	str	w6, [x10, x3, lsl #2]
    204e74ec:	91000463 	add	x3, x3, #0x1
    204e74f0:	710000df 	cmp	w6, #0x0
    204e74f4:	1a880084 	csel	w4, w4, w8, eq	// eq = none
    204e74f8:	17ffffed 	b	204e74ac <gpio_save+0xac>

00000000204e74fc <gpio_restore>:
    204e74fc:	a9be7bfd 	stp	x29, x30, [sp, #-32]!
    204e7500:	910003fd 	mov	x29, sp
    204e7504:	a90153f3 	stp	x19, x20, [sp, #16]
    204e7508:	aa0003f3 	mov	x19, x0
    204e750c:	2a0103f4 	mov	w20, w1
    204e7510:	52800020 	mov	w0, #0x1                   	// #1
    204e7514:	97ffff9d 	bl	204e7388 <set_gpio_secure>
    204e7518:	52800003 	mov	w3, #0x0                   	// #0
    204e751c:	6b14007f 	cmp	w3, w20
    204e7520:	54000400 	b.eq	204e75a0 <gpio_restore+0xa4>  // b.none
    204e7524:	f9400260 	ldr	x0, [x19]
    204e7528:	52800002 	mov	w2, #0x0                   	// #0
    204e752c:	91020001 	add	x1, x0, #0x80
    204e7530:	14000006 	b	204e7548 <gpio_restore+0x4c>
    204e7534:	8b224a64 	add	x4, x19, w2, uxtw #2
    204e7538:	b9402c85 	ldr	w5, [x4, #44]
    204e753c:	531e7444 	lsl	w4, w2, #2
    204e7540:	11000442 	add	w2, w2, #0x1
    204e7544:	b8216885 	str	w5, [x4, x1]
    204e7548:	b9402a64 	ldr	w4, [x19, #40]
    204e754c:	6b02009f 	cmp	w4, w2
    204e7550:	54ffff28 	b.hi	204e7534 <gpio_restore+0x38>  // b.pmore
    204e7554:	b9401a61 	ldr	w1, [x19, #24]
    204e7558:	11000463 	add	w3, w3, #0x1
    204e755c:	b9001c01 	str	w1, [x0, #28]
    204e7560:	9102c273 	add	x19, x19, #0xb0
    204e7564:	b856c261 	ldur	w1, [x19, #-148]
    204e7568:	b9004001 	str	w1, [x0, #64]
    204e756c:	b8570261 	ldur	w1, [x19, #-144]
    204e7570:	b9005401 	str	w1, [x0, #84]
    204e7574:	b8574261 	ldur	w1, [x19, #-140]
    204e7578:	b9005801 	str	w1, [x0, #88]
    204e757c:	b8558261 	ldur	w1, [x19, #-168]
    204e7580:	b9000c01 	str	w1, [x0, #12]
    204e7584:	b855c261 	ldur	w1, [x19, #-164]
    204e7588:	b9001001 	str	w1, [x0, #16]
    204e758c:	b8560261 	ldur	w1, [x19, #-160]
    204e7590:	b9001401 	str	w1, [x0, #20]
    204e7594:	b8564261 	ldur	w1, [x19, #-156]
    204e7598:	b9001801 	str	w1, [x0, #24]
    204e759c:	17ffffe0 	b	204e751c <gpio_restore+0x20>
    204e75a0:	a94153f3 	ldp	x19, x20, [sp, #16]
    204e75a4:	52800000 	mov	w0, #0x0                   	// #0
    204e75a8:	a8c27bfd 	ldp	x29, x30, [sp], #32
    204e75ac:	17ffff77 	b	204e7388 <set_gpio_secure>

00000000204e75b0 <wdog_save>:
    204e75b0:	5282c1c2 	mov	w2, #0x160e                	// #5646
    204e75b4:	52800023 	mov	w3, #0x1                   	// #1
    204e75b8:	72a02222 	movk	w2, #0x111, lsl #16
    204e75bc:	0b020022 	add	w2, w1, w2
    204e75c0:	d37d7c21 	ubfiz	x1, x1, #3, #32
    204e75c4:	531a6442 	lsl	w2, w2, #6
    204e75c8:	b9000043 	str	w3, [x2]
    204e75cc:	b0000043 	adrp	x3, 204f0000 <imx_gicv3_ctx+0x26d0>
    204e75d0:	91092063 	add	x3, x3, #0x248
    204e75d4:	8b010064 	add	x4, x3, x1
    204e75d8:	b9400005 	ldr	w5, [x0]
    204e75dc:	b9400800 	ldr	w0, [x0, #8]
    204e75e0:	b8216865 	str	w5, [x3, x1]
    204e75e4:	b900005f 	str	wzr, [x2]
    204e75e8:	b9000480 	str	w0, [x4, #4]
    204e75ec:	d65f03c0 	ret

00000000204e75f0 <wdog_restore>:
    204e75f0:	5282c1c2 	mov	w2, #0x160e                	// #5646
    204e75f4:	52800023 	mov	w3, #0x1                   	// #1
    204e75f8:	72a02222 	movk	w2, #0x111, lsl #16
    204e75fc:	0b020022 	add	w2, w1, w2
    204e7600:	d37d7c21 	ubfiz	x1, x1, #3, #32
    204e7604:	531a6442 	lsl	w2, w2, #6
    204e7608:	b9000043 	str	w3, [x2]
    204e760c:	b0000043 	adrp	x3, 204f0000 <imx_gicv3_ctx+0x26d0>
    204e7610:	91092063 	add	x3, x3, #0x248
    204e7614:	8b010066 	add	x6, x3, x1
    204e7618:	b9400005 	ldr	w5, [x0]
    204e761c:	b9400804 	ldr	w4, [x0, #8]
    204e7620:	b8616863 	ldr	w3, [x3, x1]
    204e7624:	b94004c1 	ldr	w1, [x6, #4]
    204e7628:	6b05007f 	cmp	w3, w5
    204e762c:	54000061 	b.ne	204e7638 <wdog_restore+0x48>  // b.any
    204e7630:	6b04003f 	cmp	w1, w4
    204e7634:	54000100 	b.eq	204e7654 <wdog_restore+0x64>  // b.none
    204e7638:	b9000003 	str	w3, [x0]
    204e763c:	b9000801 	str	w1, [x0, #8]
    204e7640:	b9400001 	ldr	w1, [x0]
    204e7644:	375fffe1 	tbnz	w1, #11, 204e7640 <wdog_restore+0x50>
    204e7648:	b9400001 	ldr	w1, [x0]
    204e764c:	3657ffe1 	tbz	w1, #10, 204e7648 <wdog_restore+0x58>
    204e7650:	b900005f 	str	wzr, [x2]
    204e7654:	d65f03c0 	ret

00000000204e7658 <wakeupmix_pwr_down>:
    204e7658:	a9bf7bfd 	stp	x29, x30, [sp, #-16]!
    204e765c:	52800001 	mov	w1, #0x0                   	// #0
    204e7660:	d2a84920 	mov	x0, #0x42490000            	// #1112080384
    204e7664:	910003fd 	mov	x29, sp
    204e7668:	97ffffd2 	bl	204e75b0 <wdog_save>
    204e766c:	52800021 	mov	w1, #0x1                   	// #1
    204e7670:	d2a84940 	mov	x0, #0x424a0000            	// #1112145920
    204e7674:	97ffffcf 	bl	204e75b0 <wdog_save>
    204e7678:	52800041 	mov	w1, #0x2                   	// #2
    204e767c:	d2a84960 	mov	x0, #0x424b0000            	// #1112211456
    204e7680:	97ffffcc 	bl	204e75b0 <wdog_save>
    204e7684:	52800061 	mov	w1, #0x3                   	// #3
    204e7688:	90000020 	adrp	x0, 204eb000 <__RO_END_UNALIGNED__>
    204e768c:	91018000 	add	x0, x0, #0x60
    204e7690:	97ffff5c 	bl	204e7400 <gpio_save>
    204e7694:	b0000040 	adrp	x0, 204f0000 <imx_gicv3_ctx+0x26d0>
    204e7698:	394c0400 	ldrb	w0, [x0, #769]
    204e769c:	37000460 	tbnz	w0, #0, 204e7728 <wakeupmix_pwr_down+0xd0>
    204e76a0:	b0000040 	adrp	x0, 204f0000 <imx_gicv3_ctx+0x26d0>
    204e76a4:	394c0000 	ldrb	w0, [x0, #768]
    204e76a8:	37000400 	tbnz	w0, #0, 204e7728 <wakeupmix_pwr_down+0xd0>
    204e76ac:	d2803000 	mov	x0, #0x180                 	// #384
    204e76b0:	b0000041 	adrp	x1, 204f0000 <imx_gicv3_ctx+0x26d0>
    204e76b4:	f2a888a0 	movk	x0, #0x4445, lsl #16
    204e76b8:	b9400002 	ldr	w2, [x0]
    204e76bc:	b9026022 	str	w2, [x1, #608]
    204e76c0:	b9400001 	ldr	w1, [x0]
    204e76c4:	12167421 	and	w1, w1, #0xfffffcff
    204e76c8:	b9000001 	str	w1, [x0]
    204e76cc:	d2818281 	mov	x1, #0xc14                 	// #3092
    204e76d0:	f2a888c1 	movk	x1, #0x4446, lsl #16
    204e76d4:	b9400020 	ldr	w0, [x1]
    204e76d8:	12117000 	and	w0, w0, #0xffff8fff
    204e76dc:	32140000 	orr	w0, w0, #0x1000
    204e76e0:	b9000020 	str	w0, [x1]
    204e76e4:	d2800c00 	mov	x0, #0x60                  	// #96
    204e76e8:	f2a889e0 	movk	x0, #0x444f, lsl #16
    204e76ec:	b9400000 	ldr	w0, [x0]
    204e76f0:	36100200 	tbz	w0, #2, 204e7730 <wakeupmix_pwr_down+0xd8>
    204e76f4:	52800080 	mov	w0, #0x4                   	// #4
    204e76f8:	72a00100 	movk	w0, #0x8, lsl #16
    204e76fc:	b81f0020 	stur	w0, [x1, #-16]
    204e7700:	d2878081 	mov	x1, #0x3c04                	// #15364
    204e7704:	f2a888c1 	movk	x1, #0x4446, lsl #16
    204e7708:	b9400020 	ldr	w0, [x1]
    204e770c:	321e0000 	orr	w0, w0, #0x4
    204e7710:	b9000020 	str	w0, [x1]
    204e7714:	d2802201 	mov	x1, #0x110                 	// #272
    204e7718:	f2a889e1 	movk	x1, #0x444f, lsl #16
    204e771c:	b9400020 	ldr	w0, [x1]
    204e7720:	32170000 	orr	w0, w0, #0x200
    204e7724:	b9000020 	str	w0, [x1]
    204e7728:	a8c17bfd 	ldp	x29, x30, [sp], #16
    204e772c:	d65f03c0 	ret
    204e7730:	52800080 	mov	w0, #0x4                   	// #4
    204e7734:	72a00180 	movk	w0, #0xc, lsl #16
    204e7738:	17fffff1 	b	204e76fc <wakeupmix_pwr_down+0xa4>

00000000204e773c <wakeupmix_pwr_up>:
    204e773c:	a9be7bfd 	stp	x29, x30, [sp, #-32]!
    204e7740:	910003fd 	mov	x29, sp
    204e7744:	a90153f3 	stp	x19, x20, [sp, #16]
    204e7748:	b0000053 	adrp	x19, 204f0000 <imx_gicv3_ctx+0x26d0>
    204e774c:	b0000054 	adrp	x20, 204f0000 <imx_gicv3_ctx+0x26d0>
    204e7750:	394c0660 	ldrb	w0, [x19, #769]
    204e7754:	37000460 	tbnz	w0, #0, 204e77e0 <wakeupmix_pwr_up+0xa4>
    204e7758:	394c0280 	ldrb	w0, [x20, #768]
    204e775c:	37000420 	tbnz	w0, #0, 204e77e0 <wakeupmix_pwr_up+0xa4>
    204e7760:	d2803001 	mov	x1, #0x180                 	// #384
    204e7764:	b0000040 	adrp	x0, 204f0000 <imx_gicv3_ctx+0x26d0>
    204e7768:	f2a888a1 	movk	x1, #0x4445, lsl #16
    204e776c:	b9426000 	ldr	w0, [x0, #608]
    204e7770:	b9400022 	ldr	w2, [x1]
    204e7774:	12180400 	and	w0, w0, #0x300
    204e7778:	2a020000 	orr	w0, w0, w2
    204e777c:	b9000020 	str	w0, [x1]
    204e7780:	d2818281 	mov	x1, #0xc14                 	// #3092
    204e7784:	f2a888c1 	movk	x1, #0x4446, lsl #16
    204e7788:	b9400020 	ldr	w0, [x1]
    204e778c:	12117000 	and	w0, w0, #0xffff8fff
    204e7790:	32140400 	orr	w0, w0, #0x3000
    204e7794:	b9000020 	str	w0, [x1]
    204e7798:	b85f0020 	ldur	w0, [x1, #-16]
    204e779c:	121d7800 	and	w0, w0, #0xfffffffb
    204e77a0:	b81f0020 	stur	w0, [x1, #-16]
    204e77a4:	940002a9 	bl	204e8248 <trdc_w_reinit>
    204e77a8:	97fffe70 	bl	204e7168 <wakeupmix_qos_init>
    204e77ac:	52800061 	mov	w1, #0x3                   	// #3
    204e77b0:	90000020 	adrp	x0, 204eb000 <__RO_END_UNALIGNED__>
    204e77b4:	91018000 	add	x0, x0, #0x60
    204e77b8:	97ffff51 	bl	204e74fc <gpio_restore>
    204e77bc:	52800001 	mov	w1, #0x0                   	// #0
    204e77c0:	d2a84920 	mov	x0, #0x42490000            	// #1112080384
    204e77c4:	97ffff8b 	bl	204e75f0 <wdog_restore>
    204e77c8:	d2a84940 	mov	x0, #0x424a0000            	// #1112145920
    204e77cc:	52800021 	mov	w1, #0x1                   	// #1
    204e77d0:	97ffff88 	bl	204e75f0 <wdog_restore>
    204e77d4:	52800041 	mov	w1, #0x2                   	// #2
    204e77d8:	d2a84960 	mov	x0, #0x424b0000            	// #1112211456
    204e77dc:	97ffff85 	bl	204e75f0 <wdog_restore>
    204e77e0:	390c029f 	strb	wzr, [x20, #768]
    204e77e4:	390c067f 	strb	wzr, [x19, #769]
    204e77e8:	a94153f3 	ldp	x19, x20, [sp, #16]
    204e77ec:	a8c27bfd 	ldp	x29, x30, [sp], #32
    204e77f0:	d65f03c0 	ret

00000000204e77f4 <imx_pwr_domain_suspend_finish>:
    204e77f4:	a9bd7bfd 	stp	x29, x30, [sp, #-48]!
    204e77f8:	910003fd 	mov	x29, sp
    204e77fc:	a90153f3 	stp	x19, x20, [sp, #16]
    204e7800:	aa0003f4 	mov	x20, x0
    204e7804:	f90013f5 	str	x21, [sp, #32]
    204e7808:	d53800b3 	mrs	x19, mpidr_el1
    204e780c:	39400800 	ldrb	w0, [x0, #2]
    204e7810:	53083e73 	ubfx	w19, w19, #8, #8
    204e7814:	51000400 	sub	w0, w0, #0x1
    204e7818:	7100041f 	cmp	w0, #0x1
    204e781c:	540007e8 	b.hi	204e7918 <imx_pwr_domain_suspend_finish+0x124>  // b.pmore
    204e7820:	d2837000 	mov	x0, #0x1b80                	// #7040
    204e7824:	f2a888e0 	movk	x0, #0x4447, lsl #16
    204e7828:	b900001f 	str	wzr, [x0]
    204e782c:	d2800c00 	mov	x0, #0x60                  	// #96
    204e7830:	f2a889e0 	movk	x0, #0x444f, lsl #16
    204e7834:	b9400000 	ldr	w0, [x0]
    204e7838:	361000c0 	tbz	w0, #2, 204e7850 <imx_pwr_domain_suspend_finish+0x5c>
    204e783c:	d2880801 	mov	x1, #0x4040                	// #16448
    204e7840:	f2a888e1 	movk	x1, #0x4447, lsl #16
    204e7844:	b9400020 	ldr	w0, [x1]
    204e7848:	120f7800 	and	w0, w0, #0xfffeffff
    204e784c:	b9000020 	str	w0, [x1]
    204e7850:	d2882000 	mov	x0, #0x4100                	// #16640
    204e7854:	f2a888e0 	movk	x0, #0x4447, lsl #16
    204e7858:	b900001f 	str	wzr, [x0]
    204e785c:	b901001f 	str	wzr, [x0, #256]
    204e7860:	52800000 	mov	w0, #0x0                   	// #0
    204e7864:	97fffd58 	bl	204e6dc4 <peripheral_qchannel_hsk>
    204e7868:	d2800a80 	mov	x0, #0x54                  	// #84
    204e786c:	f2a888c0 	movk	x0, #0x4446, lsl #16
    204e7870:	b9400001 	ldr	w1, [x0]
    204e7874:	528aaaa0 	mov	w0, #0x5555                	// #21845
    204e7878:	6b00003f 	cmp	w1, w0
    204e787c:	b0000040 	adrp	x0, 204f0000 <imx_gicv3_ctx+0x26d0>
    204e7880:	540006e1 	b.ne	204e795c <imx_pwr_domain_suspend_finish+0x168>  // b.any
    204e7884:	394bfc01 	ldrb	w1, [x0, #767]
    204e7888:	370006a1 	tbnz	w1, #0, 204e795c <imx_pwr_domain_suspend_finish+0x168>
    204e788c:	52800000 	mov	w0, #0x0                   	// #0
    204e7890:	97fffd8f 	bl	204e6ecc <pll_pwr_down>
    204e7894:	d2a884c1 	mov	x1, #0x44260000            	// #1143341056
    204e7898:	52800022 	mov	w2, #0x1                   	// #1
    204e789c:	39000022 	strb	w2, [x1]
    204e78a0:	39400020 	ldrb	w0, [x1]
    204e78a4:	12001c00 	and	w0, w0, #0xff
    204e78a8:	7100041f 	cmp	w0, #0x1
    204e78ac:	54ffff81 	b.ne	204e789c <imx_pwr_domain_suspend_finish+0xa8>  // b.any
    204e78b0:	b0000041 	adrp	x1, 204f0000 <imx_gicv3_ctx+0x26d0>
    204e78b4:	91098021 	add	x1, x1, #0x260
    204e78b8:	d2807002 	mov	x2, #0x380                 	// #896
    204e78bc:	d2800b15 	mov	x21, #0x58                  	// #88
    204e78c0:	f2a888a2 	movk	x2, #0x4445, lsl #16
    204e78c4:	f2a888d5 	movk	x21, #0x4446, lsl #16
    204e78c8:	b9400420 	ldr	w0, [x1, #4]
    204e78cc:	b9000040 	str	w0, [x2]
    204e78d0:	d283d000 	mov	x0, #0x1e80                	// #7808
    204e78d4:	f2a888a0 	movk	x0, #0x4445, lsl #16
    204e78d8:	b9400823 	ldr	w3, [x1, #8]
    204e78dc:	b9000003 	str	w3, [x0]
    204e78e0:	b9400c23 	ldr	w3, [x1, #12]
    204e78e4:	b9020003 	str	w3, [x0, #512]
    204e78e8:	b9401020 	ldr	w0, [x1, #16]
    204e78ec:	b8100040 	stur	w0, [x2, #-256]
    204e78f0:	b9401420 	ldr	w0, [x1, #20]
    204e78f4:	b8180040 	stur	w0, [x2, #-128]
    204e78f8:	b94002a0 	ldr	w0, [x21]
    204e78fc:	36080040 	tbz	w0, #1, 204e7904 <imx_pwr_domain_suspend_finish+0x110>
    204e7900:	97fffbf2 	bl	204e68c8 <dram_exit_retention>
    204e7904:	b94002a0 	ldr	w0, [x21]
    204e7908:	121f7800 	and	w0, w0, #0xfffffffe
    204e790c:	b90002a0 	str	w0, [x21]
    204e7910:	d2a884c0 	mov	x0, #0x44260000            	// #1143341056
    204e7914:	3900001f 	strb	wzr, [x0]
    204e7918:	39400680 	ldrb	w0, [x20, #1]
    204e791c:	34000080 	cbz	w0, 204e792c <imx_pwr_domain_suspend_finish+0x138>
    204e7920:	d2830200 	mov	x0, #0x1810                	// #6160
    204e7924:	f2a888e0 	movk	x0, #0x4447, lsl #16
    204e7928:	b900001f 	str	wzr, [x0]
    204e792c:	39400280 	ldrb	w0, [x20]
    204e7930:	51000c00 	sub	w0, w0, #0x3
    204e7934:	7100041f 	cmp	w0, #0x1
    204e7938:	54000228 	b.hi	204e797c <imx_pwr_domain_suspend_finish+0x188>  // b.pmore
    204e793c:	52810200 	mov	w0, #0x810                 	// #2064
    204e7940:	72a888e0 	movk	w0, #0x4447, lsl #16
    204e7944:	0b132c13 	add	w19, w0, w19, lsl #11
    204e7948:	f94013f5 	ldr	x21, [sp, #32]
    204e794c:	b900027f 	str	wzr, [x19]
    204e7950:	a94153f3 	ldp	x19, x20, [sp, #16]
    204e7954:	a8c37bfd 	ldp	x29, x30, [sp], #48
    204e7958:	17fff666 	b	204e52f0 <plat_gic_cpuif_enable>
    204e795c:	390bfc1f 	strb	wzr, [x0, #767]
    204e7960:	52800000 	mov	w0, #0x0                   	// #0
    204e7964:	97fffd5a 	bl	204e6ecc <pll_pwr_down>
    204e7968:	2a1303e0 	mov	w0, w19
    204e796c:	97fffe58 	bl	204e72cc <nicmix_pwr_up>
    204e7970:	97ffff73 	bl	204e773c <wakeupmix_pwr_up>
    204e7974:	97fffbd5 	bl	204e68c8 <dram_exit_retention>
    204e7978:	17ffffe8 	b	204e7918 <imx_pwr_domain_suspend_finish+0x124>
    204e797c:	a94153f3 	ldp	x19, x20, [sp, #16]
    204e7980:	f94013f5 	ldr	x21, [sp, #32]
    204e7984:	a8c37bfd 	ldp	x29, x30, [sp], #48
    204e7988:	d65f03c0 	ret

00000000204e798c <imx_set_cpu_boot_entry>:
    204e798c:	52802382 	mov	w2, #0x11c                 	// #284
    204e7990:	d342fc21 	lsr	x1, x1, #2
    204e7994:	72a889e2 	movk	w2, #0x444f, lsl #16
    204e7998:	0b000c40 	add	w0, w2, w0, lsl #3
    204e799c:	b9000001 	str	w1, [x0]
    204e79a0:	d65f03c0 	ret

00000000204e79a4 <imx_pwr_domain_on>:
    204e79a4:	a9bf7bfd 	stp	x29, x30, [sp, #-16]!
    204e79a8:	53083c03 	ubfx	w3, w0, #8, #8
    204e79ac:	d0000020 	adrp	x0, 204ed000 <__STACKS_START__+0x1280>
    204e79b0:	910003fd 	mov	x29, sp
    204e79b4:	f9449401 	ldr	x1, [x0, #2344]
    204e79b8:	2a0303e0 	mov	w0, w3
    204e79bc:	97fffff4 	bl	204e798c <imx_set_cpu_boot_entry>
    204e79c0:	90000020 	adrp	x0, 204eb000 <__RO_END_UNALIGNED__>
    204e79c4:	395ed000 	ldrb	w0, [x0, #1972]
    204e79c8:	360002c0 	tbz	w0, #0, 204e7a20 <imx_pwr_domain_on+0x7c>
    204e79cc:	52858480 	mov	w0, #0x2c24                	// #11300
    204e79d0:	128000a2 	mov	w2, #0xfffffffa            	// #-6
    204e79d4:	72a888c0 	movk	w0, #0x4446, lsl #16
    204e79d8:	0b032800 	add	w0, w0, w3, lsl #10
    204e79dc:	b9400001 	ldr	w1, [x0]
    204e79e0:	0a020021 	and	w1, w1, w2
    204e79e4:	b9000001 	str	w1, [x0]
    204e79e8:	528000a2 	mov	w2, #0x5                   	// #5
    204e79ec:	b9400001 	ldr	w1, [x0]
    204e79f0:	2a020021 	orr	w1, w1, w2
    204e79f4:	b9000001 	str	w1, [x0]
    204e79f8:	d2802301 	mov	x1, #0x118                 	// #280
    204e79fc:	d2800020 	mov	x0, #0x1                   	// #1
    204e7a00:	f2a889e1 	movk	x1, #0x444f, lsl #16
    204e7a04:	9ac32000 	lsl	x0, x0, x3
    204e7a08:	b9400022 	ldr	w2, [x1]
    204e7a0c:	0a200040 	bic	w0, w2, w0
    204e7a10:	b9000020 	str	w0, [x1]
    204e7a14:	52800000 	mov	w0, #0x0                   	// #0
    204e7a18:	a8c17bfd 	ldp	x29, x30, [sp], #16
    204e7a1c:	d65f03c0 	ret
    204e7a20:	52810180 	mov	w0, #0x80c                 	// #2060
    204e7a24:	72a888e0 	movk	w0, #0x4447, lsl #16
    204e7a28:	0b032c03 	add	w3, w0, w3, lsl #11
    204e7a2c:	b9400060 	ldr	w0, [x3]
    204e7a30:	321a0000 	orr	w0, w0, #0x40
    204e7a34:	b9000060 	str	w0, [x3]
    204e7a38:	17fffff7 	b	204e7a14 <imx_pwr_domain_on+0x70>

00000000204e7a3c <imx_pwr_domain_suspend>:
    204e7a3c:	a9be7bfd 	stp	x29, x30, [sp, #-32]!
    204e7a40:	910003fd 	mov	x29, sp
    204e7a44:	a90153f3 	stp	x19, x20, [sp, #16]
    204e7a48:	aa0003f4 	mov	x20, x0
    204e7a4c:	d53800b3 	mrs	x19, mpidr_el1
    204e7a50:	39400000 	ldrb	w0, [x0]
    204e7a54:	53083e73 	ubfx	w19, w19, #8, #8
    204e7a58:	51000c00 	sub	w0, w0, #0x3
    204e7a5c:	7100041f 	cmp	w0, #0x1
    204e7a60:	54000168 	b.hi	204e7a8c <imx_pwr_domain_suspend+0x50>  // b.pmore
    204e7a64:	97fff628 	bl	204e5304 <plat_gic_cpuif_disable>
    204e7a68:	d0000020 	adrp	x0, 204ed000 <__STACKS_START__+0x1280>
    204e7a6c:	f9449401 	ldr	x1, [x0, #2344]
    204e7a70:	2a1303e0 	mov	w0, w19
    204e7a74:	97ffffc6 	bl	204e798c <imx_set_cpu_boot_entry>
    204e7a78:	52810200 	mov	w0, #0x810                 	// #2064
    204e7a7c:	52800021 	mov	w1, #0x1                   	// #1
    204e7a80:	72a888e0 	movk	w0, #0x4447, lsl #16
    204e7a84:	0b132c00 	add	w0, w0, w19, lsl #11
    204e7a88:	b9000001 	str	w1, [x0]
    204e7a8c:	39400680 	ldrb	w0, [x20, #1]
    204e7a90:	34000140 	cbz	w0, 204e7ab8 <imx_pwr_domain_suspend+0x7c>
    204e7a94:	d2830201 	mov	x1, #0x1810                	// #6160
    204e7a98:	52800022 	mov	w2, #0x1                   	// #1
    204e7a9c:	f2a888e1 	movk	x1, #0x4447, lsl #16
    204e7aa0:	51000400 	sub	w0, w0, #0x1
    204e7aa4:	b9000022 	str	w2, [x1]
    204e7aa8:	6b02001f 	cmp	w0, w2
    204e7aac:	54000068 	b.hi	204e7ab8 <imx_pwr_domain_suspend+0x7c>  // b.pmore
    204e7ab0:	d2800040 	mov	x0, #0x2                   	// #2
    204e7ab4:	d518f3c0 	msr	s3_0_c15_c3_6, x0
    204e7ab8:	39400a80 	ldrb	w0, [x20, #2]
    204e7abc:	51000400 	sub	w0, w0, #0x1
    204e7ac0:	7100041f 	cmp	w0, #0x1
    204e7ac4:	54000a88 	b.hi	204e7c14 <imx_pwr_domain_suspend+0x1d8>  // b.pmore
    204e7ac8:	d2800a80 	mov	x0, #0x54                  	// #84
    204e7acc:	f2a888c0 	movk	x0, #0x4446, lsl #16
    204e7ad0:	b9400001 	ldr	w1, [x0]
    204e7ad4:	528aaaa0 	mov	w0, #0x5555                	// #21845
    204e7ad8:	6b00003f 	cmp	w1, w0
    204e7adc:	d2800020 	mov	x0, #0x1                   	// #1
    204e7ae0:	54000a01 	b.ne	204e7c20 <imx_pwr_domain_suspend+0x1e4>  // b.any
    204e7ae4:	940003eb 	bl	204e8a90 <dcsw_op_all>
    204e7ae8:	d2908801 	mov	x1, #0x8440                	// #33856
    204e7aec:	52800062 	mov	w2, #0x3                   	// #3
    204e7af0:	f2a888a1 	movk	x1, #0x4445, lsl #16
    204e7af4:	52800020 	mov	w0, #0x1                   	// #1
    204e7af8:	b9000020 	str	w0, [x1]
    204e7afc:	b9001c22 	str	w2, [x1, #28]
    204e7b00:	d2a884c2 	mov	x2, #0x44260000            	// #1143341056
    204e7b04:	39000040 	strb	w0, [x2]
    204e7b08:	39400041 	ldrb	w1, [x2]
    204e7b0c:	12001c21 	and	w1, w1, #0xff
    204e7b10:	7100043f 	cmp	w1, #0x1
    204e7b14:	54ffff81 	b.ne	204e7b04 <imx_pwr_domain_suspend+0xc8>  // b.any
    204e7b18:	d2800b13 	mov	x19, #0x58                  	// #88
    204e7b1c:	f2a888d3 	movk	x19, #0x4446, lsl #16
    204e7b20:	b9400260 	ldr	w0, [x19]
    204e7b24:	36080040 	tbz	w0, #1, 204e7b2c <imx_pwr_domain_suspend+0xf0>
    204e7b28:	97fffa49 	bl	204e644c <dram_enter_retention>
    204e7b2c:	b9400260 	ldr	w0, [x19]
    204e7b30:	d2807001 	mov	x1, #0x380                 	// #896
    204e7b34:	f2a888a1 	movk	x1, #0x4445, lsl #16
    204e7b38:	32000000 	orr	w0, w0, #0x1
    204e7b3c:	b9000260 	str	w0, [x19]
    204e7b40:	b0000040 	adrp	x0, 204f0000 <imx_gicv3_ctx+0x26d0>
    204e7b44:	91098000 	add	x0, x0, #0x260
    204e7b48:	b9400022 	ldr	w2, [x1]
    204e7b4c:	b9000402 	str	w2, [x0, #4]
    204e7b50:	d283d002 	mov	x2, #0x1e80                	// #7808
    204e7b54:	f2a888a2 	movk	x2, #0x4445, lsl #16
    204e7b58:	b9400043 	ldr	w3, [x2]
    204e7b5c:	b9000803 	str	w3, [x0, #8]
    204e7b60:	b9420044 	ldr	w4, [x2, #512]
    204e7b64:	b9000c04 	str	w4, [x0, #12]
    204e7b68:	b8500024 	ldur	w4, [x1, #-256]
    204e7b6c:	b9001004 	str	w4, [x0, #16]
    204e7b70:	b8580024 	ldur	w4, [x1, #-128]
    204e7b74:	b9001404 	str	w4, [x0, #20]
    204e7b78:	b9400020 	ldr	w0, [x1]
    204e7b7c:	12185c00 	and	w0, w0, #0xffffff00
    204e7b80:	321e0000 	orr	w0, w0, #0x4
    204e7b84:	b9000020 	str	w0, [x1]
    204e7b88:	b9420040 	ldr	w0, [x2, #512]
    204e7b8c:	12185c00 	and	w0, w0, #0xffffff00
    204e7b90:	32000800 	orr	w0, w0, #0x7
    204e7b94:	b9020040 	str	w0, [x2, #512]
    204e7b98:	b9400040 	ldr	w0, [x2]
    204e7b9c:	12167400 	and	w0, w0, #0xfffffcff
    204e7ba0:	b9000040 	str	w0, [x2]
    204e7ba4:	d2a884c0 	mov	x0, #0x44260000            	// #1143341056
    204e7ba8:	3900001f 	strb	wzr, [x0]
    204e7bac:	b9400260 	ldr	w0, [x19]
    204e7bb0:	36100060 	tbz	w0, #2, 204e7bbc <imx_pwr_domain_suspend+0x180>
    204e7bb4:	52800020 	mov	w0, #0x1                   	// #1
    204e7bb8:	97fffcc5 	bl	204e6ecc <pll_pwr_down>
    204e7bbc:	52800020 	mov	w0, #0x1                   	// #1
    204e7bc0:	97fffc81 	bl	204e6dc4 <peripheral_qchannel_hsk>
    204e7bc4:	d2830200 	mov	x0, #0x1810                	// #6160
    204e7bc8:	52800061 	mov	w1, #0x3                   	// #3
    204e7bcc:	f2a888e0 	movk	x0, #0x4447, lsl #16
    204e7bd0:	b9000001 	str	w1, [x0]
    204e7bd4:	52800081 	mov	w1, #0x4                   	// #4
    204e7bd8:	b9037001 	str	w1, [x0, #880]
    204e7bdc:	d2800c00 	mov	x0, #0x60                  	// #96
    204e7be0:	f2a889e0 	movk	x0, #0x444f, lsl #16
    204e7be4:	b9400000 	ldr	w0, [x0]
    204e7be8:	361000c0 	tbz	w0, #2, 204e7c00 <imx_pwr_domain_suspend+0x1c4>
    204e7bec:	d2880801 	mov	x1, #0x4040                	// #16448
    204e7bf0:	f2a888e1 	movk	x1, #0x4447, lsl #16
    204e7bf4:	b9400020 	ldr	w0, [x1]
    204e7bf8:	32100000 	orr	w0, w0, #0x10000
    204e7bfc:	b9000020 	str	w0, [x1]
    204e7c00:	d2884000 	mov	x0, #0x4200                	// #16896
    204e7c04:	52800021 	mov	w1, #0x1                   	// #1
    204e7c08:	f2a888e0 	movk	x0, #0x4447, lsl #16
    204e7c0c:	b9000001 	str	w1, [x0]
    204e7c10:	b8100001 	stur	w1, [x0, #-256]
    204e7c14:	a94153f3 	ldp	x19, x20, [sp, #16]
    204e7c18:	a8c27bfd 	ldp	x29, x30, [sp], #32
    204e7c1c:	d65f03c0 	ret
    204e7c20:	9400039c 	bl	204e8a90 <dcsw_op_all>
    204e7c24:	97fffa0a 	bl	204e644c <dram_enter_retention>
    204e7c28:	2a1303e0 	mov	w0, w19
    204e7c2c:	97fffd6d 	bl	204e71e0 <nicmix_pwr_down>
    204e7c30:	97fffce1 	bl	204e6fb4 <s401_request_pwrdown>
    204e7c34:	97fffe89 	bl	204e7658 <wakeupmix_pwr_down>
    204e7c38:	52800020 	mov	w0, #0x1                   	// #1
    204e7c3c:	97fffca4 	bl	204e6ecc <pll_pwr_down>
    204e7c40:	b0000040 	adrp	x0, 204f0000 <imx_gicv3_ctx+0x26d0>
    204e7c44:	52800021 	mov	w1, #0x1                   	// #1
    204e7c48:	390bfc01 	strb	w1, [x0, #767]
    204e7c4c:	17ffffdc 	b	204e7bbc <imx_pwr_domain_suspend+0x180>

00000000204e7c50 <plat_setup_psci_ops>:
    204e7c50:	a9be7bfd 	stp	x29, x30, [sp, #-32]!
    204e7c54:	910003fd 	mov	x29, sp
    204e7c58:	f9000bf3 	str	x19, [sp, #16]
    204e7c5c:	aa0103f3 	mov	x19, x1
    204e7c60:	d0000021 	adrp	x1, 204ed000 <__STACKS_START__+0x1280>
    204e7c64:	f9049420 	str	x0, [x1, #2344]
    204e7c68:	d2802381 	mov	x1, #0x11c                 	// #284
    204e7c6c:	f2a889e1 	movk	x1, #0x444f, lsl #16
    204e7c70:	d342fc00 	lsr	x0, x0, #2
    204e7c74:	b9000020 	str	w0, [x1]
    204e7c78:	94000014 	bl	204e7cc8 <pwr_sys_init>
    204e7c7c:	97fffd2d 	bl	204e7130 <nicmix_qos_init>
    204e7c80:	97fffd3a 	bl	204e7168 <wakeupmix_qos_init>
    204e7c84:	d0000000 	adrp	x0, 204e9000 <flush_continue>
    204e7c88:	912ae000 	add	x0, x0, #0xab8
    204e7c8c:	f9000260 	str	x0, [x19]
    204e7c90:	52800000 	mov	w0, #0x0                   	// #0
    204e7c94:	f9400bf3 	ldr	x19, [sp, #16]
    204e7c98:	a8c27bfd 	ldp	x29, x30, [sp], #32
    204e7c9c:	d65f03c0 	ret

00000000204e7ca0 <plat_get_power_domain_tree_desc>:
    204e7ca0:	f0000000 	adrp	x0, 204ea000 <wakeupmix_irq_mask+0x2c>
    204e7ca4:	910d7400 	add	x0, x0, #0x35d
    204e7ca8:	d65f03c0 	ret

00000000204e7cac <plat_core_pos_by_mpidr>:
    204e7cac:	92409c01 	and	x1, x0, #0xffffffffff
    204e7cb0:	d29fffe2 	mov	x2, #0xffff                	// #65535
    204e7cb4:	9260dc21 	and	x1, x1, #0xffffffff00ffffff
    204e7cb8:	eb02003f 	cmp	x1, x2
    204e7cbc:	d348fc20 	lsr	x0, x1, #8
    204e7cc0:	5a9f9000 	csinv	w0, w0, wzr, ls	// ls = plast
    204e7cc4:	d65f03c0 	ret

00000000204e7cc8 <pwr_sys_init>:
    204e7cc8:	d2880200 	mov	x0, #0x4010                	// #16400
    204e7ccc:	52862041 	mov	w1, #0x3102                	// #12546
    204e7cd0:	f2a888e0 	movk	x0, #0x4447, lsl #16
    204e7cd4:	b9000001 	str	w1, [x0]
    204e7cd8:	d2810180 	mov	x0, #0x80c                 	// #2060
    204e7cdc:	f2a888e0 	movk	x0, #0x4447, lsl #16
    204e7ce0:	b9400001 	ldr	w1, [x0]
    204e7ce4:	121e7821 	and	w1, w1, #0xfffffffd
    204e7ce8:	b9000001 	str	w1, [x0]
    204e7cec:	b9400001 	ldr	w1, [x0]
    204e7cf0:	321b0021 	orr	w1, w1, #0x20
    204e7cf4:	b9000001 	str	w1, [x0]
    204e7cf8:	d2880801 	mov	x1, #0x4040                	// #16448
    204e7cfc:	f2a888e1 	movk	x1, #0x4447, lsl #16
    204e7d00:	b9400022 	ldr	w2, [x1]
    204e7d04:	320f0042 	orr	w2, w2, #0x20000
    204e7d08:	b9000022 	str	w2, [x1]
    204e7d0c:	b9480002 	ldr	w2, [x0, #2048]
    204e7d10:	121e7842 	and	w2, w2, #0xfffffffd
    204e7d14:	b9080002 	str	w2, [x0, #2048]
    204e7d18:	b9480002 	ldr	w2, [x0, #2048]
    204e7d1c:	321b0042 	orr	w2, w2, #0x20
    204e7d20:	b9080002 	str	w2, [x0, #2048]
    204e7d24:	b9400022 	ldr	w2, [x1]
    204e7d28:	320e0042 	orr	w2, w2, #0x40000
    204e7d2c:	b9000022 	str	w2, [x1]
    204e7d30:	d28b8082 	mov	x2, #0x5c04                	// #23556
    204e7d34:	b9500001 	ldr	w1, [x0, #4096]
    204e7d38:	f2a888c2 	movk	x2, #0x4446, lsl #16
    204e7d3c:	121e7821 	and	w1, w1, #0xfffffffd
    204e7d40:	b9100001 	str	w1, [x0, #4096]
    204e7d44:	b9500001 	ldr	w1, [x0, #4096]
    204e7d48:	321b0021 	orr	w1, w1, #0x20
    204e7d4c:	b9100001 	str	w1, [x0, #4096]
    204e7d50:	b9400041 	ldr	w1, [x2]
    204e7d54:	321e0021 	orr	w1, w1, #0x4
    204e7d58:	b9000041 	str	w1, [x2]
    204e7d5c:	d2858282 	mov	x2, #0x2c14                	// #11284
    204e7d60:	f2a888c2 	movk	x2, #0x4446, lsl #16
    204e7d64:	b9400041 	ldr	w1, [x2]
    204e7d68:	121d7021 	and	w1, w1, #0xfffffff8
    204e7d6c:	32000021 	orr	w1, w1, #0x1
    204e7d70:	b9000041 	str	w1, [x2]
    204e7d74:	b9406c41 	ldr	w1, [x2, #108]
    204e7d78:	12027421 	and	w1, w1, #0xcfffffff
    204e7d7c:	b9006c41 	str	w1, [x2, #108]
    204e7d80:	52800081 	mov	w1, #0x4                   	// #4
    204e7d84:	72a00021 	movk	w1, #0x1, lsl #16
    204e7d88:	b81f0041 	stur	w1, [x2, #-16]
    204e7d8c:	1141c021 	add	w1, w1, #0x70, lsl #12
    204e7d90:	b9500002 	ldr	w2, [x0, #4096]
    204e7d94:	321b0042 	orr	w2, w2, #0x20
    204e7d98:	b9100002 	str	w2, [x0, #4096]
    204e7d9c:	b9500002 	ldr	w2, [x0, #4096]
    204e7da0:	121e7842 	and	w2, w2, #0xfffffffd
    204e7da4:	b9100002 	str	w2, [x0, #4096]
    204e7da8:	d28c8082 	mov	x2, #0x6404                	// #25604
    204e7dac:	f2a888c2 	movk	x2, #0x4446, lsl #16
    204e7db0:	b9400040 	ldr	w0, [x2]
    204e7db4:	321e0000 	orr	w0, w0, #0x4
    204e7db8:	b9000040 	str	w0, [x2]
    204e7dbc:	b9440040 	ldr	w0, [x2, #1024]
    204e7dc0:	321f0400 	orr	w0, w0, #0x6
    204e7dc4:	b9040040 	str	w0, [x2, #1024]
    204e7dc8:	d2868282 	mov	x2, #0x3414                	// #13332
    204e7dcc:	f2a888c2 	movk	x2, #0x4446, lsl #16
    204e7dd0:	b9400040 	ldr	w0, [x2]
    204e7dd4:	12117000 	and	w0, w0, #0xffff8fff
    204e7dd8:	32140000 	orr	w0, w0, #0x1000
    204e7ddc:	b9000040 	str	w0, [x2]
    204e7de0:	b9406c40 	ldr	w0, [x2, #108]
    204e7de4:	12027400 	and	w0, w0, #0xcfffffff
    204e7de8:	b9006c40 	str	w0, [x2, #108]
    204e7dec:	d2868080 	mov	x0, #0x3404                	// #13316
    204e7df0:	52a00622 	mov	w2, #0x310000              	// #3211264
    204e7df4:	f2a888c0 	movk	x0, #0x4446, lsl #16
    204e7df8:	b9000001 	str	w1, [x0]
    204e7dfc:	d2802200 	mov	x0, #0x110                 	// #272
    204e7e00:	f2a889e0 	movk	x0, #0x444f, lsl #16
    204e7e04:	b9400001 	ldr	w1, [x0]
    204e7e08:	321b0021 	orr	w1, w1, #0x20
    204e7e0c:	b9000001 	str	w1, [x0]
    204e7e10:	b9400001 	ldr	w1, [x0]
    204e7e14:	32090421 	orr	w1, w1, #0x1800000
    204e7e18:	b9000001 	str	w1, [x0]
    204e7e1c:	d2901a01 	mov	x1, #0x80d0                	// #32976
    204e7e20:	f2a888a1 	movk	x1, #0x4445, lsl #16
    204e7e24:	b9400020 	ldr	w0, [x1]
    204e7e28:	32140400 	orr	w0, w0, #0x3000
    204e7e2c:	b9000020 	str	w0, [x1]
    204e7e30:	b9402020 	ldr	w0, [x1, #32]
    204e7e34:	321e0000 	orr	w0, w0, #0x4
    204e7e38:	b9002020 	str	w0, [x1, #32]
    204e7e3c:	d2818281 	mov	x1, #0xc14                 	// #3092
    204e7e40:	3202e3e0 	mov	w0, #0x44444444            	// #1145324612
    204e7e44:	f2a888c1 	movk	x1, #0x4446, lsl #16
    204e7e48:	b9000020 	str	w0, [x1]
    204e7e4c:	b9000420 	str	w0, [x1, #4]
    204e7e50:	b9100020 	str	w0, [x1, #4096]
    204e7e54:	b9100420 	str	w0, [x1, #4100]
    204e7e58:	d2882101 	mov	x1, #0x4108                	// #16648
    204e7e5c:	f2a888e1 	movk	x1, #0x4447, lsl #16
    204e7e60:	b9400020 	ldr	w0, [x1]
    204e7e64:	12044c00 	and	w0, w0, #0xf000ffff
    204e7e68:	2a020000 	orr	w0, w0, w2
    204e7e6c:	b9000020 	str	w0, [x1]
    204e7e70:	d65f03c0 	ret

00000000204e7e74 <disable_wdog>:
    204e7e74:	2a0003e1 	mov	w1, w0
    204e7e78:	b9400023 	ldr	w3, [x1]
    204e7e7c:	36380283 	tbz	w3, #7, 204e7ecc <disable_wdog+0x58>
    204e7e80:	11001002 	add	w2, w0, #0x4
    204e7e84:	5294c044 	mov	w4, #0xa602                	// #42498
    204e7e88:	72b69004 	movk	w4, #0xb480, lsl #16
    204e7e8c:	b9000044 	str	w4, [x2]
    204e7e90:	375800c3 	tbnz	w3, #11, 204e7ea8 <disable_wdog+0x34>
    204e7e94:	5298a403 	mov	w3, #0xc520                	// #50464
    204e7e98:	72bb2503 	movk	w3, #0xd928, lsl #16
    204e7e9c:	b9000043 	str	w3, [x2]
    204e7ea0:	b9400022 	ldr	w2, [x1]
    204e7ea4:	365fffe2 	tbz	w2, #11, 204e7ea0 <disable_wdog+0x2c>
    204e7ea8:	11003002 	add	w2, w0, #0xc
    204e7eac:	11002000 	add	w0, w0, #0x8
    204e7eb0:	b900005f 	str	wzr, [x2]
    204e7eb4:	52808002 	mov	w2, #0x400                 	// #1024
    204e7eb8:	b9000002 	str	w2, [x0]
    204e7ebc:	52842400 	mov	w0, #0x2120                	// #8480
    204e7ec0:	b9000020 	str	w0, [x1]
    204e7ec4:	b9400020 	ldr	w0, [x1]
    204e7ec8:	3657ffe0 	tbz	w0, #10, 204e7ec4 <disable_wdog+0x50>
    204e7ecc:	d65f03c0 	ret

00000000204e7ed0 <imx_src_handler>:
    204e7ed0:	f100043f 	cmp	x1, #0x1
    204e7ed4:	540002a0 	b.eq	204e7f28 <imx_src_handler+0x58>  // b.none
    204e7ed8:	f100083f 	cmp	x1, #0x2
    204e7edc:	54000320 	b.eq	204e7f40 <imx_src_handler+0x70>  // b.none
    204e7ee0:	b5000a81 	cbnz	x1, 204e8030 <imx_src_handler+0x160>
    204e7ee4:	d2800b80 	mov	x0, #0x5c                  	// #92
    204e7ee8:	f2a889e0 	movk	x0, #0x444f, lsl #16
    204e7eec:	b900001f 	str	wzr, [x0]
    204e7ef0:	d2801380 	mov	x0, #0x9c                  	// #156
    204e7ef4:	f2a888c0 	movk	x0, #0x4446, lsl #16
    204e7ef8:	b4000122 	cbz	x2, 204e7f1c <imx_src_handler+0x4c>
    204e7efc:	b9000002 	str	w2, [x0]
    204e7f00:	d2800c01 	mov	x1, #0x60                  	// #96
    204e7f04:	f2a889e1 	movk	x1, #0x444f, lsl #16
    204e7f08:	b9400020 	ldr	w0, [x1]
    204e7f0c:	121d7800 	and	w0, w0, #0xfffffffb
    204e7f10:	b9000020 	str	w0, [x1]
    204e7f14:	52800000 	mov	w0, #0x0                   	// #0
    204e7f18:	d65f03c0 	ret
    204e7f1c:	52a1ffc1 	mov	w1, #0xffe0000             	// #268304384
    204e7f20:	b9000001 	str	w1, [x0]
    204e7f24:	17fffff7 	b	204e7f00 <imx_src_handler+0x30>
    204e7f28:	d2800c00 	mov	x0, #0x60                  	// #96
    204e7f2c:	f2a889e0 	movk	x0, #0x444f, lsl #16
    204e7f30:	b9400000 	ldr	w0, [x0]
    204e7f34:	d27e0000 	eor	x0, x0, #0x4
    204e7f38:	d3420800 	ubfx	x0, x0, #2, #1
    204e7f3c:	d65f03c0 	ret
    204e7f40:	d2800401 	mov	x1, #0x20                  	// #32
    204e7f44:	a9be7bfd 	stp	x29, x30, [sp, #-32]!
    204e7f48:	f2a888c1 	movk	x1, #0x4446, lsl #16
    204e7f4c:	aa0103e0 	mov	x0, x1
    204e7f50:	910003fd 	mov	x29, sp
    204e7f54:	b9400022 	ldr	w2, [x1]
    204e7f58:	a90153f3 	stp	x19, x20, [sp, #16]
    204e7f5c:	aa0403f3 	mov	x19, x4
    204e7f60:	32088042 	orr	w2, w2, #0x1000100
    204e7f64:	b8010402 	str	w2, [x0], #16
    204e7f68:	b9401022 	ldr	w2, [x1, #16]
    204e7f6c:	32180042 	orr	w2, w2, #0x100
    204e7f70:	b9001022 	str	w2, [x1, #16]
    204e7f74:	d2800c02 	mov	x2, #0x60                  	// #96
    204e7f78:	b85e8001 	ldur	w1, [x0, #-24]
    204e7f7c:	f2a889e2 	movk	x2, #0x444f, lsl #16
    204e7f80:	121e7421 	and	w1, w1, #0xfffffffc
    204e7f84:	b81e8001 	stur	w1, [x0, #-24]
    204e7f88:	b9400041 	ldr	w1, [x2]
    204e7f8c:	321e0021 	orr	w1, w1, #0x4
    204e7f90:	b9000041 	str	w1, [x2]
    204e7f94:	b940d401 	ldr	w1, [x0, #212]
    204e7f98:	121f7821 	and	w1, w1, #0xfffffffe
    204e7f9c:	b900d401 	str	w1, [x0, #212]
    204e7fa0:	52a885a0 	mov	w0, #0x442d0000            	// #1143799808
    204e7fa4:	97ffffb4 	bl	204e7e74 <disable_wdog>
    204e7fa8:	d2800080 	mov	x0, #0x4                   	// #4
    204e7fac:	5298a401 	mov	w1, #0xc520                	// #50464
    204e7fb0:	f2a885a0 	movk	x0, #0x442d, lsl #16
    204e7fb4:	72bb2501 	movk	w1, #0xd928, lsl #16
    204e7fb8:	b9000001 	str	w1, [x0]
    204e7fbc:	d2a885a0 	mov	x0, #0x442d0000            	// #1143799808
    204e7fc0:	b9400001 	ldr	w1, [x0]
    204e7fc4:	365fffe1 	tbz	w1, #11, 204e7fc0 <imx_src_handler+0xf0>
    204e7fc8:	52807d01 	mov	w1, #0x3e8                 	// #1000
    204e7fcc:	b9000801 	str	w1, [x0, #8]
    204e7fd0:	d2800101 	mov	x1, #0x8                   	// #8
    204e7fd4:	f2a885a1 	movk	x1, #0x442d, lsl #16
    204e7fd8:	b900043f 	str	wzr, [x1, #4]
    204e7fdc:	528d3401 	mov	w1, #0x69a0                	// #27040
    204e7fe0:	b9000001 	str	w1, [x0]
    204e7fe4:	d2a885a1 	mov	x1, #0x442d0000            	// #1143799808
    204e7fe8:	b9400020 	ldr	w0, [x1]
    204e7fec:	3657ffe0 	tbz	w0, #10, 204e7fe8 <imx_src_handler+0x118>
    204e7ff0:	d2802094 	mov	x20, #0x104                 	// #260
    204e7ff4:	f2a888d4 	movk	x20, #0x4446, lsl #16
    204e7ff8:	b9400280 	ldr	w0, [x20]
    204e7ffc:	528000a0 	mov	w0, #0x5                   	// #5
    204e8000:	97ffe788 	bl	204e1e20 <udelay>
    204e8004:	b9400280 	ldr	w0, [x20]
    204e8008:	370fffe0 	tbnz	w0, #1, 204e8004 <imx_src_handler+0x134>
    204e800c:	d2851681 	mov	x1, #0x28b4                	// #10420
    204e8010:	f2a888c1 	movk	x1, #0x4446, lsl #16
    204e8014:	b9400020 	ldr	w0, [x1]
    204e8018:	3617ffe0 	tbz	w0, #2, 204e8014 <imx_src_handler+0x144>
    204e801c:	a900fe7f 	stp	xzr, xzr, [x19, #8]
    204e8020:	52800000 	mov	w0, #0x0                   	// #0
    204e8024:	a94153f3 	ldp	x19, x20, [sp, #16]
    204e8028:	a8c27bfd 	ldp	x29, x30, [sp], #32
    204e802c:	d65f03c0 	ret
    204e8030:	12800000 	mov	w0, #0xffffffff            	// #-1
    204e8034:	d65f03c0 	ret

00000000204e8038 <trdc_fuse_read>:
    204e8038:	f0000003 	adrp	x3, 204eb000 <__RO_END_UNALIGNED__>
    204e803c:	91181061 	add	x1, x3, #0x604
    204e8040:	12001c02 	and	w2, w0, #0xff
    204e8044:	39581063 	ldrb	w3, [x3, #1540]
    204e8048:	6b20007f 	cmp	w3, w0, uxtb
    204e804c:	540001a0 	b.eq	204e8080 <trdc_fuse_read+0x48>  // b.none
    204e8050:	39402020 	ldrb	w0, [x1, #8]
    204e8054:	6b02001f 	cmp	w0, w2
    204e8058:	54000180 	b.eq	204e8088 <trdc_fuse_read+0x50>  // b.none
    204e805c:	39404023 	ldrb	w3, [x1, #16]
    204e8060:	52800000 	mov	w0, #0x0                   	// #0
    204e8064:	6b02007f 	cmp	w3, w2
    204e8068:	540000a1 	b.ne	204e807c <trdc_fuse_read+0x44>  // b.any
    204e806c:	52800040 	mov	w0, #0x2                   	// #2
    204e8070:	d37d0400 	ubfiz	x0, x0, #3, #2
    204e8074:	8b000021 	add	x1, x1, x0
    204e8078:	b9400420 	ldr	w0, [x1, #4]
    204e807c:	d65f03c0 	ret
    204e8080:	52800000 	mov	w0, #0x0                   	// #0
    204e8084:	17fffffb 	b	204e8070 <trdc_fuse_read+0x38>
    204e8088:	52800020 	mov	w0, #0x1                   	// #1
    204e808c:	17fffff9 	b	204e8070 <trdc_fuse_read+0x38>

00000000204e8090 <trdc_config>:
    204e8090:	d10143ff 	sub	sp, sp, #0x50
    204e8094:	d2800500 	mov	x0, #0x28                  	// #40
    204e8098:	f2a88420 	movk	x0, #0x4421, lsl #16
    204e809c:	52900006 	mov	w6, #0x8000                	// #32768
    204e80a0:	52800063 	mov	w3, #0x3                   	// #3
    204e80a4:	72a8ea26 	movk	w6, #0x4751, lsl #16
    204e80a8:	a9017bfd 	stp	x29, x30, [sp, #16]
    204e80ac:	910043fd 	add	x29, sp, #0x10
    204e80b0:	b9400004 	ldr	w4, [x0]
    204e80b4:	f0000000 	adrp	x0, 204eb000 <__RO_END_UNALIGNED__>
    204e80b8:	91181000 	add	x0, x0, #0x604
    204e80bc:	12000084 	and	w4, w4, #0x1
    204e80c0:	a90253f3 	stp	x19, x20, [sp, #32]
    204e80c4:	a9035bf5 	stp	x21, x22, [sp, #48]
    204e80c8:	f90023f7 	str	x23, [sp, #64]
    204e80cc:	39400001 	ldrb	w1, [x0]
    204e80d0:	34000b64 	cbz	w4, 204e823c <trdc_config+0x1ac>
    204e80d4:	d2804005 	mov	x5, #0x200                 	// #512
    204e80d8:	528040c7 	mov	w7, #0x206                 	// #518
    204e80dc:	f2a8ea45 	movk	x5, #0x4752, lsl #16
    204e80e0:	aa0503e2 	mov	x2, x5
    204e80e4:	72a2f2e7 	movk	w7, #0x1797, lsl #16
    204e80e8:	b8004447 	str	w7, [x2], #4
    204e80ec:	b90004a1 	str	w1, [x5, #4]
    204e80f0:	d1036042 	sub	x2, x2, #0xd8
    204e80f4:	b9400041 	ldr	w1, [x2]
    204e80f8:	12000421 	and	w1, w1, #0x3
    204e80fc:	71000c3f 	cmp	w1, #0x3
    204e8100:	54ffffa1 	b.ne	204e80f4 <trdc_config+0x64>  // b.any
    204e8104:	d2805002 	mov	x2, #0x280                 	// #640
    204e8108:	f2a8ea42 	movk	x2, #0x4752, lsl #16
    204e810c:	aa0203e1 	mov	x1, x2
    204e8110:	b8404425 	ldr	w5, [x1], #4
    204e8114:	b9400442 	ldr	w2, [x2, #4]
    204e8118:	12001c42 	and	w2, w2, #0xff
    204e811c:	7103585f 	cmp	w2, #0xd6
    204e8120:	540008a1 	b.ne	204e8234 <trdc_config+0x1a4>  // b.any
    204e8124:	b9400421 	ldr	w1, [x1, #4]
    204e8128:	b9000401 	str	w1, [x0, #4]
    204e812c:	71000463 	subs	w3, w3, #0x1
    204e8130:	91002000 	add	x0, x0, #0x8
    204e8134:	54fffcc1 	b.ne	204e80cc <trdc_config+0x3c>  // b.any
    204e8138:	52800044 	mov	w4, #0x2                   	// #2
    204e813c:	52800006 	mov	w6, #0x0                   	// #0
    204e8140:	2a0403e3 	mov	w3, w4
    204e8144:	52800025 	mov	w5, #0x1                   	// #1
    204e8148:	52800002 	mov	w2, #0x0                   	// #0
    204e814c:	52800081 	mov	w1, #0x4                   	// #4
    204e8150:	d2a884e0 	mov	x0, #0x44270000            	// #1143406592
    204e8154:	97ffe7b9 	bl	204e2038 <trdc_mda_set_noncpu>
    204e8158:	52800045 	mov	w5, #0x2                   	// #2
    204e815c:	2a0503e3 	mov	w3, w5
    204e8160:	390003ff 	strb	wzr, [sp]
    204e8164:	52800007 	mov	w7, #0x0                   	// #0
    204e8168:	390023ff 	strb	wzr, [sp, #8]
    204e816c:	52800006 	mov	w6, #0x0                   	// #0
    204e8170:	52800004 	mov	w4, #0x0                   	// #0
    204e8174:	52800002 	mov	w2, #0x0                   	// #0
    204e8178:	52800021 	mov	w1, #0x1                   	// #1
    204e817c:	d2a884e0 	mov	x0, #0x44270000            	// #1143406592
    204e8180:	97ffe78d 	bl	204e1fb4 <trdc_mda_set_cpu>
    204e8184:	f0000014 	adrp	x20, 204eb000 <__RO_END_UNALIGNED__>
    204e8188:	f0000000 	adrp	x0, 204eb000 <__RO_END_UNALIGNED__>
    204e818c:	91102000 	add	x0, x0, #0x408
    204e8190:	97ffe862 	bl	204e2318 <trdc_mgr_mbc_setup>
    204e8194:	910cc294 	add	x20, x20, #0x330
    204e8198:	f0000000 	adrp	x0, 204eb000 <__RO_END_UNALIGNED__>
    204e819c:	91106000 	add	x0, x0, #0x418
    204e81a0:	97ffe85e 	bl	204e2318 <trdc_mgr_mbc_setup>
    204e81a4:	f0000013 	adrp	x19, 204eb000 <__RO_END_UNALIGNED__>
    204e81a8:	f0000000 	adrp	x0, 204eb000 <__RO_END_UNALIGNED__>
    204e81ac:	9110a000 	add	x0, x0, #0x428
    204e81b0:	97ffe85a 	bl	204e2318 <trdc_mgr_mbc_setup>
    204e81b4:	9109c273 	add	x19, x19, #0x270
    204e81b8:	f0000000 	adrp	x0, 204eb000 <__RO_END_UNALIGNED__>
    204e81bc:	9110e000 	add	x0, x0, #0x438
    204e81c0:	97ffe856 	bl	204e2318 <trdc_mgr_mbc_setup>
    204e81c4:	52800195 	mov	w21, #0xc                   	// #12
    204e81c8:	aa1403e0 	mov	x0, x20
    204e81cc:	97ffe8a5 	bl	204e2460 <trdc_setup>
    204e81d0:	f0000017 	adrp	x23, 204eb000 <__RO_END_UNALIGNED__>
    204e81d4:	910de2e0 	add	x0, x23, #0x378
    204e81d8:	97ffe8a2 	bl	204e2460 <trdc_setup>
    204e81dc:	f0000016 	adrp	x22, 204eb000 <__RO_END_UNALIGNED__>
    204e81e0:	910f02c0 	add	x0, x22, #0x3c0
    204e81e4:	97ffe89f 	bl	204e2460 <trdc_setup>
    204e81e8:	aa1303e0 	mov	x0, x19
    204e81ec:	97ffe874 	bl	204e23bc <trdc_mgr_fused_slot_setup>
    204e81f0:	91004273 	add	x19, x19, #0x10
    204e81f4:	710006b5 	subs	w21, w21, #0x1
    204e81f8:	54ffff81 	b.ne	204e81e8 <trdc_config+0x158>  // b.any
    204e81fc:	aa1403e0 	mov	x0, x20
    204e8200:	97ffe91b 	bl	204e266c <trdc_try_lockup>
    204e8204:	910de2e0 	add	x0, x23, #0x378
    204e8208:	97ffe919 	bl	204e266c <trdc_try_lockup>
    204e820c:	910f02c0 	add	x0, x22, #0x3c0
    204e8210:	97ffe917 	bl	204e266c <trdc_try_lockup>
    204e8214:	a9417bfd 	ldp	x29, x30, [sp, #16]
    204e8218:	d0000000 	adrp	x0, 204ea000 <wakeupmix_irq_mask+0x2c>
    204e821c:	a94253f3 	ldp	x19, x20, [sp, #32]
    204e8220:	910c0000 	add	x0, x0, #0x300
    204e8224:	a9435bf5 	ldp	x21, x22, [sp, #48]
    204e8228:	f94023f7 	ldr	x23, [sp, #64]
    204e822c:	910143ff 	add	sp, sp, #0x50
    204e8230:	17ffe241 	b	204e0b34 <tf_log>
    204e8234:	52800001 	mov	w1, #0x0                   	// #0
    204e8238:	17ffffbc 	b	204e8128 <trdc_config+0x98>
    204e823c:	0b0108c1 	add	w1, w6, w1, lsl #2
    204e8240:	b9400021 	ldr	w1, [x1]
    204e8244:	17ffffb9 	b	204e8128 <trdc_config+0x98>

00000000204e8248 <trdc_w_reinit>:
    204e8248:	a9bd7bfd 	stp	x29, x30, [sp, #-48]!
    204e824c:	f0000000 	adrp	x0, 204eb000 <__RO_END_UNALIGNED__>
    204e8250:	91106000 	add	x0, x0, #0x418
    204e8254:	910003fd 	mov	x29, sp
    204e8258:	a90153f3 	stp	x19, x20, [sp, #16]
    204e825c:	f0000013 	adrp	x19, 204eb000 <__RO_END_UNALIGNED__>
    204e8260:	9109c273 	add	x19, x19, #0x270
    204e8264:	52800194 	mov	w20, #0xc                   	// #12
    204e8268:	a9025bf5 	stp	x21, x22, [sp, #32]
    204e826c:	97ffe82b 	bl	204e2318 <trdc_mgr_mbc_setup>
    204e8270:	d2a848d6 	mov	x22, #0x42460000            	// #1111883776
    204e8274:	f0000000 	adrp	x0, 204eb000 <__RO_END_UNALIGNED__>
    204e8278:	9110a000 	add	x0, x0, #0x428
    204e827c:	97ffe827 	bl	204e2318 <trdc_mgr_mbc_setup>
    204e8280:	f0000015 	adrp	x21, 204eb000 <__RO_END_UNALIGNED__>
    204e8284:	910de2a0 	add	x0, x21, #0x378
    204e8288:	97ffe876 	bl	204e2460 <trdc_setup>
    204e828c:	f9400260 	ldr	x0, [x19]
    204e8290:	eb16001f 	cmp	x0, x22
    204e8294:	54000061 	b.ne	204e82a0 <trdc_w_reinit+0x58>  // b.any
    204e8298:	aa1303e0 	mov	x0, x19
    204e829c:	97ffe848 	bl	204e23bc <trdc_mgr_fused_slot_setup>
    204e82a0:	91004273 	add	x19, x19, #0x10
    204e82a4:	71000694 	subs	w20, w20, #0x1
    204e82a8:	54ffff21 	b.ne	204e828c <trdc_w_reinit+0x44>  // b.any
    204e82ac:	a94153f3 	ldp	x19, x20, [sp, #16]
    204e82b0:	910de2a0 	add	x0, x21, #0x378
    204e82b4:	a9425bf5 	ldp	x21, x22, [sp, #32]
    204e82b8:	a8c37bfd 	ldp	x29, x30, [sp], #48
    204e82bc:	17ffe8ec 	b	204e266c <trdc_try_lockup>

00000000204e82c0 <trdc_n_reinit>:
    204e82c0:	a9bd7bfd 	stp	x29, x30, [sp, #-48]!
    204e82c4:	f0000000 	adrp	x0, 204eb000 <__RO_END_UNALIGNED__>
    204e82c8:	9110e000 	add	x0, x0, #0x438
    204e82cc:	910003fd 	mov	x29, sp
    204e82d0:	a90153f3 	stp	x19, x20, [sp, #16]
    204e82d4:	f0000013 	adrp	x19, 204eb000 <__RO_END_UNALIGNED__>
    204e82d8:	9109c273 	add	x19, x19, #0x270
    204e82dc:	52800194 	mov	w20, #0xc                   	// #12
    204e82e0:	a9025bf5 	stp	x21, x22, [sp, #32]
    204e82e4:	d2a92036 	mov	x22, #0x49010000            	// #1224802304
    204e82e8:	97ffe80c 	bl	204e2318 <trdc_mgr_mbc_setup>
    204e82ec:	f0000015 	adrp	x21, 204eb000 <__RO_END_UNALIGNED__>
    204e82f0:	910f02a0 	add	x0, x21, #0x3c0
    204e82f4:	97ffe85b 	bl	204e2460 <trdc_setup>
    204e82f8:	f9400260 	ldr	x0, [x19]
    204e82fc:	eb16001f 	cmp	x0, x22
    204e8300:	54000061 	b.ne	204e830c <trdc_n_reinit+0x4c>  // b.any
    204e8304:	aa1303e0 	mov	x0, x19
    204e8308:	97ffe82d 	bl	204e23bc <trdc_mgr_fused_slot_setup>
    204e830c:	91004273 	add	x19, x19, #0x10
    204e8310:	71000694 	subs	w20, w20, #0x1
    204e8314:	54ffff21 	b.ne	204e82f8 <trdc_n_reinit+0x38>  // b.any
    204e8318:	a94153f3 	ldp	x19, x20, [sp, #16]
    204e831c:	910f02a0 	add	x0, x21, #0x3c0
    204e8320:	a9425bf5 	ldp	x21, x22, [sp, #32]
    204e8324:	a8c37bfd 	ldp	x29, x30, [sp], #48
    204e8328:	17ffe8d1 	b	204e266c <trdc_try_lockup>

00000000204e832c <arm_arch_svc_smc_handler>:
    204e832c:	a9b57bfd 	stp	x29, x30, [sp, #-176]!
    204e8330:	2a0003e2 	mov	w2, w0
    204e8334:	aa0103e0 	mov	x0, x1
    204e8338:	910003fd 	mov	x29, sp
    204e833c:	52800081 	mov	w1, #0x4                   	// #4
    204e8340:	f9000bf3 	str	x19, [sp, #16]
    204e8344:	72b00001 	movk	w1, #0x8000, lsl #16
    204e8348:	aa0603f3 	mov	x19, x6
    204e834c:	6b01005f 	cmp	w2, w1
    204e8350:	540002c0 	b.eq	204e83a8 <arm_arch_svc_smc_handler+0x7c>  // b.none
    204e8354:	54000188 	b.hi	204e8384 <arm_arch_svc_smc_handler+0x58>  // b.pmore
    204e8358:	320107e3 	mov	w3, #0x80000001            	// #-2147483647
    204e835c:	6b03005f 	cmp	w2, w3
    204e8360:	54000440 	b.eq	204e83e8 <arm_arch_svc_smc_handler+0xbc>  // b.none
    204e8364:	11000463 	add	w3, w3, #0x1
    204e8368:	6b03005f 	cmp	w2, w3
    204e836c:	540002e0 	b.eq	204e83c8 <arm_arch_svc_smc_handler+0x9c>  // b.none
    204e8370:	51001021 	sub	w1, w1, #0x4
    204e8374:	6b01005f 	cmp	w2, w1
    204e8378:	54000300 	b.eq	204e83d8 <arm_arch_svc_smc_handler+0xac>  // b.none
    204e837c:	92800000 	mov	x0, #0xffffffffffffffff    	// #-1
    204e8380:	14000018 	b	204e83e0 <arm_arch_svc_smc_handler+0xb4>
    204e8384:	320183e1 	mov	w1, #0x80008000            	// #-2147450880
    204e8388:	6b01005f 	cmp	w2, w1
    204e838c:	54000168 	b.hi	204e83b8 <arm_arch_svc_smc_handler+0x8c>  // b.pmore
    204e8390:	32013fe0 	mov	w0, #0x80007fff            	// #-2147450881
    204e8394:	6b00005f 	cmp	w2, w0
    204e8398:	54000082 	b.cs	204e83a8 <arm_arch_svc_smc_handler+0x7c>  // b.hs, b.nlast
    204e839c:	32013be0 	mov	w0, #0x80003fff            	// #-2147467265
    204e83a0:	6b00005f 	cmp	w2, w0
    204e83a4:	54fffec1 	b.ne	204e837c <arm_arch_svc_smc_handler+0x50>  // b.any
    204e83a8:	aa1303e0 	mov	x0, x19
    204e83ac:	f9400bf3 	ldr	x19, [sp, #16]
    204e83b0:	a8cb7bfd 	ldp	x29, x30, [sp], #176
    204e83b4:	d65f03c0 	ret
    204e83b8:	52800041 	mov	w1, #0x2                   	// #2
    204e83bc:	72b80001 	movk	w1, #0xc000, lsl #16
    204e83c0:	6b01005f 	cmp	w2, w1
    204e83c4:	54fffdc1 	b.ne	204e837c <arm_arch_svc_smc_handler+0x50>  // b.any
    204e83c8:	f100041f 	cmp	x0, #0x1
    204e83cc:	54000721 	b.ne	204e84b0 <arm_arch_svc_smc_handler+0x184>  // b.any
    204e83d0:	97fff2d6 	bl	204e4f28 <plat_get_soc_revision>
    204e83d4:	14000014 	b	204e8424 <arm_arch_svc_smc_handler+0xf8>
    204e83d8:	d28000a0 	mov	x0, #0x5                   	// #5
    204e83dc:	f2a00020 	movk	x0, #0x1, lsl #16
    204e83e0:	f9000260 	str	x0, [x19]
    204e83e4:	17fffff1 	b	204e83a8 <arm_arch_svc_smc_handler+0x7c>
    204e83e8:	32013be1 	mov	w1, #0x80003fff            	// #-2147467265
    204e83ec:	eb01001f 	cmp	x0, x1
    204e83f0:	54000440 	b.eq	204e8478 <arm_arch_svc_smc_handler+0x14c>  // b.none
    204e83f4:	54000268 	b.hi	204e8440 <arm_arch_svc_smc_handler+0x114>  // b.pmore
    204e83f8:	d2800041 	mov	x1, #0x2                   	// #2
    204e83fc:	f2b00001 	movk	x1, #0x8000, lsl #16
    204e8400:	eb01001f 	cmp	x0, x1
    204e8404:	54000360 	b.eq	204e8470 <arm_arch_svc_smc_handler+0x144>  // b.none
    204e8408:	32010be2 	mov	w2, #0x80000003            	// #-2147483645
    204e840c:	eb02001f 	cmp	x0, x2
    204e8410:	540000e2 	b.cs	204e842c <arm_arch_svc_smc_handler+0x100>  // b.hs, b.nlast
    204e8414:	b26183e1 	mov	x1, #0xffffffff80000000    	// #-2147483648
    204e8418:	8b010000 	add	x0, x0, x1
    204e841c:	f100041f 	cmp	x0, #0x1
    204e8420:	5a9f93e0 	csetm	w0, hi	// hi = pmore
    204e8424:	93407c00 	sxtw	x0, w0
    204e8428:	17ffffee 	b	204e83e0 <arm_arch_svc_smc_handler+0xb4>
    204e842c:	91000821 	add	x1, x1, #0x2
    204e8430:	eb01001f 	cmp	x0, x1
    204e8434:	540002e0 	b.eq	204e8490 <arm_arch_svc_smc_handler+0x164>  // b.none
    204e8438:	12800000 	mov	w0, #0xffffffff            	// #-1
    204e843c:	17fffffa 	b	204e8424 <arm_arch_svc_smc_handler+0xf8>
    204e8440:	32013fe1 	mov	w1, #0x80007fff            	// #-2147450881
    204e8444:	eb01001f 	cmp	x0, x1
    204e8448:	54000300 	b.eq	204e84a8 <arm_arch_svc_smc_handler+0x17c>  // b.none
    204e844c:	320183e1 	mov	w1, #0x80008000            	// #-2147450880
    204e8450:	eb01001f 	cmp	x0, x1
    204e8454:	54ffff21 	b.ne	204e8438 <arm_arch_svc_smc_handler+0x10c>  // b.any
    204e8458:	5282ca61 	mov	w1, #0x1653                	// #5715
    204e845c:	5280fc20 	mov	w0, #0x7e1                 	// #2017
    204e8460:	97ffe8cb 	bl	204e278c <check_erratum_applies>
    204e8464:	7100001f 	cmp	w0, #0x0
    204e8468:	1a9f17e0 	cset	w0, eq	// eq = none
    204e846c:	17ffffee 	b	204e8424 <arm_arch_svc_smc_handler+0xf8>
    204e8470:	97fff2b2 	bl	204e4f38 <plat_is_smccc_feature_available>
    204e8474:	17ffffec 	b	204e8424 <arm_arch_svc_smc_handler+0xf8>
    204e8478:	52800061 	mov	w1, #0x3                   	// #3
    204e847c:	52800000 	mov	w0, #0x0                   	// #0
    204e8480:	97ffe8c3 	bl	204e278c <check_erratum_applies>
    204e8484:	34fffea0 	cbz	w0, 204e8458 <arm_arch_svc_smc_handler+0x12c>
    204e8488:	52800000 	mov	w0, #0x0                   	// #0
    204e848c:	17ffffe6 	b	204e8424 <arm_arch_svc_smc_handler+0xf8>
    204e8490:	5283d921 	mov	w1, #0x1ec9                	// #7881
    204e8494:	5280fd00 	mov	w0, #0x7e8                 	// #2024
    204e8498:	97ffe8bd 	bl	204e278c <check_erratum_applies>
    204e849c:	7100041f 	cmp	w0, #0x1
    204e84a0:	5a9f03e0 	csetm	w0, ne	// ne = any
    204e84a4:	17ffffe0 	b	204e8424 <arm_arch_svc_smc_handler+0xf8>
    204e84a8:	12800020 	mov	w0, #0xfffffffe            	// #-2
    204e84ac:	17ffffde 	b	204e8424 <arm_arch_svc_smc_handler+0xf8>
    204e84b0:	b5000060 	cbnz	x0, 204e84bc <arm_arch_svc_smc_handler+0x190>
    204e84b4:	97fff29b 	bl	204e4f20 <plat_get_soc_version>
    204e84b8:	17ffffdb 	b	204e8424 <arm_arch_svc_smc_handler+0xf8>
    204e84bc:	f262005f 	tst	x2, #0x40000000
    204e84c0:	fa421800 	ccmp	x0, #0x2, #0x0, ne	// ne = any
    204e84c4:	54000581 	b.ne	204e8574 <arm_arch_svc_smc_handler+0x248>  // b.any
    204e84c8:	d2801102 	mov	x2, #0x88                  	// #136
    204e84cc:	52800001 	mov	w1, #0x0                   	// #0
    204e84d0:	9100a3e0 	add	x0, sp, #0x28
    204e84d4:	940004ab 	bl	204e9780 <memset>
    204e84d8:	9100a3e0 	add	x0, sp, #0x28
    204e84dc:	97fff295 	bl	204e4f30 <plat_get_soc_name>
    204e84e0:	35fffa20 	cbnz	w0, 204e8424 <arm_arch_svc_smc_handler+0xf8>
    204e84e4:	f94033e0 	ldr	x0, [sp, #96]
    204e84e8:	f9002260 	str	x0, [x19, #64]
    204e84ec:	f94037e0 	ldr	x0, [sp, #104]
    204e84f0:	f9002660 	str	x0, [x19, #72]
    204e84f4:	f9403be0 	ldr	x0, [sp, #112]
    204e84f8:	f9002a60 	str	x0, [x19, #80]
    204e84fc:	f9403fe0 	ldr	x0, [sp, #120]
    204e8500:	f9002e60 	str	x0, [x19, #88]
    204e8504:	f94043e0 	ldr	x0, [sp, #128]
    204e8508:	f9003260 	str	x0, [x19, #96]
    204e850c:	f94047e0 	ldr	x0, [sp, #136]
    204e8510:	f9003660 	str	x0, [x19, #104]
    204e8514:	f9404be0 	ldr	x0, [sp, #144]
    204e8518:	f9003a60 	str	x0, [x19, #112]
    204e851c:	f9404fe0 	ldr	x0, [sp, #152]
    204e8520:	f9003e60 	str	x0, [x19, #120]
    204e8524:	f94053e0 	ldr	x0, [sp, #160]
    204e8528:	f9004260 	str	x0, [x19, #128]
    204e852c:	f94057e0 	ldr	x0, [sp, #168]
    204e8530:	f9004660 	str	x0, [x19, #136]
    204e8534:	f9402fe0 	ldr	x0, [sp, #88]
    204e8538:	f9001e60 	str	x0, [x19, #56]
    204e853c:	f9402be0 	ldr	x0, [sp, #80]
    204e8540:	f9001a60 	str	x0, [x19, #48]
    204e8544:	f94027e0 	ldr	x0, [sp, #72]
    204e8548:	f9001660 	str	x0, [x19, #40]
    204e854c:	f94023e0 	ldr	x0, [sp, #64]
    204e8550:	f9001260 	str	x0, [x19, #32]
    204e8554:	f9401fe0 	ldr	x0, [sp, #56]
    204e8558:	f9000e60 	str	x0, [x19, #24]
    204e855c:	f9401be0 	ldr	x0, [sp, #48]
    204e8560:	f9000a60 	str	x0, [x19, #16]
    204e8564:	f94017e0 	ldr	x0, [sp, #40]
    204e8568:	f9000660 	str	x0, [x19, #8]
    204e856c:	d2800000 	mov	x0, #0x0                   	// #0
    204e8570:	17ffff9c 	b	204e83e0 <arm_arch_svc_smc_handler+0xb4>
    204e8574:	92800040 	mov	x0, #0xfffffffffffffffd    	// #-3
    204e8578:	17ffff9a 	b	204e83e0 <arm_arch_svc_smc_handler+0xb4>

00000000204e857c <std_svc_smc_handler>:
    204e857c:	a9be7bfd 	stp	x29, x30, [sp, #-32]!
    204e8580:	910003fd 	mov	x29, sp
    204e8584:	f9000bf3 	str	x19, [sp, #16]
    204e8588:	aa0603f3 	mov	x19, x6
    204e858c:	37f000a0 	tbnz	w0, #30, 204e85a0 <std_svc_smc_handler+0x24>
    204e8590:	92407c21 	and	x1, x1, #0xffffffff
    204e8594:	92407c42 	and	x2, x2, #0xffffffff
    204e8598:	92407c63 	and	x3, x3, #0xffffffff
    204e859c:	92407c84 	and	x4, x4, #0xffffffff
    204e85a0:	721b281f 	tst	w0, #0xffe0
    204e85a4:	54000101 	b.ne	204e85c4 <std_svc_smc_handler+0x48>  // b.any
    204e85a8:	aa1303e6 	mov	x6, x19
    204e85ac:	97ffed52 	bl	204e3af4 <psci_smc_handler>
    204e85b0:	f9000260 	str	x0, [x19]
    204e85b4:	aa1303e0 	mov	x0, x19
    204e85b8:	f9400bf3 	ldr	x19, [sp, #16]
    204e85bc:	a8c27bfd 	ldp	x29, x30, [sp], #32
    204e85c0:	d65f03c0 	ret
    204e85c4:	529fe021 	mov	w1, #0xff01                	// #65281
    204e85c8:	72b08001 	movk	w1, #0x8400, lsl #16
    204e85cc:	6b01001f 	cmp	w0, w1
    204e85d0:	54000120 	b.eq	204e85f4 <std_svc_smc_handler+0x78>  // b.none
    204e85d4:	11000821 	add	w1, w1, #0x2
    204e85d8:	6b01001f 	cmp	w0, w1
    204e85dc:	54000240 	b.eq	204e8624 <std_svc_smc_handler+0xa8>  // b.none
    204e85e0:	51000c21 	sub	w1, w1, #0x3
    204e85e4:	6b01001f 	cmp	w0, w1
    204e85e8:	d2800320 	mov	x0, #0x19                  	// #25
    204e85ec:	da9f0000 	csinv	x0, x0, xzr, eq	// eq = none
    204e85f0:	17fffff0 	b	204e85b0 <std_svc_smc_handler+0x34>
    204e85f4:	d2882ac0 	mov	x0, #0x4156                	// #16726
    204e85f8:	f2bc5ec0 	movk	x0, #0xe2f6, lsl #16
    204e85fc:	f9000e60 	str	x0, [x19, #24]
    204e8600:	d285b5c0 	mov	x0, #0x2dae                	// #11694
    204e8604:	f2bf7800 	movk	x0, #0xfbc0, lsl #16
    204e8608:	f9000a60 	str	x0, [x19, #16]
    204e860c:	d29f0c60 	mov	x0, #0xf863                	// #63587
    204e8610:	f2a8fd00 	movk	x0, #0x47e8, lsl #16
    204e8614:	f9000660 	str	x0, [x19, #8]
    204e8618:	d2920b60 	mov	x0, #0x905b                	// #36955
    204e861c:	f2a211a0 	movk	x0, #0x108d, lsl #16
    204e8620:	17ffffe4 	b	204e85b0 <std_svc_smc_handler+0x34>
    204e8624:	d2800020 	mov	x0, #0x1                   	// #1
    204e8628:	f9000660 	str	x0, [x19, #8]
    204e862c:	d2800000 	mov	x0, #0x0                   	// #0
    204e8630:	17ffffe0 	b	204e85b0 <std_svc_smc_handler+0x34>

00000000204e8634 <std_svc_setup>:
    204e8634:	a9bf7bfd 	stp	x29, x30, [sp, #-16]!
    204e8638:	529ffc00 	mov	w0, #0xffe0                	// #65504
    204e863c:	910003fd 	mov	x29, sp
    204e8640:	97ffdf19 	bl	204e02a4 <get_arm_std_svc_args>
    204e8644:	97ffee91 	bl	204e4088 <psci_setup>
    204e8648:	7100001f 	cmp	w0, #0x0
    204e864c:	1a9f07e0 	cset	w0, ne	// ne = any
    204e8650:	a8c17bfd 	ldp	x29, x30, [sp], #16
    204e8654:	d65f03c0 	ret

00000000204e8658 <report_unhandled_exception>:
    204e8658:	94000271 	bl	204e901c <plat_panic_handler>

00000000204e865c <sync_exception_handler>:
    204e865c:	37f00740 	tbnz	w0, #30, 204e8744 <smc_prohibited>

00000000204e8660 <sync_handler64>:
    204e8660:	9400019a 	bl	204e8cc8 <prepare_el3_entry>
    204e8664:	aa1f03e5 	mov	x5, xzr
    204e8668:	910003e6 	mov	x6, sp
    204e866c:	f94084cc 	ldr	x12, [x6, #264]
    204e8670:	d50040bf 	msr	spsel, #0x0
    204e8674:	d53e4010 	mrs	x16, spsr_el3
    204e8678:	d53e4031 	mrs	x17, elr_el3
    204e867c:	a91144d0 	stp	x16, x17, [x6, #272]
    204e8680:	d53e1112 	mrs	x18, scr_el3
    204e8684:	aa1f03e7 	mov	x7, xzr
    204e8688:	b3400247 	bfxil	x7, x18, #0, #1
    204e868c:	d53e5210 	mrs	x16, esr_el3
    204e8690:	d35a7e11 	ubfx	x17, x16, #26, #6
    204e8694:	f100623f 	cmp	x17, #0x18
    204e8698:	540002a0 	b.eq	204e86ec <sysreg_handler64>  // b.none
    204e869c:	9100019f 	mov	sp, x12
    204e86a0:	36f80060 	tbz	w0, #31, 204e86ac <sync_handler64+0x4c>
    204e86a4:	f26f181f 	tst	x0, #0xfe0000
    204e86a8:	54000481 	b.ne	204e8738 <smc_unknown>  // b.any
    204e86ac:	92700010 	and	x16, x0, #0x10000
    204e86b0:	aa1000e7 	orr	x7, x7, x16
    204e86b4:	926ff800 	and	x0, x0, #0xfffffffffffeffff
    204e86b8:	d3587410 	ubfx	x16, x0, #24, #6
    204e86bc:	d35f7c0f 	ubfx	x15, x0, #31, #1
    204e86c0:	aa0f1a10 	orr	x16, x16, x15, lsl #6
    204e86c4:	9000004e 	adrp	x14, 204f0000 <imx_gicv3_ctx+0x26d0>
    204e86c8:	9109e1ce 	add	x14, x14, #0x278
    204e86cc:	387069cf 	ldrb	w15, [x14, x16]
    204e86d0:	3738034f 	tbnz	w15, #7, 204e8738 <smc_unknown>
    204e86d4:	d000000b 	adrp	x11, 204ea000 <wakeupmix_irq_mask+0x2c>
    204e86d8:	910e416b 	add	x11, x11, #0x390
    204e86dc:	531b69ea 	lsl	w10, w15, #5
    204e86e0:	f86a496f 	ldr	x15, [x11, w10, uxtw]
    204e86e4:	d63f01e0 	blr	x15
    204e86e8:	140001b3 	b	204e8db4 <el3_exit>

00000000204e86ec <sysreg_handler64>:
    204e86ec:	aa1003e0 	mov	x0, x16
    204e86f0:	aa0603e1 	mov	x1, x6
    204e86f4:	aa0703e2 	mov	x2, x7
    204e86f8:	aa0603f3 	mov	x19, x6
    204e86fc:	9100019f 	mov	sp, x12
    204e8700:	97ffdf49 	bl	204e0424 <handle_sysreg_trap>
    204e8704:	6a00001f 	tst	w0, w0
    204e8708:	540000c4 	b.mi	204e8720 <sysreg_handler64+0x34>  // b.first
    204e870c:	54000080 	b.eq	204e871c <sysreg_handler64+0x30>  // b.none
    204e8710:	f9408e61 	ldr	x1, [x19, #280]
    204e8714:	91001021 	add	x1, x1, #0x4
    204e8718:	f9008e61 	str	x1, [x19, #280]
    204e871c:	140001a6 	b	204e8db4 <el3_exit>
    204e8720:	d53e4000 	mrs	x0, spsr_el3
    204e8724:	f27c001f 	tst	x0, #0x10
    204e8728:	54000c81 	b.ne	204e88b8 <elx_panic>  // b.any
    204e872c:	aa1303e0 	mov	x0, x19
    204e8730:	97ffdfe0 	bl	204e06b0 <inject_undef64>
    204e8734:	140001a0 	b	204e8db4 <el3_exit>

00000000204e8738 <smc_unknown>:
    204e8738:	92800000 	mov	x0, #0xffffffffffffffff    	// #-1
    204e873c:	f90000c0 	str	x0, [x6]
    204e8740:	1400019d 	b	204e8db4 <el3_exit>

00000000204e8744 <smc_prohibited>:
    204e8744:	a94e77fc 	ldp	x28, x29, [sp, #224]
    204e8748:	f9407bfe 	ldr	x30, [sp, #240]
    204e874c:	92800000 	mov	x0, #0xffffffffffffffff    	// #-1
    204e8750:	d69f03e0 	eret
    204e8754:	d5033f9f 	dsb	sy
    204e8758:	d5033fdf 	isb

00000000204e875c <handle_interrupt_exception>:
    204e875c:	9400015b 	bl	204e8cc8 <prepare_el3_entry>
    204e8760:	d53e4000 	mrs	x0, spsr_el3
    204e8764:	d53e4021 	mrs	x1, elr_el3
    204e8768:	a91107e0 	stp	x0, x1, [sp, #272]
    204e876c:	f94087e2 	ldr	x2, [sp, #264]
    204e8770:	910003f4 	mov	x20, sp
    204e8774:	d50040bf 	msr	spsel, #0x0
    204e8778:	9100005f 	mov	sp, x2
    204e877c:	97fff1fb 	bl	204e4f68 <plat_ic_get_pending_interrupt_type>
    204e8780:	f100101f 	cmp	x0, #0x4
    204e8784:	54000140 	b.eq	204e87ac <interrupt_exit>  // b.none
    204e8788:	97ffe063 	bl	204e0914 <get_interrupt_type_handler>
    204e878c:	b4000100 	cbz	x0, 204e87ac <interrupt_exit>
    204e8790:	aa0003f5 	mov	x21, x0
    204e8794:	b2407fe0 	mov	x0, #0xffffffff            	// #4294967295
    204e8798:	d53e1102 	mrs	x2, scr_el3
    204e879c:	d3400041 	ubfx	x1, x2, #0, #1
    204e87a0:	aa1403e2 	mov	x2, x20
    204e87a4:	aa1f03e3 	mov	x3, xzr
    204e87a8:	d63f02a0 	blr	x21

00000000204e87ac <interrupt_exit>:
    204e87ac:	14000182 	b	204e8db4 <el3_exit>

00000000204e87b0 <imp_def_el3_handler>:
    204e87b0:	a90007e0 	stp	x0, x1, [sp]
    204e87b4:	a9010fe2 	stp	x2, x3, [sp, #16]
    204e87b8:	a90217e4 	stp	x4, x5, [sp, #32]
    204e87bc:	9400012d 	bl	204e8c70 <get_cpu_ops_ptr>
    204e87c0:	f9400800 	ldr	x0, [x0, #16]
    204e87c4:	b4000080 	cbz	x0, 204e87d4 <el3_handler_exit>
    204e87c8:	d53e5201 	mrs	x1, esr_el3
    204e87cc:	d35a7c21 	ubfx	x1, x1, #26, #6
    204e87d0:	d63f0000 	blr	x0

00000000204e87d4 <el3_handler_exit>:
    204e87d4:	a94007e0 	ldp	x0, x1, [sp]
    204e87d8:	a9410fe2 	ldp	x2, x3, [sp, #16]
    204e87dc:	a94217e4 	ldp	x4, x5, [sp, #32]
    204e87e0:	f9407bfe 	ldr	x30, [sp, #240]
    204e87e4:	97ffff9d 	bl	204e8658 <report_unhandled_exception>

00000000204e87e8 <reflect_pending_async_ea_to_lower_el>:
    204e87e8:	a90e77fc 	stp	x28, x29, [sp, #224]
    204e87ec:	f9409ffd 	ldr	x29, [sp, #312]
    204e87f0:	d53e403c 	mrs	x28, elr_el3
    204e87f4:	eb1c03bf 	cmp	x29, x28
    204e87f8:	54000080 	b.eq	204e8808 <check_loop_ctr>  // b.none
    204e87fc:	f9009ffc 	str	x28, [sp, #312]
    204e8800:	f900a3ff 	str	xzr, [sp, #320]
    204e8804:	14000006 	b	204e881c <skip_loop_ctr>

00000000204e8808 <check_loop_ctr>:
    204e8808:	f940a3fd 	ldr	x29, [sp, #320]
    204e880c:	910007bd 	add	x29, x29, #0x1
    204e8810:	f900a3fd 	str	x29, [sp, #320]
    204e8814:	f10193bf 	cmp	x29, #0x64
    204e8818:	5400052a 	b.ge	204e88bc <el3_panic>  // b.tcont

00000000204e881c <skip_loop_ctr>:
    204e881c:	d53ec01d 	mrs	x29, vbar_el3
    204e8820:	cb1d03de 	sub	x30, x30, x29
    204e8824:	924023de 	and	x30, x30, #0x1ff
    204e8828:	f10203df 	cmp	x30, #0x80
    204e882c:	5400012a 	b.ge	204e8850 <skip_smc_check>  // b.tcont
    204e8830:	d53e521e 	mrs	x30, esr_el3
    204e8834:	d35a7fde 	ubfx	x30, x30, #26, #6
    204e8838:	f1004fdf 	cmp	x30, #0x13
    204e883c:	54000080 	b.eq	204e884c <subtract_elr_el3>  // b.none
    204e8840:	f1005fdf 	cmp	x30, #0x17
    204e8844:	54000040 	b.eq	204e884c <subtract_elr_el3>  // b.none
    204e8848:	14000002 	b	204e8850 <skip_smc_check>

00000000204e884c <subtract_elr_el3>:
    204e884c:	d100139c 	sub	x28, x28, #0x4

00000000204e8850 <skip_smc_check>:
    204e8850:	d51e403c 	msr	elr_el3, x28
    204e8854:	a94e77fc 	ldp	x28, x29, [sp, #224]
    204e8858:	f9407bfe 	ldr	x30, [sp, #240]
    204e885c:	d69f03e0 	eret
    204e8860:	d5033f9f 	dsb	sy
    204e8864:	d5033fdf 	isb

00000000204e8868 <asm_print_str>:
    204e8868:	aa1e03e3 	mov	x3, x30
    204e886c:	38401480 	ldrb	w0, [x4], #1
    204e8870:	b4000060 	cbz	x0, 204e887c <asm_print_str+0x14>
    204e8874:	940001b4 	bl	204e8f44 <plat_crash_console_putc>
    204e8878:	17fffffd 	b	204e886c <asm_print_str+0x4>
    204e887c:	d65f0060 	ret	x3

00000000204e8880 <asm_print_hex>:
    204e8880:	d2800805 	mov	x5, #0x40                  	// #64

00000000204e8884 <asm_print_hex_bits>:
    204e8884:	aa1e03e3 	mov	x3, x30
    204e8888:	d10010a5 	sub	x5, x5, #0x4
    204e888c:	9ac52480 	lsr	x0, x4, x5
    204e8890:	92400c00 	and	x0, x0, #0xf
    204e8894:	f100281f 	cmp	x0, #0xa
    204e8898:	54000043 	b.cc	204e88a0 <asm_print_hex_bits+0x1c>  // b.lo, b.ul, b.last
    204e889c:	91009c00 	add	x0, x0, #0x27
    204e88a0:	9100c000 	add	x0, x0, #0x30
    204e88a4:	940001a8 	bl	204e8f44 <plat_crash_console_putc>
    204e88a8:	b5ffff05 	cbnz	x5, 204e8888 <asm_print_hex_bits+0x4>
    204e88ac:	d65f0060 	ret	x3

00000000204e88b0 <asm_print_newline>:
    204e88b0:	d2800140 	mov	x0, #0xa                   	// #10
    204e88b4:	140001a4 	b	204e8f44 <plat_crash_console_putc>

00000000204e88b8 <elx_panic>:
    204e88b8:	14000001 	b	204e88bc <el3_panic>

00000000204e88bc <el3_panic>:
    204e88bc:	aa1e03e6 	mov	x6, x30
    204e88c0:	9400018f 	bl	204e8efc <plat_crash_console_init>
    204e88c4:	b4000100 	cbz	x0, 204e88e4 <_panic_handler>
    204e88c8:	1000d4c4 	adr	x4, 204ea360 <panic_msg>
    204e88cc:	97ffffe7 	bl	204e8868 <asm_print_str>
    204e88d0:	aa0603e4 	mov	x4, x6
    204e88d4:	d1001084 	sub	x4, x4, #0x4
    204e88d8:	97ffffea 	bl	204e8880 <asm_print_hex>
    204e88dc:	97fffff5 	bl	204e88b0 <asm_print_newline>
    204e88e0:	940001ba 	bl	204e8fc8 <plat_crash_console_flush>

00000000204e88e4 <_panic_handler>:
    204e88e4:	aa0603fe 	mov	x30, x6
    204e88e8:	140001cd 	b	204e901c <plat_panic_handler>

00000000204e88ec <flush_dcache_range>:
    204e88ec:	b40001a1 	cbz	x1, 204e8920 <exit_loop_civac>
    204e88f0:	d53b0023 	mrs	x3, ctr_el0
    204e88f4:	d3504c63 	ubfx	x3, x3, #16, #4
    204e88f8:	d2800082 	mov	x2, #0x4                   	// #4
    204e88fc:	9ac32042 	lsl	x2, x2, x3
    204e8900:	8b010001 	add	x1, x0, x1
    204e8904:	d1000443 	sub	x3, x2, #0x1
    204e8908:	8a230000 	bic	x0, x0, x3

00000000204e890c <loop_civac>:
    204e890c:	d50b7e20 	dc	civac, x0
    204e8910:	8b020000 	add	x0, x0, x2
    204e8914:	eb01001f 	cmp	x0, x1
    204e8918:	54ffffa3 	b.cc	204e890c <loop_civac>  // b.lo, b.ul, b.last
    204e891c:	d5033f9f 	dsb	sy

00000000204e8920 <exit_loop_civac>:
    204e8920:	d65f03c0 	ret

00000000204e8924 <clean_dcache_range>:
    204e8924:	b40001a1 	cbz	x1, 204e8958 <exit_loop_cvac>
    204e8928:	d53b0023 	mrs	x3, ctr_el0
    204e892c:	d3504c63 	ubfx	x3, x3, #16, #4
    204e8930:	d2800082 	mov	x2, #0x4                   	// #4
    204e8934:	9ac32042 	lsl	x2, x2, x3
    204e8938:	8b010001 	add	x1, x0, x1
    204e893c:	d1000443 	sub	x3, x2, #0x1
    204e8940:	8a230000 	bic	x0, x0, x3

00000000204e8944 <loop_cvac>:
    204e8944:	d50b7a20 	dc	cvac, x0
    204e8948:	8b020000 	add	x0, x0, x2
    204e894c:	eb01001f 	cmp	x0, x1
    204e8950:	54ffffa3 	b.cc	204e8944 <loop_cvac>  // b.lo, b.ul, b.last
    204e8954:	d5033f9f 	dsb	sy

00000000204e8958 <exit_loop_cvac>:
    204e8958:	d65f03c0 	ret

00000000204e895c <inv_dcache_range>:
    204e895c:	b40001a1 	cbz	x1, 204e8990 <exit_loop_ivac>
    204e8960:	d53b0023 	mrs	x3, ctr_el0
    204e8964:	d3504c63 	ubfx	x3, x3, #16, #4
    204e8968:	d2800082 	mov	x2, #0x4                   	// #4
    204e896c:	9ac32042 	lsl	x2, x2, x3
    204e8970:	8b010001 	add	x1, x0, x1
    204e8974:	d1000443 	sub	x3, x2, #0x1
    204e8978:	8a230000 	bic	x0, x0, x3

00000000204e897c <loop_ivac>:
    204e897c:	d5087620 	dc	ivac, x0
    204e8980:	8b020000 	add	x0, x0, x2
    204e8984:	eb01001f 	cmp	x0, x1
    204e8988:	54ffffa3 	b.cc	204e897c <loop_ivac>  // b.lo, b.ul, b.last
    204e898c:	d5033f9f 	dsb	sy

00000000204e8990 <exit_loop_ivac>:
    204e8990:	d65f03c0 	ret

00000000204e8994 <do_dcsw_op>:
    204e8994:	b40004c3 	cbz	x3, 204e8a2c <exit>
    204e8998:	d538074c 	mrs	x12, id_aa64mmfr2_el1
    204e899c:	d3545d8c 	ubfx	x12, x12, #20, #4
    204e89a0:	1000048e 	adr	x14, 204e8a30 <dcsw_loop_table>
    204e89a4:	8b0015ce 	add	x14, x14, x0, lsl #5
    204e89a8:	aa0903e0 	mov	x0, x9
    204e89ac:	52800028 	mov	w8, #0x1                   	// #1

00000000204e89b0 <loop1>:
    204e89b0:	8b4a0542 	add	x2, x10, x10, lsr #1
    204e89b4:	9ac22401 	lsr	x1, x0, x2
    204e89b8:	92400821 	and	x1, x1, #0x7
    204e89bc:	f100083f 	cmp	x1, #0x2
    204e89c0:	540002a3 	b.cc	204e8a14 <level_done>  // b.lo, b.ul, b.last
    204e89c4:	d51a000a 	msr	csselr_el1, x10
    204e89c8:	d5033fdf 	isb
    204e89cc:	d5390001 	mrs	x1, ccsidr_el1
    204e89d0:	92400822 	and	x2, x1, #0x7
    204e89d4:	91001042 	add	x2, x2, #0x4
    204e89d8:	b400006c 	cbz	x12, 204e89e4 <loop1+0x34>
    204e89dc:	d3435c24 	ubfx	x4, x1, #3, #21
    204e89e0:	14000002 	b	204e89e8 <loop1+0x38>
    204e89e4:	d3433024 	ubfx	x4, x1, #3, #10
    204e89e8:	5ac01085 	clz	w5, w4
    204e89ec:	1ac52089 	lsl	w9, w4, w5
    204e89f0:	1ac52110 	lsl	w16, w8, w5
    204e89f4:	2a090149 	orr	w9, w10, w9
    204e89f8:	b400006c 	cbz	x12, 204e8a04 <loop1+0x54>
    204e89fc:	d360dc26 	ubfx	x6, x1, #32, #24
    204e8a00:	14000002 	b	204e8a08 <loop1+0x58>
    204e8a04:	530d6c26 	ubfx	w6, w1, #13, #15
    204e8a08:	1ac22111 	lsl	w17, w8, w2
    204e8a0c:	d5033f9f 	dsb	sy
    204e8a10:	d61f01c0 	br	x14

00000000204e8a14 <level_done>:
    204e8a14:	9100094a 	add	x10, x10, #0x2
    204e8a18:	eb0a007f 	cmp	x3, x10
    204e8a1c:	54fffca8 	b.hi	204e89b0 <loop1>  // b.pmore
    204e8a20:	d51a001f 	msr	csselr_el1, xzr
    204e8a24:	d5033f9f 	dsb	sy
    204e8a28:	d5033fdf 	isb

00000000204e8a2c <exit>:
    204e8a2c:	d65f03c0 	ret

00000000204e8a30 <dcsw_loop_table>:
    204e8a30:	1ac220c7 	lsl	w7, w6, w2

00000000204e8a34 <loop3_isw>:
    204e8a34:	2a07012b 	orr	w11, w9, w7
    204e8a38:	d508764b 	dc	isw, x11
    204e8a3c:	6b1100e7 	subs	w7, w7, w17
    204e8a40:	54ffffa2 	b.cs	204e8a34 <loop3_isw>  // b.hs, b.nlast
    204e8a44:	eb100129 	subs	x9, x9, x16
    204e8a48:	54ffff42 	b.cs	204e8a30 <dcsw_loop_table>  // b.hs, b.nlast
    204e8a4c:	17fffff2 	b	204e8a14 <level_done>

00000000204e8a50 <loop2_cisw>:
    204e8a50:	1ac220c7 	lsl	w7, w6, w2

00000000204e8a54 <loop3_cisw>:
    204e8a54:	2a07012b 	orr	w11, w9, w7
    204e8a58:	d5087e4b 	dc	cisw, x11
    204e8a5c:	6b1100e7 	subs	w7, w7, w17
    204e8a60:	54ffffa2 	b.cs	204e8a54 <loop3_cisw>  // b.hs, b.nlast
    204e8a64:	eb100129 	subs	x9, x9, x16
    204e8a68:	54ffff42 	b.cs	204e8a50 <loop2_cisw>  // b.hs, b.nlast
    204e8a6c:	17ffffea 	b	204e8a14 <level_done>

00000000204e8a70 <loop2_csw>:
    204e8a70:	1ac220c7 	lsl	w7, w6, w2

00000000204e8a74 <loop3_csw>:
    204e8a74:	2a07012b 	orr	w11, w9, w7
    204e8a78:	d5087a4b 	dc	csw, x11
    204e8a7c:	6b1100e7 	subs	w7, w7, w17
    204e8a80:	54ffffa2 	b.cs	204e8a74 <loop3_csw>  // b.hs, b.nlast
    204e8a84:	eb100129 	subs	x9, x9, x16
    204e8a88:	54ffff42 	b.cs	204e8a70 <loop2_csw>  // b.hs, b.nlast
    204e8a8c:	17ffffe2 	b	204e8a14 <level_done>

00000000204e8a90 <dcsw_op_all>:
    204e8a90:	d5390029 	mrs	x9, clidr_el1
    204e8a94:	d3586923 	ubfx	x3, x9, #24, #3
    204e8a98:	d37ff863 	lsl	x3, x3, #1
    204e8a9c:	aa1f03ea 	mov	x10, xzr
    204e8aa0:	17ffffbd 	b	204e8994 <do_dcsw_op>

00000000204e8aa4 <zeromem>:
    204e8aa4:	8b010002 	add	x2, x0, x1
    204e8aa8:	14000030 	b	204e8b68 <zero_normalmem+0xbc>

00000000204e8aac <zero_normalmem>:
    204e8aac:	8b010002 	add	x2, x0, x1
    204e8ab0:	d53b00e3 	mrs	x3, dczid_el0
    204e8ab4:	d3400c63 	ubfx	x3, x3, #0, #4
    204e8ab8:	d2800085 	mov	x5, #0x4                   	// #4
    204e8abc:	9ac320a3 	lsl	x3, x5, x3
    204e8ac0:	eb03003f 	cmp	x1, x3
    204e8ac4:	54000523 	b.cc	204e8b68 <zero_normalmem+0xbc>  // b.lo, b.ul, b.last
    204e8ac8:	d1000461 	sub	x1, x3, #0x1
    204e8acc:	ea01001f 	tst	x0, x1
    204e8ad0:	54000260 	b.eq	204e8b1c <zero_normalmem+0x70>  // b.none
    204e8ad4:	aa010004 	orr	x4, x0, x1
    204e8ad8:	91000484 	add	x4, x4, #0x1
    204e8adc:	b4000464 	cbz	x4, 204e8b68 <zero_normalmem+0xbc>
    204e8ae0:	eb02009f 	cmp	x4, x2
    204e8ae4:	54000428 	b.hi	204e8b68 <zero_normalmem+0xbc>  // b.pmore
    204e8ae8:	f2400c1f 	tst	x0, #0xf
    204e8aec:	540000e0 	b.eq	204e8b08 <zero_normalmem+0x5c>  // b.none
    204e8af0:	b2400c05 	orr	x5, x0, #0xf
    204e8af4:	910004a5 	add	x5, x5, #0x1
    204e8af8:	b4000385 	cbz	x5, 204e8b68 <zero_normalmem+0xbc>
    204e8afc:	3800141f 	strb	wzr, [x0], #1
    204e8b00:	eb05001f 	cmp	x0, x5
    204e8b04:	54ffffc1 	b.ne	204e8afc <zero_normalmem+0x50>  // b.any
    204e8b08:	eb04001f 	cmp	x0, x4
    204e8b0c:	54000082 	b.cs	204e8b1c <zero_normalmem+0x70>  // b.hs, b.nlast
    204e8b10:	a8817c1f 	stp	xzr, xzr, [x0], #16
    204e8b14:	eb04001f 	cmp	x0, x4
    204e8b18:	54ffffc3 	b.cc	204e8b10 <zero_normalmem+0x64>  // b.lo, b.ul, b.last
    204e8b1c:	8a210044 	bic	x4, x2, x1
    204e8b20:	eb04001f 	cmp	x0, x4
    204e8b24:	540000a2 	b.cs	204e8b38 <zero_normalmem+0x8c>  // b.hs, b.nlast
    204e8b28:	d50b7420 	dc	zva, x0
    204e8b2c:	8b030000 	add	x0, x0, x3
    204e8b30:	eb04001f 	cmp	x0, x4
    204e8b34:	54ffffa3 	b.cc	204e8b28 <zero_normalmem+0x7c>  // b.lo, b.ul, b.last
    204e8b38:	927cec44 	and	x4, x2, #0xfffffffffffffff0
    204e8b3c:	eb04001f 	cmp	x0, x4
    204e8b40:	54000082 	b.cs	204e8b50 <zero_normalmem+0xa4>  // b.hs, b.nlast
    204e8b44:	a8817c1f 	stp	xzr, xzr, [x0], #16
    204e8b48:	eb04001f 	cmp	x0, x4
    204e8b4c:	54ffffc3 	b.cc	204e8b44 <zero_normalmem+0x98>  // b.lo, b.ul, b.last
    204e8b50:	eb02001f 	cmp	x0, x2
    204e8b54:	54000080 	b.eq	204e8b64 <zero_normalmem+0xb8>  // b.none
    204e8b58:	3800141f 	strb	wzr, [x0], #1
    204e8b5c:	eb02001f 	cmp	x0, x2
    204e8b60:	54ffffc1 	b.ne	204e8b58 <zero_normalmem+0xac>  // b.any
    204e8b64:	d65f03c0 	ret
    204e8b68:	f2400c1f 	tst	x0, #0xf
    204e8b6c:	54fffe60 	b.eq	204e8b38 <zero_normalmem+0x8c>  // b.none
    204e8b70:	b2400c04 	orr	x4, x0, #0xf
    204e8b74:	91000484 	add	x4, x4, #0x1
    204e8b78:	b4fffec4 	cbz	x4, 204e8b50 <zero_normalmem+0xa4>
    204e8b7c:	eb02009f 	cmp	x4, x2
    204e8b80:	54fffe82 	b.cs	204e8b50 <zero_normalmem+0xa4>  // b.hs, b.nlast
    204e8b84:	3800141f 	strb	wzr, [x0], #1
    204e8b88:	eb04001f 	cmp	x0, x4
    204e8b8c:	54ffffc1 	b.ne	204e8b84 <zero_normalmem+0xd8>  // b.any
    204e8b90:	17ffffea 	b	204e8b38 <zero_normalmem+0x8c>

00000000204e8b94 <cortex_a55_reset_func>:
    204e8b94:	aa1e03ef 	mov	x15, x30
    204e8b98:	d5380000 	mrs	x0, midr_el1
    204e8b9c:	d3505c0e 	ubfx	x14, x0, #16, #8
    204e8ba0:	b3400c0e 	bfxil	x14, x0, #0, #4
    204e8ba4:	d5033fdf 	isb
    204e8ba8:	d65f01e0 	ret	x15

00000000204e8bac <check_erratum_cortex_a55_768277>:
    204e8bac:	f100001f 	cmp	x0, #0x0
    204e8bb0:	9a9f87e0 	cset	x0, ls	// ls = plast
    204e8bb4:	d65f03c0 	ret

00000000204e8bb8 <check_erratum_cortex_a55_778703>:
    204e8bb8:	aa1e03f0 	mov	x16, x30
    204e8bbc:	f100001f 	cmp	x0, #0x0
    204e8bc0:	9a9f87e0 	cset	x0, ls	// ls = plast
    204e8bc4:	d5390021 	mrs	x1, clidr_el1
    204e8bc8:	927a0821 	and	x1, x1, #0x1c0
    204e8bcc:	f100003f 	cmp	x1, #0x0
    204e8bd0:	d2800002 	mov	x2, #0x0                   	// #0
    204e8bd4:	9a820000 	csel	x0, x0, x2, eq	// eq = none
    204e8bd8:	d65f0200 	ret	x16

00000000204e8bdc <check_erratum_cortex_a55_798797>:
    204e8bdc:	f100001f 	cmp	x0, #0x0
    204e8be0:	9a9f87e0 	cset	x0, ls	// ls = plast
    204e8be4:	d65f03c0 	ret

00000000204e8be8 <check_erratum_cortex_a55_798953>:
    204e8be8:	d2800022 	mov	x2, #0x1                   	// #1
    204e8bec:	d2800003 	mov	x3, #0x0                   	// #0
    204e8bf0:	d538f321 	mrs	x1, s3_0_c15_c3_1
    204e8bf4:	d3401c20 	ubfx	x0, x1, #0, #8
    204e8bf8:	d2800001 	mov	x1, #0x0                   	// #0
    204e8bfc:	eb01001f 	cmp	x0, x1
    204e8c00:	9a830040 	csel	x0, x2, x3, eq	// eq = none
    204e8c04:	d65f03c0 	ret

00000000204e8c08 <check_erratum_cortex_a55_846532>:
    204e8c08:	f100041f 	cmp	x0, #0x1
    204e8c0c:	9a9f87e0 	cset	x0, ls	// ls = plast
    204e8c10:	d65f03c0 	ret

00000000204e8c14 <check_erratum_cortex_a55_903758>:
    204e8c14:	f100041f 	cmp	x0, #0x1
    204e8c18:	9a9f87e0 	cset	x0, ls	// ls = plast
    204e8c1c:	d65f03c0 	ret

00000000204e8c20 <check_erratum_cortex_a55_936184>:
    204e8c20:	d2800000 	mov	x0, #0x0                   	// #0
    204e8c24:	d538f301 	mrs	x1, s3_0_c15_c3_0
    204e8c28:	d34b2c21 	ubfx	x1, x1, #11, #1
    204e8c2c:	b40000c1 	cbz	x1, 204e8c44 <check_erratum_cortex_a55_936184+0x24>
    204e8c30:	d538f321 	mrs	x1, s3_0_c15_c3_1
    204e8c34:	d3401c22 	ubfx	x2, x1, #0, #8
    204e8c38:	f100805f 	cmp	x2, #0x20
    204e8c3c:	54000042 	b.cs	204e8c44 <check_erratum_cortex_a55_936184+0x24>  // b.hs, b.nlast
    204e8c40:	d2800020 	mov	x0, #0x1                   	// #1
    204e8c44:	d65f03c0 	ret

00000000204e8c48 <check_erratum_cortex_a55_1221012>:
    204e8c48:	f100401f 	cmp	x0, #0x10
    204e8c4c:	9a9f87e0 	cset	x0, ls	// ls = plast
    204e8c50:	d65f03c0 	ret

00000000204e8c54 <check_erratum_cortex_a55_1530923>:
    204e8c54:	d2800040 	mov	x0, #0x2                   	// #2
    204e8c58:	d65f03c0 	ret

00000000204e8c5c <cortex_a55_core_pwr_dwn>:
    204e8c5c:	d538f2e1 	mrs	x1, s3_0_c15_c2_7
    204e8c60:	b2400021 	orr	x1, x1, #0x1
    204e8c64:	d518f2e1 	msr	s3_0_c15_c2_7, x1
    204e8c68:	d5033fdf 	isb
    204e8c6c:	d65f03c0 	ret

00000000204e8c70 <get_cpu_ops_ptr>:
    204e8c70:	d5380002 	mrs	x2, midr_el1
    204e8c74:	d29ffe03 	mov	x3, #0xfff0                	// #65520
    204e8c78:	f2bfe003 	movk	x3, #0xff00, lsl #16
    204e8c7c:	0a030042 	and	w2, w2, w3
    204e8c80:	d0000005 	adrp	x5, 204ea000 <wakeupmix_irq_mask+0x2c>
    204e8c84:	911040a5 	add	x5, x5, #0x410
    204e8c88:	d2800000 	mov	x0, #0x0                   	// #0
    204e8c8c:	d0000004 	adrp	x4, 204ea000 <wakeupmix_irq_mask+0x2c>
    204e8c90:	910f6084 	add	x4, x4, #0x3d8
    204e8c94:	eb05009f 	cmp	x4, x5
    204e8c98:	540000e0 	b.eq	204e8cb4 <search_def_ptr>  // b.none
    204e8c9c:	f8438481 	ldr	x1, [x4], #56
    204e8ca0:	0a030021 	and	w1, w1, w3
    204e8ca4:	6b02003f 	cmp	w1, w2
    204e8ca8:	54ffff61 	b.ne	204e8c94 <get_cpu_ops_ptr+0x24>  // b.any
    204e8cac:	d100e080 	sub	x0, x4, #0x38
    204e8cb0:	d65f03c0 	ret

00000000204e8cb4 <search_def_ptr>:
    204e8cb4:	d65f03c0 	ret

00000000204e8cb8 <cpu_get_rev_var>:
    204e8cb8:	d5380001 	mrs	x1, midr_el1
    204e8cbc:	d3505c20 	ubfx	x0, x1, #16, #8
    204e8cc0:	b3400c20 	bfxil	x0, x1, #0, #4
    204e8cc4:	d65f03c0 	ret

00000000204e8cc8 <prepare_el3_entry>:
    204e8cc8:	d503223f 	psb	csync
    204e8ccc:	d5033fdf 	isb
    204e8cd0:	a90007e0 	stp	x0, x1, [sp]
    204e8cd4:	a9010fe2 	stp	x2, x3, [sp, #16]
    204e8cd8:	a90217e4 	stp	x4, x5, [sp, #32]
    204e8cdc:	a9031fe6 	stp	x6, x7, [sp, #48]
    204e8ce0:	a90427e8 	stp	x8, x9, [sp, #64]
    204e8ce4:	a9052fea 	stp	x10, x11, [sp, #80]
    204e8ce8:	a90637ec 	stp	x12, x13, [sp, #96]
    204e8cec:	a9073fee 	stp	x14, x15, [sp, #112]
    204e8cf0:	a90847f0 	stp	x16, x17, [sp, #128]
    204e8cf4:	a9094ff2 	stp	x18, x19, [sp, #144]
    204e8cf8:	a90a57f4 	stp	x20, x21, [sp, #160]
    204e8cfc:	a90b5ff6 	stp	x22, x23, [sp, #176]
    204e8d00:	a90c67f8 	stp	x24, x25, [sp, #192]
    204e8d04:	a90d6ffa 	stp	x26, x27, [sp, #208]
    204e8d08:	a90e77fc 	stp	x28, x29, [sp, #224]
    204e8d0c:	d5384112 	mrs	x18, sp_el0
    204e8d10:	f9007ff2 	str	x18, [sp, #248]
    204e8d14:	d53b9c09 	mrs	x9, pmcr_el0
    204e8d18:	f90093e9 	str	x9, [sp, #288]
    204e8d1c:	d50344ff 	msr	daifclr, #0x4
    204e8d20:	d53e132f 	mrs	x15, mdcr_el3
    204e8d24:	b27001ef 	orr	x15, x15, #0x10000
    204e8d28:	d51e132f 	msr	mdcr_el3, x15
    204e8d2c:	d53e110f 	mrs	x15, scr_el3
    204e8d30:	b27d01ef 	orr	x15, x15, #0x8
    204e8d34:	b27701ef 	orr	x15, x15, #0x200
    204e8d38:	9257f9ef 	and	x15, x15, #0xfffffeffffffffff
    204e8d3c:	d51e110f 	msr	scr_el3, x15
    204e8d40:	d53b9c0f 	mrs	x15, pmcr_el0
    204e8d44:	b27b01ef 	orr	x15, x15, #0x20
    204e8d48:	d51b9c0f 	msr	pmcr_el0, x15
    204e8d4c:	d53e114f 	mrs	x15, cptr_el3
    204e8d50:	b27801ef 	orr	x15, x15, #0x100
    204e8d54:	b27401ef 	orr	x15, x15, #0x1000
    204e8d58:	d51e114f 	msr	cptr_el3, x15
    204e8d5c:	d5033fdf 	isb
    204e8d60:	d65f03c0 	ret

00000000204e8d64 <restore_gp_pmcr_pauth_regs>:
    204e8d64:	f94093e0 	ldr	x0, [sp, #288]
    204e8d68:	d51b9c00 	msr	pmcr_el0, x0
    204e8d6c:	a94007e0 	ldp	x0, x1, [sp]
    204e8d70:	a9410fe2 	ldp	x2, x3, [sp, #16]
    204e8d74:	a94217e4 	ldp	x4, x5, [sp, #32]
    204e8d78:	a9431fe6 	ldp	x6, x7, [sp, #48]
    204e8d7c:	a94427e8 	ldp	x8, x9, [sp, #64]
    204e8d80:	a9452fea 	ldp	x10, x11, [sp, #80]
    204e8d84:	a94637ec 	ldp	x12, x13, [sp, #96]
    204e8d88:	a9473fee 	ldp	x14, x15, [sp, #112]
    204e8d8c:	a94847f0 	ldp	x16, x17, [sp, #128]
    204e8d90:	a9494ff2 	ldp	x18, x19, [sp, #144]
    204e8d94:	a94a57f4 	ldp	x20, x21, [sp, #160]
    204e8d98:	a94b5ff6 	ldp	x22, x23, [sp, #176]
    204e8d9c:	a94c67f8 	ldp	x24, x25, [sp, #192]
    204e8da0:	a94d6ffa 	ldp	x26, x27, [sp, #208]
    204e8da4:	f9407ffc 	ldr	x28, [sp, #248]
    204e8da8:	d518411c 	msr	sp_el0, x28
    204e8dac:	a94e77fc 	ldp	x28, x29, [sp, #224]
    204e8db0:	d65f03c0 	ret

00000000204e8db4 <el3_exit>:
    204e8db4:	910003f1 	mov	x17, sp
    204e8db8:	d50041bf 	msr	spsel, #0x1
    204e8dbc:	f90087f1 	str	x17, [sp, #264]
    204e8dc0:	f94083ea 	ldr	x10, [sp, #256]
    204e8dc4:	d37ef949 	ubfx	x9, x10, #62, #1
    204e8dc8:	f100053f 	cmp	x9, #0x1
    204e8dcc:	54000060 	b.eq	204e8dd8 <realm_state>  // b.none
    204e8dd0:	b3400149 	bfxil	x9, x10, #0, #1
    204e8dd4:	14000002 	b	204e8ddc <end>

00000000204e8dd8 <realm_state>:
    204e8dd8:	d2800049 	mov	x9, #0x2                   	// #2

00000000204e8ddc <end>:
    204e8ddc:	d280020a 	mov	x10, #0x10                  	// #16
    204e8de0:	9b0a7d29 	mul	x9, x9, x10
    204e8de4:	b000002a 	adrp	x10, 204ed000 <__STACKS_START__+0x1280>
    204e8de8:	9111014a 	add	x10, x10, #0x440
    204e8dec:	8b0a0129 	add	x9, x9, x10
    204e8df0:	aa0903e9 	mov	x9, x9
    204e8df4:	a9405133 	ldp	x19, x20, [x9]
    204e8df8:	d51e1153 	msr	cptr_el3, x19
    204e8dfc:	d5380408 	mrs	x8, id_aa64pfr0_el1
    204e8e00:	d368fd08 	lsr	x8, x8, #40
    204e8e04:	92400d08 	and	x8, x8, #0xf
    204e8e08:	d5380427 	mrs	x7, id_aa64pfr1_el1
    204e8e0c:	d350fce7 	lsr	x7, x7, #16
    204e8e10:	92400ce7 	and	x7, x7, #0xf
    204e8e14:	aa0800e7 	orr	x7, x7, x8
    204e8e18:	b4000067 	cbz	x7, 204e8e24 <no_mpam>
    204e8e1c:	f9400531 	ldr	x17, [x9, #8]
    204e8e20:	d51ea511 	msr	mpam3_el3, x17

00000000204e8e24 <no_mpam>:
    204e8e24:	d5033f9f 	dsb	sy
    204e8e28:	d5033fdf 	isb
    204e8e2c:	a95147f0 	ldp	x16, x17, [sp, #272]
    204e8e30:	f94083f2 	ldr	x18, [sp, #256]
    204e8e34:	f9409bf3 	ldr	x19, [sp, #304]
    204e8e38:	d51e4010 	msr	spsr_el3, x16
    204e8e3c:	d51e4031 	msr	elr_el3, x17
    204e8e40:	d51e1112 	msr	scr_el3, x18
    204e8e44:	d51e1333 	msr	mdcr_el3, x19
    204e8e48:	97ffffc7 	bl	204e8d64 <restore_gp_pmcr_pauth_regs>
    204e8e4c:	f9407bfe 	ldr	x30, [sp, #240]
    204e8e50:	f900a3ff 	str	xzr, [sp, #320]
    204e8e54:	d69f03e0 	eret
    204e8e58:	d5033f9f 	dsb	sy
    204e8e5c:	d5033fdf 	isb

00000000204e8e60 <spin_lock>:
    204e8e60:	52800022 	mov	w2, #0x1                   	// #1
    204e8e64:	d50320bf 	sevl

00000000204e8e68 <l1>:
    204e8e68:	d503205f 	wfe

00000000204e8e6c <l2>:
    204e8e6c:	885ffc01 	ldaxr	w1, [x0]
    204e8e70:	35ffffc1 	cbnz	w1, 204e8e68 <l1>
    204e8e74:	88017c02 	stxr	w1, w2, [x0]
    204e8e78:	35ffffa1 	cbnz	w1, 204e8e6c <l2>
    204e8e7c:	d65f03c0 	ret

00000000204e8e80 <spin_unlock>:
    204e8e80:	889ffc1f 	stlr	wzr, [x0]
    204e8e84:	d65f03c0 	ret

00000000204e8e88 <per_cpu_base>:
    204e8e88:	90000041 	adrp	x1, 204f0000 <imx_gicv3_ctx+0x26d0>
    204e8e8c:	910e0021 	add	x1, x1, #0x380
    204e8e90:	90000042 	adrp	x2, 204f0000 <imx_gicv3_ctx+0x26d0>
    204e8e94:	911a0042 	add	x2, x2, #0x680
    204e8e98:	cb010042 	sub	x2, x2, x1
    204e8e9c:	9b000440 	madd	x0, x2, x0, x1
    204e8ea0:	d65f03c0 	ret

00000000204e8ea4 <enable_mmu_direct_el3>:
    204e8ea4:	d50e871f 	tlbi	alle3
    204e8ea8:	aa0003e7 	mov	x7, x0
    204e8eac:	b0000020 	adrp	x0, 204ed000 <__STACKS_START__+0x1280>
    204e8eb0:	911f2000 	add	x0, x0, #0x7c8
    204e8eb4:	f9400001 	ldr	x1, [x0]
    204e8eb8:	d51ea201 	msr	mair_el3, x1
    204e8ebc:	f9400402 	ldr	x2, [x0, #8]
    204e8ec0:	d51e2042 	msr	tcr_el3, x2
    204e8ec4:	f9400803 	ldr	x3, [x0, #16]
    204e8ec8:	d51e2003 	msr	ttbr0_el3, x3
    204e8ecc:	d5033b9f 	dsb	ish
    204e8ed0:	d5033fdf 	isb
    204e8ed4:	d53e1004 	mrs	x4, sctlr_el3
    204e8ed8:	d28000a5 	mov	x5, #0x5                   	// #5
    204e8edc:	f2a00105 	movk	x5, #0x8, lsl #16
    204e8ee0:	aa050084 	orr	x4, x4, x5
    204e8ee4:	927df885 	and	x5, x4, #0xfffffffffffffffb
    204e8ee8:	f24000ff 	tst	x7, #0x1
    204e8eec:	9a8410a4 	csel	x4, x5, x4, ne	// ne = any
    204e8ef0:	d51e1004 	msr	sctlr_el3, x4
    204e8ef4:	d5033fdf 	isb
    204e8ef8:	d65f03c0 	ret

00000000204e8efc <plat_crash_console_init>:
    204e8efc:	aa1e03e4 	mov	x4, x30
    204e8f00:	d2800003 	mov	x3, #0x0                   	// #0
    204e8f04:	f0000000 	adrp	x0, 204eb000 <__RO_END_UNALIGNED__>
    204e8f08:	911ec000 	add	x0, x0, #0x7b0
    204e8f0c:	d53e1001 	mrs	x1, sctlr_el3
    204e8f10:	f27e003f 	tst	x1, #0x4
    204e8f14:	54000040 	b.eq	204e8f1c <skip_spinlock>  // b.none
    204e8f18:	97ffffd2 	bl	204e8e60 <spin_lock>

00000000204e8f1c <skip_spinlock>:
    204e8f1c:	f0000001 	adrp	x1, 204eb000 <__RO_END_UNALIGNED__>
    204e8f20:	91356c21 	add	x1, x1, #0xd5b
    204e8f24:	08dffc22 	ldarb	w2, [x1]
    204e8f28:	7100005f 	cmp	w2, #0x0
    204e8f2c:	54000061 	b.ne	204e8f38 <init_error>  // b.any
    204e8f30:	d2800023 	mov	x3, #0x1                   	// #1
    204e8f34:	089ffc23 	stlrb	w3, [x1]

00000000204e8f38 <init_error>:
    204e8f38:	97ffffd2 	bl	204e8e80 <spin_unlock>
    204e8f3c:	aa0303e0 	mov	x0, x3
    204e8f40:	d65f0080 	ret	x4

00000000204e8f44 <plat_crash_console_putc>:
    204e8f44:	f0000001 	adrp	x1, 204eb000 <__RO_END_UNALIGNED__>
    204e8f48:	91112021 	add	x1, x1, #0x448
    204e8f4c:	a9003c2e 	stp	x14, x15, [x1]
    204e8f50:	a9014430 	stp	x16, x17, [x1, #16]
    204e8f54:	f900103e 	str	x30, [x1, #32]
    204e8f58:	2a0003ee 	mov	w14, w0
    204e8f5c:	b000002f 	adrp	x15, 204ed000 <__STACKS_START__+0x1280>
    204e8f60:	f94209ef 	ldr	x15, [x15, #1040]

00000000204e8f64 <putc_loop>:
    204e8f64:	b400026f 	cbz	x15, 204e8fb0 <putc_done>
    204e8f68:	b94009e1 	ldr	w1, [x15, #8]
    204e8f6c:	721e003f 	tst	w1, #0x4
    204e8f70:	540001c0 	b.eq	204e8fa8 <putc_continue>  // b.none
    204e8f74:	f94009e2 	ldr	x2, [x15, #16]
    204e8f78:	b4000182 	cbz	x2, 204e8fa8 <putc_continue>
    204e8f7c:	710029df 	cmp	w14, #0xa
    204e8f80:	540000e1 	b.ne	204e8f9c <putc>  // b.any
    204e8f84:	7218003f 	tst	w1, #0x100
    204e8f88:	540000a0 	b.eq	204e8f9c <putc>  // b.none
    204e8f8c:	aa0f03e1 	mov	x1, x15
    204e8f90:	528001a0 	mov	w0, #0xd                   	// #13
    204e8f94:	d63f0040 	blr	x2
    204e8f98:	f94009e2 	ldr	x2, [x15, #16]

00000000204e8f9c <putc>:
    204e8f9c:	aa0f03e1 	mov	x1, x15
    204e8fa0:	2a0e03e0 	mov	w0, w14
    204e8fa4:	d63f0040 	blr	x2

00000000204e8fa8 <putc_continue>:
    204e8fa8:	f94001ef 	ldr	x15, [x15]
    204e8fac:	17ffffee 	b	204e8f64 <putc_loop>

00000000204e8fb0 <putc_done>:
    204e8fb0:	f0000001 	adrp	x1, 204eb000 <__RO_END_UNALIGNED__>
    204e8fb4:	91112021 	add	x1, x1, #0x448
    204e8fb8:	a9403c2e 	ldp	x14, x15, [x1]
    204e8fbc:	a9414430 	ldp	x16, x17, [x1, #16]
    204e8fc0:	f940103e 	ldr	x30, [x1, #32]
    204e8fc4:	d65f03c0 	ret

00000000204e8fc8 <plat_crash_console_flush>:
    204e8fc8:	f0000001 	adrp	x1, 204eb000 <__RO_END_UNALIGNED__>
    204e8fcc:	91112021 	add	x1, x1, #0x448
    204e8fd0:	a9003c3e 	stp	x30, x15, [x1]
    204e8fd4:	a9014430 	stp	x16, x17, [x1, #16]
    204e8fd8:	b000002f 	adrp	x15, 204ed000 <__STACKS_START__+0x1280>
    204e8fdc:	f94209ef 	ldr	x15, [x15, #1040]

00000000204e8fe0 <flush_loop>:
    204e8fe0:	b400014f 	cbz	x15, 204e9008 <flush_done>
    204e8fe4:	b94009e1 	ldr	w1, [x15, #8]
    204e8fe8:	721e003f 	tst	w1, #0x4
    204e8fec:	540000a0 	b.eq	204e9000 <flush_continue>  // b.none
    204e8ff0:	f9400de2 	ldr	x2, [x15, #24]
    204e8ff4:	b4000062 	cbz	x2, 204e9000 <flush_continue>
    204e8ff8:	aa0f03e0 	mov	x0, x15
    204e8ffc:	d63f0040 	blr	x2

00000000204e9000 <flush_continue>:
    204e9000:	f94001ef 	ldr	x15, [x15]
    204e9004:	17fffff7 	b	204e8fe0 <flush_loop>

00000000204e9008 <flush_done>:
    204e9008:	d0000001 	adrp	x1, 204eb000 <__RO_END_UNALIGNED__>
    204e900c:	91112021 	add	x1, x1, #0x448
    204e9010:	a9403c3e 	ldp	x30, x15, [x1]
    204e9014:	a9414430 	ldp	x16, x17, [x1, #16]
    204e9018:	d65f03c0 	ret

00000000204e901c <plat_panic_handler>:
    204e901c:	d503207f 	wfi
    204e9020:	17ffffff 	b	204e901c <plat_panic_handler>

00000000204e9024 <bl31_plat_enable_mmu>:
    204e9024:	17ffffa0 	b	204e8ea4 <enable_mmu_direct_el3>

00000000204e9028 <plat_handle_el3_ea>:
    204e9028:	17fffd8c 	b	204e8658 <report_unhandled_exception>

00000000204e902c <plat_get_my_stack>:
    204e902c:	aa1e03ea 	mov	x10, x30
    204e9030:	9400002d 	bl	204e90e4 <plat_my_core_pos>
    204e9034:	f0000002 	adrp	x2, 204ec000 <__STACKS_START__+0x280>
    204e9038:	91220042 	add	x2, x2, #0x880
    204e903c:	d2816001 	mov	x1, #0xb00                 	// #2816
    204e9040:	9b010800 	madd	x0, x0, x1, x2
    204e9044:	d65f0140 	ret	x10

00000000204e9048 <plat_set_my_stack>:
    204e9048:	aa1e03e9 	mov	x9, x30
    204e904c:	97fffff8 	bl	204e902c <plat_get_my_stack>
    204e9050:	9100001f 	mov	sp, x0
    204e9054:	d65f0120 	ret	x9

00000000204e9058 <console_lpuart_register>:
    204e9058:	aa1e03e7 	mov	x7, x30
    204e905c:	aa0303e6 	mov	x6, x3
    204e9060:	b40001e6 	cbz	x6, 204e909c <register_fail>
    204e9064:	f90010c0 	str	x0, [x6, #32]
    204e9068:	9400000e 	bl	204e90a0 <console_lpuart_init>
    204e906c:	b4000180 	cbz	x0, 204e909c <register_fail>
    204e9070:	aa0603e0 	mov	x0, x6
    204e9074:	aa0703fe 	mov	x30, x7
    204e9078:	90000001 	adrp	x1, 204e9000 <flush_continue>
    204e907c:	9102a021 	add	x1, x1, #0xa8
    204e9080:	f9000801 	str	x1, [x0, #16]
    204e9084:	90000001 	adrp	x1, 204e9000 <flush_continue>
    204e9088:	91038021 	add	x1, x1, #0xe0
    204e908c:	f9000c01 	str	x1, [x0, #24]
    204e9090:	d28000a1 	mov	x1, #0x5                   	// #5
    204e9094:	f9000401 	str	x1, [x0, #8]
    204e9098:	17ffe303 	b	204e1ca4 <console_register>

00000000204e909c <register_fail>:
    204e909c:	d65f00e0 	ret	x7

00000000204e90a0 <console_lpuart_init>:
    204e90a0:	52800020 	mov	w0, #0x1                   	// #1
    204e90a4:	d65f03c0 	ret

00000000204e90a8 <console_lpuart_putc>:
    204e90a8:	f9401021 	ldr	x1, [x1, #32]
    204e90ac:	b4000161 	cbz	x1, 204e90d8 <putc_error>
    204e90b0:	7100281f 	cmp	w0, #0xa
    204e90b4:	540000a1 	b.ne	204e90c8 <console_lpuart_putc+0x20>  // b.any
    204e90b8:	b9401422 	ldr	w2, [x1, #20]
    204e90bc:	36bfffe2 	tbz	w2, #23, 204e90b8 <console_lpuart_putc+0x10>
    204e90c0:	528001a2 	mov	w2, #0xd                   	// #13
    204e90c4:	b9001c22 	str	w2, [x1, #28]
    204e90c8:	b9401422 	ldr	w2, [x1, #20]
    204e90cc:	36bfffe2 	tbz	w2, #23, 204e90c8 <console_lpuart_putc+0x20>
    204e90d0:	b9001c20 	str	w0, [x1, #28]
    204e90d4:	d65f03c0 	ret

00000000204e90d8 <putc_error>:
    204e90d8:	12800000 	mov	w0, #0xffffffff            	// #-1
    204e90dc:	d65f03c0 	ret

00000000204e90e0 <console_lpuart_flush>:
    204e90e0:	d65f03c0 	ret

00000000204e90e4 <plat_my_core_pos>:
    204e90e4:	d53800a0 	mrs	x0, mpidr_el1
    204e90e8:	d2801fe1 	mov	x1, #0xff                  	// #255
    204e90ec:	8a402020 	and	x0, x1, x0, lsr #8
    204e90f0:	d65f03c0 	ret

00000000204e90f4 <platform_mem_init>:
    204e90f4:	d65f03c0 	ret

00000000204e90f8 <plat_reset_handler>:
    204e90f8:	d2a888e0 	mov	x0, #0x44470000            	// #1145503744
    204e90fc:	b9496801 	ldr	w1, [x0, #2408]
    204e9100:	37e00041 	tbnz	w1, #28, 204e9108 <suspend>
    204e9104:	d65f03c0 	ret

00000000204e9108 <suspend>:
    204e9108:	d2a889e0 	mov	x0, #0x444f0000            	// #1146028032
    204e910c:	52802001 	mov	w1, #0x100                 	// #256
    204e9110:	b9013401 	str	w1, [x0, #308]
    204e9114:	d503201f 	nop
    204e9118:	d503201f 	nop
    204e911c:	b901341f 	str	wzr, [x0, #308]
    204e9120:	d538f2e0 	mrs	x0, s3_0_c15_c2_7
    204e9124:	b2400000 	orr	x0, x0, #0x1
    204e9128:	d518f2e0 	msr	s3_0_c15_c2_7, x0
    204e912c:	d5033fdf 	isb
    204e9130:	d538f3c0 	mrs	x0, s3_0_c15_c3_6
    204e9134:	b27f0000 	orr	x0, x0, #0x2
    204e9138:	d518f3c0 	msr	s3_0_c15_c3_6, x0
    204e913c:	d5033fdf 	isb
    204e9140:	d503207f 	wfi

00000000204e9144 <memcpy>:
    204e9144:	d2800003 	mov	x3, #0x0                   	// #0
    204e9148:	eb03005f 	cmp	x2, x3
    204e914c:	54000041 	b.ne	204e9154 <memcpy+0x10>  // b.any
    204e9150:	d65f03c0 	ret
    204e9154:	38636824 	ldrb	w4, [x1, x3]
    204e9158:	38236804 	strb	w4, [x0, x3]
    204e915c:	91000463 	add	x3, x3, #0x1
    204e9160:	17fffffa 	b	204e9148 <memcpy+0x4>

00000000204e9164 <memmove>:
    204e9164:	cb010006 	sub	x6, x0, x1
    204e9168:	aa0003e5 	mov	x5, x0
    204e916c:	eb0200df 	cmp	x6, x2
    204e9170:	54000043 	b.cc	204e9178 <memmove+0x14>  // b.lo, b.ul, b.last
    204e9174:	17fffff4 	b	204e9144 <memcpy>
    204e9178:	8b020024 	add	x4, x1, x2
    204e917c:	8b020000 	add	x0, x0, x2
    204e9180:	eb05001f 	cmp	x0, x5
    204e9184:	54000041 	b.ne	204e918c <memmove+0x28>  // b.any
    204e9188:	d65f03c0 	ret
    204e918c:	385ffc81 	ldrb	w1, [x4, #-1]!
    204e9190:	381ffc01 	strb	w1, [x0, #-1]!
    204e9194:	17fffffb 	b	204e9180 <memmove+0x1c>

00000000204e9198 <unsigned_num_print.part.0>:
    204e9198:	a9ba7bfd 	stp	x29, x30, [sp, #-96]!
    204e919c:	2a0103e1 	mov	w1, w1
    204e91a0:	12000084 	and	w4, w4, #0x1
    204e91a4:	910003fd 	mov	x29, sp
    204e91a8:	a90153f3 	stp	x19, x20, [sp, #16]
    204e91ac:	12001c54 	and	w20, w2, #0xff
    204e91b0:	d2800013 	mov	x19, #0x0                   	// #0
    204e91b4:	a9025bf5 	stp	x21, x22, [sp, #32]
    204e91b8:	2a0303f6 	mov	w22, w3
    204e91bc:	910123f5 	add	x21, sp, #0x48
    204e91c0:	a90363f7 	stp	x23, x24, [sp, #48]
    204e91c4:	9ac10805 	udiv	x5, x0, x1
    204e91c8:	9b0180a3 	msub	x3, x5, x1, x0
    204e91cc:	12001c62 	and	w2, w3, #0xff
    204e91d0:	f100247f 	cmp	x3, #0x9
    204e91d4:	54000428 	b.hi	204e9258 <unsigned_num_print.part.0+0xc0>  // b.pmore
    204e91d8:	1100c042 	add	w2, w2, #0x30
    204e91dc:	12001c42 	and	w2, w2, #0xff
    204e91e0:	38356a62 	strb	w2, [x19, x21]
    204e91e4:	91000662 	add	x2, x19, #0x1
    204e91e8:	eb00003f 	cmp	x1, x0
    204e91ec:	54000309 	b.ls	204e924c <unsigned_num_print.part.0+0xb4>  // b.plast
    204e91f0:	710002df 	cmp	w22, #0x0
    204e91f4:	5400040d 	b.le	204e9274 <unsigned_num_print.part.0+0xdc>
    204e91f8:	11000677 	add	w23, w19, #0x1
    204e91fc:	2a1603f8 	mov	w24, w22
    204e9200:	6b1802ff 	cmp	w23, w24
    204e9204:	540003cb 	b.lt	204e927c <unsigned_num_print.part.0+0xe4>  // b.tstop
    204e9208:	4b1702d4 	sub	w20, w22, w23
    204e920c:	6b1602ff 	cmp	w23, w22
    204e9210:	1a9fd294 	csel	w20, w20, wzr, le
    204e9214:	2a1303f6 	mov	w22, w19
    204e9218:	93407e73 	sxtw	x19, w19
    204e921c:	38736aa0 	ldrb	w0, [x21, x19]
    204e9220:	d1000673 	sub	x19, x19, #0x1
    204e9224:	97ffe2e0 	bl	204e1da4 <putchar>
    204e9228:	3100067f 	cmn	w19, #0x1
    204e922c:	54ffff81 	b.ne	204e921c <unsigned_num_print.part.0+0x84>  // b.any
    204e9230:	11000680 	add	w0, w20, #0x1
    204e9234:	a94153f3 	ldp	x19, x20, [sp, #16]
    204e9238:	0b0002c0 	add	w0, w22, w0
    204e923c:	a9425bf5 	ldp	x21, x22, [sp, #32]
    204e9240:	a94363f7 	ldp	x23, x24, [sp, #48]
    204e9244:	a8c67bfd 	ldp	x29, x30, [sp], #96
    204e9248:	d65f03c0 	ret
    204e924c:	aa0203f3 	mov	x19, x2
    204e9250:	aa0503e0 	mov	x0, x5
    204e9254:	17ffffdc 	b	204e91c4 <unsigned_num_print.part.0+0x2c>
    204e9258:	1100dc43 	add	w3, w2, #0x37
    204e925c:	11015c42 	add	w2, w2, #0x57
    204e9260:	12001c63 	and	w3, w3, #0xff
    204e9264:	12001c42 	and	w2, w2, #0xff
    204e9268:	7100009f 	cmp	w4, #0x0
    204e926c:	1a830042 	csel	w2, w2, w3, eq	// eq = none
    204e9270:	17ffffdc 	b	204e91e0 <unsigned_num_print.part.0+0x48>
    204e9274:	52800014 	mov	w20, #0x0                   	// #0
    204e9278:	17ffffe7 	b	204e9214 <unsigned_num_print.part.0+0x7c>
    204e927c:	2a1403e0 	mov	w0, w20
    204e9280:	51000718 	sub	w24, w24, #0x1
    204e9284:	97ffe2c8 	bl	204e1da4 <putchar>
    204e9288:	17ffffde 	b	204e9200 <unsigned_num_print.part.0+0x68>

00000000204e928c <vprintf>:
    204e928c:	a9b97bfd 	stp	x29, x30, [sp, #-112]!
    204e9290:	910003fd 	mov	x29, sp
    204e9294:	a90153f3 	stp	x19, x20, [sp, #16]
    204e9298:	b9401834 	ldr	w20, [x1, #24]
    204e929c:	a90363f7 	stp	x23, x24, [sp, #48]
    204e92a0:	a9406033 	ldp	x19, x24, [x1]
    204e92a4:	a9025bf5 	stp	x21, x22, [sp, #32]
    204e92a8:	aa0003f6 	mov	x22, x0
    204e92ac:	a9046bf9 	stp	x25, x26, [sp, #64]
    204e92b0:	9000001a 	adrp	x26, 204e9000 <flush_continue>
    204e92b4:	913fd35a 	add	x26, x26, #0xff4
    204e92b8:	52800015 	mov	w21, #0x0                   	// #0
    204e92bc:	52800019 	mov	w25, #0x0                   	// #0
    204e92c0:	a90573fb 	stp	x27, x28, [sp, #80]
    204e92c4:	394002c0 	ldrb	w0, [x22]
    204e92c8:	35000120 	cbnz	w0, 204e92ec <vprintf+0x60>
    204e92cc:	a94153f3 	ldp	x19, x20, [sp, #16]
    204e92d0:	2a1503e0 	mov	w0, w21
    204e92d4:	a9425bf5 	ldp	x21, x22, [sp, #32]
    204e92d8:	a94363f7 	ldp	x23, x24, [sp, #48]
    204e92dc:	a9446bf9 	ldp	x25, x26, [sp, #64]
    204e92e0:	a94573fb 	ldp	x27, x28, [sp, #80]
    204e92e4:	a8c77bfd 	ldp	x29, x30, [sp], #112
    204e92e8:	d65f03c0 	ret
    204e92ec:	910006d6 	add	x22, x22, #0x1
    204e92f0:	7100941f 	cmp	w0, #0x25
    204e92f4:	54002161 	b.ne	204e9720 <vprintf+0x494>  // b.any
    204e92f8:	52800017 	mov	w23, #0x0                   	// #0
    204e92fc:	52800001 	mov	w1, #0x0                   	// #0
    204e9300:	14000002 	b	204e9308 <vprintf+0x7c>
    204e9304:	52800619 	mov	w25, #0x30                  	// #48
    204e9308:	394002c0 	ldrb	w0, [x22]
    204e930c:	7101e81f 	cmp	w0, #0x7a
    204e9310:	54000168 	b.hi	204e933c <vprintf+0xb0>  // b.pmore
    204e9314:	7101881f 	cmp	w0, #0x62
    204e9318:	540001a8 	b.hi	204e934c <vprintf+0xc0>  // b.pmore
    204e931c:	7100e41f 	cmp	w0, #0x39
    204e9320:	54000248 	b.hi	204e9368 <vprintf+0xdc>  // b.pmore
    204e9324:	7100c01f 	cmp	w0, #0x30
    204e9328:	54001e88 	b.hi	204e96f8 <vprintf+0x46c>  // b.pmore
    204e932c:	7100941f 	cmp	w0, #0x25
    204e9330:	54000240 	b.eq	204e9378 <vprintf+0xec>  // b.none
    204e9334:	7100c01f 	cmp	w0, #0x30
    204e9338:	54001ca0 	b.eq	204e96cc <vprintf+0x440>  // b.none
    204e933c:	12800015 	mov	w21, #0xffffffff            	// #-1
    204e9340:	17ffffe3 	b	204e92cc <vprintf+0x40>
    204e9344:	52800419 	mov	w25, #0x20                  	// #32
    204e9348:	17fffff0 	b	204e9308 <vprintf+0x7c>
    204e934c:	51018c00 	sub	w0, w0, #0x63
    204e9350:	71005c1f 	cmp	w0, #0x17
    204e9354:	54ffff48 	b.hi	204e933c <vprintf+0xb0>  // b.pmore
    204e9358:	78605b40 	ldrh	w0, [x26, w0, uxtw #1]
    204e935c:	10000062 	adr	x2, 204e9368 <vprintf+0xdc>
    204e9360:	8b20a840 	add	x0, x2, w0, sxth #2
    204e9364:	d61f0000 	br	x0
    204e9368:	7101601f 	cmp	w0, #0x58
    204e936c:	54fffe81 	b.ne	204e933c <vprintf+0xb0>  // b.any
    204e9370:	52800024 	mov	w4, #0x1                   	// #1
    204e9374:	14000085 	b	204e9588 <vprintf+0x2fc>
    204e9378:	97ffe28b 	bl	204e1da4 <putchar>
    204e937c:	910006d6 	add	x22, x22, #0x1
    204e9380:	17ffffd1 	b	204e92c4 <vprintf+0x38>
    204e9384:	7100043f 	cmp	w1, #0x1
    204e9388:	5400024d 	b.le	204e93d0 <vprintf+0x144>
    204e938c:	37f80314 	tbnz	w20, #31, 204e93ec <vprintf+0x160>
    204e9390:	91003e60 	add	x0, x19, #0xf
    204e9394:	2a1403e1 	mov	w1, w20
    204e9398:	927df000 	and	x0, x0, #0xfffffffffffffff8
    204e939c:	f940027b 	ldr	x27, [x19]
    204e93a0:	2a0103f4 	mov	w20, w1
    204e93a4:	aa0003f3 	mov	x19, x0
    204e93a8:	b6f8047b 	tbz	x27, #63, 204e9434 <vprintf+0x1a8>
    204e93ac:	528005a0 	mov	w0, #0x2d                  	// #45
    204e93b0:	97ffe27d 	bl	204e1da4 <putchar>
    204e93b4:	cb1b03e0 	neg	x0, x27
    204e93b8:	510006f7 	sub	w23, w23, #0x1
    204e93bc:	2a1703e3 	mov	w3, w23
    204e93c0:	2a1903e2 	mov	w2, w25
    204e93c4:	52800004 	mov	w4, #0x0                   	// #0
    204e93c8:	52800141 	mov	w1, #0xa                   	// #10
    204e93cc:	1400007b 	b	204e95b8 <vprintf+0x32c>
    204e93d0:	54fffde0 	b.eq	204e938c <vprintf+0x100>  // b.none
    204e93d4:	37f801f4 	tbnz	w20, #31, 204e9410 <vprintf+0x184>
    204e93d8:	91002e60 	add	x0, x19, #0xb
    204e93dc:	2a1403e1 	mov	w1, w20
    204e93e0:	927df000 	and	x0, x0, #0xfffffffffffffff8
    204e93e4:	b980027b 	ldrsw	x27, [x19]
    204e93e8:	17ffffee 	b	204e93a0 <vprintf+0x114>
    204e93ec:	11002281 	add	w1, w20, #0x8
    204e93f0:	7100003f 	cmp	w1, #0x0
    204e93f4:	5400008d 	b.le	204e9404 <vprintf+0x178>
    204e93f8:	91003e60 	add	x0, x19, #0xf
    204e93fc:	927df000 	and	x0, x0, #0xfffffffffffffff8
    204e9400:	17ffffe7 	b	204e939c <vprintf+0x110>
    204e9404:	aa1303e0 	mov	x0, x19
    204e9408:	8b34c313 	add	x19, x24, w20, sxtw
    204e940c:	17ffffe4 	b	204e939c <vprintf+0x110>
    204e9410:	11002281 	add	w1, w20, #0x8
    204e9414:	7100003f 	cmp	w1, #0x0
    204e9418:	5400008d 	b.le	204e9428 <vprintf+0x19c>
    204e941c:	91002e60 	add	x0, x19, #0xb
    204e9420:	927df000 	and	x0, x0, #0xfffffffffffffff8
    204e9424:	17fffff0 	b	204e93e4 <vprintf+0x158>
    204e9428:	aa1303e0 	mov	x0, x19
    204e942c:	8b34c313 	add	x19, x24, w20, sxtw
    204e9430:	17ffffed 	b	204e93e4 <vprintf+0x158>
    204e9434:	aa1b03e0 	mov	x0, x27
    204e9438:	17ffffe1 	b	204e93bc <vprintf+0x130>
    204e943c:	37f80154 	tbnz	w20, #31, 204e9464 <vprintf+0x1d8>
    204e9440:	91002e77 	add	x23, x19, #0xb
    204e9444:	2a1403fb 	mov	w27, w20
    204e9448:	927df2f7 	and	x23, x23, #0xfffffffffffffff8
    204e944c:	b9400260 	ldr	w0, [x19]
    204e9450:	110006b5 	add	w21, w21, #0x1
    204e9454:	97ffe254 	bl	204e1da4 <putchar>
    204e9458:	2a1b03f4 	mov	w20, w27
    204e945c:	aa1703f3 	mov	x19, x23
    204e9460:	17ffffc7 	b	204e937c <vprintf+0xf0>
    204e9464:	1100229b 	add	w27, w20, #0x8
    204e9468:	7100037f 	cmp	w27, #0x0
    204e946c:	5400008d 	b.le	204e947c <vprintf+0x1f0>
    204e9470:	91002e77 	add	x23, x19, #0xb
    204e9474:	927df2f7 	and	x23, x23, #0xfffffffffffffff8
    204e9478:	17fffff5 	b	204e944c <vprintf+0x1c0>
    204e947c:	aa1303f7 	mov	x23, x19
    204e9480:	8b34c313 	add	x19, x24, w20, sxtw
    204e9484:	17fffff2 	b	204e944c <vprintf+0x1c0>
    204e9488:	37f80194 	tbnz	w20, #31, 204e94b8 <vprintf+0x22c>
    204e948c:	91003e77 	add	x23, x19, #0xf
    204e9490:	2a1403fb 	mov	w27, w20
    204e9494:	927df2f7 	and	x23, x23, #0xfffffffffffffff8
    204e9498:	f9400273 	ldr	x19, [x19]
    204e949c:	d2800001 	mov	x1, #0x0                   	// #0
    204e94a0:	d1000673 	sub	x19, x19, #0x1
    204e94a4:	91000434 	add	x20, x1, #0x1
    204e94a8:	38746a60 	ldrb	w0, [x19, x20]
    204e94ac:	35000180 	cbnz	w0, 204e94dc <vprintf+0x250>
    204e94b0:	0b0102b5 	add	w21, w21, w1
    204e94b4:	17ffffe9 	b	204e9458 <vprintf+0x1cc>
    204e94b8:	1100229b 	add	w27, w20, #0x8
    204e94bc:	7100037f 	cmp	w27, #0x0
    204e94c0:	5400008d 	b.le	204e94d0 <vprintf+0x244>
    204e94c4:	91003e77 	add	x23, x19, #0xf
    204e94c8:	927df2f7 	and	x23, x23, #0xfffffffffffffff8
    204e94cc:	17fffff3 	b	204e9498 <vprintf+0x20c>
    204e94d0:	aa1303f7 	mov	x23, x19
    204e94d4:	8b34c313 	add	x19, x24, w20, sxtw
    204e94d8:	17fffff0 	b	204e9498 <vprintf+0x20c>
    204e94dc:	97ffe232 	bl	204e1da4 <putchar>
    204e94e0:	aa1403e1 	mov	x1, x20
    204e94e4:	17fffff0 	b	204e94a4 <vprintf+0x218>
    204e94e8:	37f80214 	tbnz	w20, #31, 204e9528 <vprintf+0x29c>
    204e94ec:	91003e7b 	add	x27, x19, #0xf
    204e94f0:	2a1403fc 	mov	w28, w20
    204e94f4:	927df37b 	and	x27, x27, #0xfffffffffffffff8
    204e94f8:	f9400274 	ldr	x20, [x19]
    204e94fc:	b50003d4 	cbnz	x20, 204e9574 <vprintf+0x2e8>
    204e9500:	aa1403e0 	mov	x0, x20
    204e9504:	2a1703e3 	mov	w3, w23
    204e9508:	2a1903e2 	mov	w2, w25
    204e950c:	52800004 	mov	w4, #0x0                   	// #0
    204e9510:	52800201 	mov	w1, #0x10                  	// #16
    204e9514:	2a1c03f4 	mov	w20, w28
    204e9518:	97ffff20 	bl	204e9198 <unsigned_num_print.part.0>
    204e951c:	aa1b03f3 	mov	x19, x27
    204e9520:	0b0002b5 	add	w21, w21, w0
    204e9524:	17ffff96 	b	204e937c <vprintf+0xf0>
    204e9528:	1100229c 	add	w28, w20, #0x8
    204e952c:	7100039f 	cmp	w28, #0x0
    204e9530:	5400008d 	b.le	204e9540 <vprintf+0x2b4>
    204e9534:	91003e7b 	add	x27, x19, #0xf
    204e9538:	927df37b 	and	x27, x27, #0xfffffffffffffff8
    204e953c:	17ffffef 	b	204e94f8 <vprintf+0x26c>
    204e9540:	aa1303fb 	mov	x27, x19
    204e9544:	8b34c313 	add	x19, x24, w20, sxtw
    204e9548:	17ffffec 	b	204e94f8 <vprintf+0x26c>
    204e954c:	f90037e2 	str	x2, [sp, #104]
    204e9550:	97ffe215 	bl	204e1da4 <putchar>
    204e9554:	f94037e2 	ldr	x2, [sp, #104]
    204e9558:	aa0203e1 	mov	x1, x2
    204e955c:	91000422 	add	x2, x1, #0x1
    204e9560:	38626a60 	ldrb	w0, [x19, x2]
    204e9564:	35ffff40 	cbnz	w0, 204e954c <vprintf+0x2c0>
    204e9568:	0b0102b5 	add	w21, w21, w1
    204e956c:	51000af7 	sub	w23, w23, #0x2
    204e9570:	17ffffe4 	b	204e9500 <vprintf+0x274>
    204e9574:	b0000013 	adrp	x19, 204ea000 <wakeupmix_irq_mask+0x2c>
    204e9578:	d2800001 	mov	x1, #0x0                   	// #0
    204e957c:	910c9673 	add	x19, x19, #0x325
    204e9580:	17fffff7 	b	204e955c <vprintf+0x2d0>
    204e9584:	52800004 	mov	w4, #0x0                   	// #0
    204e9588:	7100043f 	cmp	w1, #0x1
    204e958c:	540001cd 	b.le	204e95c4 <vprintf+0x338>
    204e9590:	37f80294 	tbnz	w20, #31, 204e95e0 <vprintf+0x354>
    204e9594:	91003e61 	add	x1, x19, #0xf
    204e9598:	2a1403e2 	mov	w2, w20
    204e959c:	927df021 	and	x1, x1, #0xfffffffffffffff8
    204e95a0:	f9400260 	ldr	x0, [x19]
    204e95a4:	2a0203f4 	mov	w20, w2
    204e95a8:	2a1703e3 	mov	w3, w23
    204e95ac:	2a1903e2 	mov	w2, w25
    204e95b0:	aa0103f3 	mov	x19, x1
    204e95b4:	52800201 	mov	w1, #0x10                  	// #16
    204e95b8:	97fffef8 	bl	204e9198 <unsigned_num_print.part.0>
    204e95bc:	0b0002b5 	add	w21, w21, w0
    204e95c0:	17ffff6f 	b	204e937c <vprintf+0xf0>
    204e95c4:	54fffe60 	b.eq	204e9590 <vprintf+0x304>  // b.none
    204e95c8:	37f801f4 	tbnz	w20, #31, 204e9604 <vprintf+0x378>
    204e95cc:	91002e61 	add	x1, x19, #0xb
    204e95d0:	2a1403e2 	mov	w2, w20
    204e95d4:	927df021 	and	x1, x1, #0xfffffffffffffff8
    204e95d8:	b9400260 	ldr	w0, [x19]
    204e95dc:	17fffff2 	b	204e95a4 <vprintf+0x318>
    204e95e0:	11002282 	add	w2, w20, #0x8
    204e95e4:	7100005f 	cmp	w2, #0x0
    204e95e8:	5400008d 	b.le	204e95f8 <vprintf+0x36c>
    204e95ec:	91003e61 	add	x1, x19, #0xf
    204e95f0:	927df021 	and	x1, x1, #0xfffffffffffffff8
    204e95f4:	17ffffeb 	b	204e95a0 <vprintf+0x314>
    204e95f8:	aa1303e1 	mov	x1, x19
    204e95fc:	8b34c313 	add	x19, x24, w20, sxtw
    204e9600:	17ffffe8 	b	204e95a0 <vprintf+0x314>
    204e9604:	11002282 	add	w2, w20, #0x8
    204e9608:	7100005f 	cmp	w2, #0x0
    204e960c:	5400008d 	b.le	204e961c <vprintf+0x390>
    204e9610:	91002e61 	add	x1, x19, #0xb
    204e9614:	927df021 	and	x1, x1, #0xfffffffffffffff8
    204e9618:	17fffff0 	b	204e95d8 <vprintf+0x34c>
    204e961c:	aa1303e1 	mov	x1, x19
    204e9620:	8b34c313 	add	x19, x24, w20, sxtw
    204e9624:	17ffffed 	b	204e95d8 <vprintf+0x34c>
    204e9628:	910006d6 	add	x22, x22, #0x1
    204e962c:	52800041 	mov	w1, #0x2                   	// #2
    204e9630:	17ffff36 	b	204e9308 <vprintf+0x7c>
    204e9634:	11000421 	add	w1, w1, #0x1
    204e9638:	910006d6 	add	x22, x22, #0x1
    204e963c:	17ffff33 	b	204e9308 <vprintf+0x7c>
    204e9640:	7100043f 	cmp	w1, #0x1
    204e9644:	5400012d 	b.le	204e9668 <vprintf+0x3dc>
    204e9648:	37f801f4 	tbnz	w20, #31, 204e9684 <vprintf+0x3f8>
    204e964c:	91003e61 	add	x1, x19, #0xf
    204e9650:	2a1403e2 	mov	w2, w20
    204e9654:	927df021 	and	x1, x1, #0xfffffffffffffff8
    204e9658:	f9400260 	ldr	x0, [x19]
    204e965c:	2a0203f4 	mov	w20, w2
    204e9660:	aa0103f3 	mov	x19, x1
    204e9664:	17ffff56 	b	204e93bc <vprintf+0x130>
    204e9668:	54ffff00 	b.eq	204e9648 <vprintf+0x3bc>  // b.none
    204e966c:	37f801f4 	tbnz	w20, #31, 204e96a8 <vprintf+0x41c>
    204e9670:	91002e61 	add	x1, x19, #0xb
    204e9674:	2a1403e2 	mov	w2, w20
    204e9678:	927df021 	and	x1, x1, #0xfffffffffffffff8
    204e967c:	b9400260 	ldr	w0, [x19]
    204e9680:	17fffff7 	b	204e965c <vprintf+0x3d0>
    204e9684:	11002282 	add	w2, w20, #0x8
    204e9688:	7100005f 	cmp	w2, #0x0
    204e968c:	5400008d 	b.le	204e969c <vprintf+0x410>
    204e9690:	91003e61 	add	x1, x19, #0xf
    204e9694:	927df021 	and	x1, x1, #0xfffffffffffffff8
    204e9698:	17fffff0 	b	204e9658 <vprintf+0x3cc>
    204e969c:	aa1303e1 	mov	x1, x19
    204e96a0:	8b34c313 	add	x19, x24, w20, sxtw
    204e96a4:	17ffffed 	b	204e9658 <vprintf+0x3cc>
    204e96a8:	11002282 	add	w2, w20, #0x8
    204e96ac:	7100005f 	cmp	w2, #0x0
    204e96b0:	5400008d 	b.le	204e96c0 <vprintf+0x434>
    204e96b4:	91002e61 	add	x1, x19, #0xb
    204e96b8:	927df021 	and	x1, x1, #0xfffffffffffffff8
    204e96bc:	17fffff0 	b	204e967c <vprintf+0x3f0>
    204e96c0:	aa1303e1 	mov	x1, x19
    204e96c4:	8b34c313 	add	x19, x24, w20, sxtw
    204e96c8:	17ffffed 	b	204e967c <vprintf+0x3f0>
    204e96cc:	910006d6 	add	x22, x22, #0x1
    204e96d0:	52800017 	mov	w23, #0x0                   	// #0
    204e96d4:	52800142 	mov	w2, #0xa                   	// #10
    204e96d8:	394002c0 	ldrb	w0, [x22]
    204e96dc:	5100c000 	sub	w0, w0, #0x30
    204e96e0:	12001c03 	and	w3, w0, #0xff
    204e96e4:	7100247f 	cmp	w3, #0x9
    204e96e8:	54ffe0e8 	b.hi	204e9304 <vprintf+0x78>  // b.pmore
    204e96ec:	1b0202f7 	madd	w23, w23, w2, w0
    204e96f0:	910006d6 	add	x22, x22, #0x1
    204e96f4:	17fffff9 	b	204e96d8 <vprintf+0x44c>
    204e96f8:	52800017 	mov	w23, #0x0                   	// #0
    204e96fc:	52800142 	mov	w2, #0xa                   	// #10
    204e9700:	394002c0 	ldrb	w0, [x22]
    204e9704:	5100c000 	sub	w0, w0, #0x30
    204e9708:	12001c03 	and	w3, w0, #0xff
    204e970c:	7100247f 	cmp	w3, #0x9
    204e9710:	54ffe1a8 	b.hi	204e9344 <vprintf+0xb8>  // b.pmore
    204e9714:	1b0202f7 	madd	w23, w23, w2, w0
    204e9718:	910006d6 	add	x22, x22, #0x1
    204e971c:	17fffff9 	b	204e9700 <vprintf+0x474>
    204e9720:	110006b5 	add	w21, w21, #0x1
    204e9724:	97ffe1a0 	bl	204e1da4 <putchar>
    204e9728:	17fffee7 	b	204e92c4 <vprintf+0x38>

00000000204e972c <printf>:
    204e972c:	a9b77bfd 	stp	x29, x30, [sp, #-144]!
    204e9730:	910003fd 	mov	x29, sp
    204e9734:	a9058be1 	stp	x1, x2, [sp, #88]
    204e9738:	910243e1 	add	x1, sp, #0x90
    204e973c:	a90307e1 	stp	x1, x1, [sp, #48]
    204e9740:	910143e1 	add	x1, sp, #0x50
    204e9744:	f90023e1 	str	x1, [sp, #64]
    204e9748:	128006e1 	mov	w1, #0xffffffc8            	// #-56
    204e974c:	b9004be1 	str	w1, [sp, #72]
    204e9750:	910043e1 	add	x1, sp, #0x10
    204e9754:	b9004fff 	str	wzr, [sp, #76]
    204e9758:	a90693e3 	stp	x3, x4, [sp, #104]
    204e975c:	a9430fe2 	ldp	x2, x3, [sp, #48]
    204e9760:	a9010fe2 	stp	x2, x3, [sp, #16]
    204e9764:	a9440fe2 	ldp	x2, x3, [sp, #64]
    204e9768:	a9020fe2 	stp	x2, x3, [sp, #32]
    204e976c:	a9079be5 	stp	x5, x6, [sp, #120]
    204e9770:	f90047e7 	str	x7, [sp, #136]
    204e9774:	97fffec6 	bl	204e928c <vprintf>
    204e9778:	a8c97bfd 	ldp	x29, x30, [sp], #144
    204e977c:	d65f03c0 	ret

00000000204e9780 <memset>:
    204e9780:	b4000322 	cbz	x2, 204e97e4 <memset+0x64>
    204e9784:	12001c21 	and	w1, w1, #0xff
    204e9788:	aa0003e3 	mov	x3, x0
    204e978c:	f2400864 	ands	x4, x3, #0x7
    204e9790:	54000241 	b.ne	204e97d8 <memset+0x58>  // b.any
    204e9794:	2a0103e6 	mov	w6, w1
    204e9798:	b200c3e5 	mov	x5, #0x101010101010101     	// #72340172838076673
    204e979c:	9b057cc6 	mul	x6, x6, x5
    204e97a0:	d2800005 	mov	x5, #0x0                   	// #0
    204e97a4:	cb050047 	sub	x7, x2, x5
    204e97a8:	f1001cff 	cmp	x7, #0x7
    204e97ac:	540001e8 	b.hi	204e97e8 <memset+0x68>  // b.pmore
    204e97b0:	d343fc45 	lsr	x5, x2, #3
    204e97b4:	928000e6 	mov	x6, #0xfffffffffffffff8    	// #-8
    204e97b8:	9b067ca5 	mul	x5, x5, x6
    204e97bc:	8b050042 	add	x2, x2, x5
    204e97c0:	cb050063 	sub	x3, x3, x5
    204e97c4:	eb04005f 	cmp	x2, x4
    204e97c8:	540000e0 	b.eq	204e97e4 <memset+0x64>  // b.none
    204e97cc:	38246861 	strb	w1, [x3, x4]
    204e97d0:	91000484 	add	x4, x4, #0x1
    204e97d4:	17fffffc 	b	204e97c4 <memset+0x44>
    204e97d8:	38001461 	strb	w1, [x3], #1
    204e97dc:	f1000442 	subs	x2, x2, #0x1
    204e97e0:	54fffd61 	b.ne	204e978c <memset+0xc>  // b.any
    204e97e4:	d65f03c0 	ret
    204e97e8:	f8256866 	str	x6, [x3, x5]
    204e97ec:	910020a5 	add	x5, x5, #0x8
    204e97f0:	17ffffed 	b	204e97a4 <memset+0x24>
    204e97f4:	00000000 	udf	#0

00000000204e97f8 <psci_args.0>:
    204e97f8:	00100106 00000000 204e0178 00000000     ........x.N ....

00000000204e9808 <plat_prefix_str>:
    204e9808:	204ea1d2 00000000 204ea1dc 00000000     ..N ......N ....
    204e9818:	204ea1e6 00000000 204ea1f0 00000000     ..N ......N ....
    204e9828:	204ea1fa 00000000                       ..N ....

00000000204e9830 <arm_gic_data>:
    204e9830:	48000000 00000000 48040000 00000000     ...H.......H....
    204e9840:	204e9c24 00000000 00000001 00000002     $.N ............
    204e9850:	204ed838 00000000 204e52a0 00000000     8.N .....RN ....

00000000204e9860 <imx_mmap>:
    204e9860:	44000000 00000000 44000000 00000000     ...D.......D....
    204e9870:	00800000 00000000 00000008 00000000     ................
    204e9880:	40000000 00000000 42000000 00000000     ...@.......B....
    204e9890:	42000000 00000000 00800000 00000000     ...B............
    204e98a0:	00000018 00000000 40000000 00000000     ...........@....
    204e98b0:	49000000 00000000 49000000 00000000     ...I.......I....
    204e98c0:	00800000 00000000 00000018 00000000     ................
    204e98d0:	40000000 00000000 48000000 00000000     ...@.......H....
    204e98e0:	48000000 00000000 00200000 00000000     ...H...... .....
    204e98f0:	00000008 00000000 40000000 00000000     ...........@....
    204e9900:	44270000 00000000 44270000 00000000     ..'D......'D....
    204e9910:	00020000 00000000 00000008 00000000     ................
    204e9920:	40000000 00000000 42460000 00000000     ...@......FB....
    204e9930:	42460000 00000000 00020000 00000000     ..FB............
    204e9940:	00000008 00000000 40000000 00000000     ...........@....
    204e9950:	42810000 00000000 42810000 00000000     ...B.......B....
    204e9960:	00020000 00000000 00000008 00000000     ................
    204e9970:	40000000 00000000 49010000 00000000     ...@.......I....
    204e9980:	49010000 00000000 00020000 00000000     ...I............
    204e9990:	00000008 00000000 40000000 00000000     ...........@....
    204e99a0:	4e000000 00000000 4e000000 00000000     ...N.......N....
    204e99b0:	00400000 00000000 00000018 00000000     ..@.............
    204e99c0:	40000000 00000000 53810000 00000000     ...@.......S....
    204e99d0:	53810000 00000000 00030000 00000000     ...S............
    204e99e0:	00000008 00000000 40000000 00000000     ...........@....
    204e99f0:	47520000 00000000 47520000 00000000     ..RG......RG....
    204e9a00:	00800000 00000000 00000008 00000000     ................
    204e9a10:	40000000 00000000 43900000 00000000     ...@.......C....
    204e9a20:	43900000 00000000 00200000 00000000     ...C...... .....
    204e9a30:	00000008 00000000 40000000 00000000     ...........@....
    204e9a40:	42800000 00000000 42800000 00000000     ...B.......B....
    204e9a50:	00800000 00000000 00000018 00000000     ................
    204e9a60:	40000000 00000000 47510000 00000000     ...@......QG....
    204e9a70:	47510000 00000000 00010000 00000000     ..QG............
    204e9a80:	00000008 00000000 40000000 00000000     ...........@....
	...

00000000204e9ab8 <imx_plat_psci_ops>:
	...
    204e9ac0:	204e79a4 00000000 204e6d38 00000000     .yN ....8mN ....
	...
    204e9ae0:	204e7a3c 00000000 204e6c44 00000000     <zN ....DlN ....
	...
    204e9af8:	204e77f4 00000000 00000000 00000000     .wN ............
    204e9b08:	204e6c28 00000000 204e6bf0 00000000     (lN .....kN ....
    204e9b18:	204e6b7c 00000000 204e6b68 00000000     |kN ....hkN ....
    204e9b28:	204e6bd8 00000000 00000000 00000000     .kN ............
	...

00000000204e9b68 <cortex_a55_errata_list_start>:
    204e9b68:	204e8bac 	.word	0x204e8bac
    204e9b6c:	00000000 	.word	0x00000000
    204e9b70:	000bb915 	.word	0x000bb915
    204e9b74:	00000000 	.word	0x00000000
    204e9b78:	204e8bb8 	.word	0x204e8bb8
    204e9b7c:	00000000 	.word	0x00000000
    204e9b80:	000be1cf 	.word	0x000be1cf
    204e9b84:	00000000 	.word	0x00000000
    204e9b88:	204e8bdc 	.word	0x204e8bdc
    204e9b8c:	00000000 	.word	0x00000000
    204e9b90:	000c304d 	.word	0x000c304d
    204e9b94:	00000000 	.word	0x00000000
    204e9b98:	204e8be8 	.word	0x204e8be8
    204e9b9c:	00000000 	.word	0x00000000
    204e9ba0:	000c30e9 	.word	0x000c30e9
    204e9ba4:	00000000 	.word	0x00000000
    204e9ba8:	204e8c08 	.word	0x204e8c08
    204e9bac:	00000000 	.word	0x00000000
    204e9bb0:	000ceac4 	.word	0x000ceac4
    204e9bb4:	00000000 	.word	0x00000000
    204e9bb8:	204e8c14 	.word	0x204e8c14
    204e9bbc:	00000000 	.word	0x00000000
    204e9bc0:	000dca4e 	.word	0x000dca4e
    204e9bc4:	00000000 	.word	0x00000000
    204e9bc8:	204e8c20 	.word	0x204e8c20
    204e9bcc:	00000000 	.word	0x00000000
    204e9bd0:	000e48f8 	.word	0x000e48f8
    204e9bd4:	00000000 	.word	0x00000000
    204e9bd8:	204e8c48 	.word	0x204e8c48
    204e9bdc:	00000000 	.word	0x00000000
    204e9be0:	0012a194 	.word	0x0012a194
    204e9be4:	00000000 	.word	0x00000000
    204e9be8:	204e8c54 	.word	0x204e8c54
    204e9bec:	00000000 	.word	0x00000000
    204e9bf0:	00175c2b 	.word	0x00175c2b
    204e9bf4:	00000000 	.word	0x00000000

00000000204e9bf8 <cortex_a55_errata_list_end>:
    204e9bf8:	0a030600 	.word	0x0a030600
    204e9bfc:	1715120f 	.word	0x1715120f
    204e9c00:	39222120 	.word	0x39222120
    204e9c04:	391c1939 	.word	0x391c1939
    204e9c08:	242a3939 	.word	0x242a3939
    204e9c0c:	00000026 	.word	0x00000026
    204e9c10:	d9d602d1 	.word	0xd9d602d1
    204e9c14:	02e002dc 	.word	0x02e002dc
    204e9c18:	02020202 	.word	0x02020202
    204e9c1c:	0202e7e3 	.word	0x0202e7e3
    204e9c20:	f102f402 	.word	0xf102f402

00000000204e9c24 <g01s_interrupt_props>:
    204e9c24:	00200008                                .. .

00000000204e9c28 <imx9_fracpll_tbl>:
    204e9c28:	3b9aca00 00000001 000000a6 00000004     ...;............
    204e9c38:	00000002 00000003 379c7340 00000001     ........@s.7....
    204e9c48:	0000009b 00000004 00000001 00000002     ................
    204e9c58:	2faf0800 00000001 000000c8 00000006     .../............
    204e9c68:	00000000 00000001 29b92700 00000001     .........'.)....
    204e9c78:	00000091 00000005 00000005 00000006     ................
    204e9c88:	23c34600 00000001 000000c8 00000008     .F.#............
    204e9c98:	00000000 00000001 1dcd6500 00000001     .........e......
    204e9ca8:	0000007d 00000006 00000000 00000001     }...............
    204e9cb8:	1bc69880 00000001 0000009b 00000008     ................
    204e9cc8:	00000001 00000003 17d78400 00000001     ................
    204e9cd8:	000000c8 0000000c 00000000 00000001     ................
    204e9ce8:	11e1a300 00000001 000000c8 00000010     ................
    204e9cf8:	00000000 00000001 0ee6b280 00000001     ................
    204e9d08:	0000007d 0000000c 00000000 00000001     }...............
    204e9d18:	0de34c40 00000001 0000009b 00000010     @L..............
    204e9d28:	00000001 00000003 0bebc200 00000001     ................
    204e9d38:	000000c8 00000018 00000000 00000001     ................
    204e9d48:	09f437c0 00000001 000000a7 00000018     .7..............
    204e9d58:	00000000 00000001 09e4f580 00000001     ................
    204e9d68:	000000a6 00000018 00000000 00000001     ................
    204e9d78:	000000f3 0071006f 00750073 00790077     ....o.q.s.u.w.y.
    204e9d88:	007d007b 0081007f 00020002 00020002     {.}.............
    204e9d98:	00c100bf 00c500c3 00c900c7 00cd00cb     ................
    204e9da8:	00d100cf 00020002 00020002 00020002     ................
    204e9db8:	000200d9 00020002 00020002 00020002     ................
    204e9dc8:	00020002 00020002 00020002 00020002     ................
    204e9dd8:	00020002 00020002 00020002 00020002     ................
    204e9de8:	00020002 00020002 00020002 00020002     ................
    204e9df8:	000000e1 000000eb 00530051 00570055     ........Q.S.U.W.
    204e9e08:	005b0059 005f005d 00630061 00020002     Y.[.]._.a.c.....
    204e9e18:	00020002 00a300a1 00a700a5 00ab00a9     ................
    204e9e28:	00af00ad 00b300b1 00020002 00020002     ................
    204e9e38:	00020002 000200cd 00020002 00020002     ................
    204e9e48:	00020002 00020002 00020002 00020002     ................
    204e9e58:	00020002 00020002 00020002 00020002     ................
    204e9e68:	00020002 00020002 00020002 00020002     ................
    204e9e78:	00020002 000000d5 000000e0 00320030     ............0.2.
    204e9e88:	00360034 003a0038 003e003c 00420040     4.6.8.:.<.>.@.B.
    204e9e98:	00020002 00020002 00820080 00860084     ................
    204e9ea8:	008a0088 008e008c 00920090 00020002     ................
    204e9eb8:	00020002 00020002 000200be 00020002     ................
    204e9ec8:	00020002 00020002 00020002 00020002     ................
    204e9ed8:	00020002 00020002 00020002 00020002     ................
    204e9ee8:	00020002 00020002 00020002 00020002     ................
    204e9ef8:	00020002 00020002 000000c6 ffcfffcf     ................
    204e9f08:	ffcfffcf ffcfffcf ffcfffcf ffcfffcf     ................
    204e9f18:	0000ffcf 00000000 005f0000 00630061     .........._.a.c.
    204e9f28:	00670065 006b0069 006f006d 00000071     e.g.i.k.m.o.q...
	...
    204e9f40:	00af0000 00000000 00000000 00000000     ................
	...
    204e9f80:	00b70000 00000000 00000000 00000000     ................
	...
    204e9fa0:	00bf0000 00c300c1 00c700c5 00cb00c9     ................
    204e9fb0:	000000cd                                ....

00000000204e9fb4 <gpio_ctrl_offset>:
    204e9fb4:	0000000c 00000010 00000014 00000018     ................
    204e9fc4:	0000001c 00000040 00000054 00000058     ....@...T...X...

00000000204e9fd4 <wakeupmix_irq_mask>:
    204e9fd4:	00000000 00080000 00c000f0 00000000     ................
    204e9fe4:	00000000 00a00000 000c2000 00000000     ......... ......
    204e9ff4:	00070035 fff5fff5 fff5fff5 fff50007     5...............
    204ea004:	00b3fff5 fff5fff5 0060fff5 fff5fff5     ..........`.....
    204ea014:	fff50048 fff500b6 0087fff5 00b0fff5     H...............
    204ea024:	314c450a 70757320 74726f70 41412073     .EL1 supports AA
    204ea034:	36686372 6e6f2d34 202e796c 61656c50     rch64-only. Plea
    204ea044:	73206573 62207465 646c6975 616c6620     se set build fla
    204ea054:	54432067 4e495f58 44554c43 41415f45     g CTX_INCLUDE_AA
    204ea064:	33484352 45525f32 3d205347 000a3020     RCH32_REGS = 0..
    204ea074:	334c4214 25203a31 0a000a73 61766e49     .BL31: %s...Inva
    204ea084:	2064696c 746e7572 20656d69 76726573     lid runtime serv
    204ea094:	20656369 63736564 74706972 2520726f     ice descriptor %
    204ea0a4:	0a000a70 6f727245 6e692072 61697469     p...Error initia
    204ea0b4:	697a696c 7220676e 69746e75 7320656d     lizing runtime s
    204ea0c4:	69767265 25206563 0a000a73 61766e49     ervice %s...Inva
    204ea0d4:	2064696c 75636573 79746972 61747320     lid security sta
    204ea0e4:	000a6574 656e550a 63657078 20646574     te...Unexpected 
    204ea0f4:	69666661 7974696e 666e6920 7473206f     affinity info st
    204ea104:	2e657461 430a000a 646c756f 746f6e20     ate....Could not
    204ea114:	776f7020 6f207265 43206666 0a2e5550      power off CPU..
    204ea124:	6e490a00 696c6176 61742064 74656772     ..Invalid target
    204ea134:	776f7020 6c207265 6c657665 726f6620      power level for
    204ea144:	73757320 646e6570 65706f20 69746172      suspend operati
    204ea154:	000a6e6f 616d6d0a 64615f70 65725f64     on...mmap_add_re
    204ea164:	6e6f6967 6568635f 29286b63 69616620     gion_check() fai
    204ea174:	2e64656c 72726520 2520726f 0a000a64     led. error %d...
    204ea184:	20746f4e 756f6e65 6d206867 726f6d65     Not enough memor
    204ea194:	6f742079 70616d20 67657220 3a6e6f69     y to map region:
    204ea1a4:	4156200a 2578303a 2020786c 303a4150     . VA:0x%lx  PA:0
    204ea1b4:	6c6c2578 73202078 3a657a69 7a257830     x%llx  size:0x%z
    204ea1c4:	61202078 3a727474 78257830 5245000a     x  attr:0x%x..ER
    204ea1d4:	3a524f52 00202020 49544f4e 203a4543     ROR:   .NOTICE: 
    204ea1e4:	41570020 4e494e52 00203a47 4f464e49      .WARNING: .INFO
    204ea1f4:	2020203a 45560020 534f4252 00203a45     :    .VERBOSE: .
    204ea204:	5f786d69 5f706973 00637673 6f725014     imx_sip_svc..Pro
    204ea214:	6d617267 53424220 5041204d 706f2049     gram BBSM API op
    204ea224:	74617265 206e6f69 6c696166 0a216465     eration failed!.
    204ea234:	52531400 5341465f 4b575f54 204e455f     ..SR_FAST_WK_EN 
    204ea244:	20746962 20746573 63637573 0a737365     bit set success.
    204ea254:	52531400 5341465f 4b575f54 204e455f     ..SR_FAST_WK_EN 
    204ea264:	20746962 20746573 6c696166 000a6465     bit set failed..
    204ea274:	49464414 4552465f 69622051 73207374     .DFI_FREQ bits s
    204ea284:	73207465 65636375 000a7373 49464414     et success...DFI
    204ea294:	4552465f 69622051 65732074 61662074     _FREQ bit set fa
    204ea2a4:	64656c69 4514000a 6c62616e 64642065     iled...Enable dd
    204ea2b4:	6f702072 20726577 0d66666f 6514000a     r power off....e
    204ea2c4:	7265746e 74657220 69746e65 64206e6f     nter retention d
    204ea2d4:	0a656e6f 79687000 6c657220 2064616f     one..phy reload 
    204ea2e4:	656e6f64 6514000a 20746978 65746572     done...exit rete
    204ea2f4:	6f69746e 6f64206e 000a656e 44525414     ntion done...TRD
    204ea304:	6e692043 64207469 0a656e6f 6d726100     C init done..arm
    204ea314:	6372615f 76735f68 74730063 76735f64     _arch_svc.std_sv
    204ea324:	78300063                                 c.0x.

00000000204ea329 <build_version_string>:
    204ea329:	312e3276 28312e34 656c6572 29657361     v2.14.1(release)
    204ea339:	                                         :.

00000000204ea33b <build_message>:
    204ea33b:	6c697542 203a2074 333a3831 34303a35     Built : 18:35:04
    204ea34b:	754a202c 3331206c 32303220               , Jul 13 2026.

00000000204ea359 <CSWTCH.13>:
    204ea359:	04010200                                ....

00000000204ea35d <imx_power_domain_tree_desc>:
    204ea35d:	                                         ...

00000000204ea360 <panic_msg>:
    204ea360:	494e4150 	.word	0x494e4150
    204ea364:	74612043 	.word	0x74612043
    204ea368:	20435020 	.word	0x20435020
    204ea36c:	7830203a 	.word	0x7830203a
	...

00000000204ea378 <__svc_desc_imx_sip_svc>:
    204ea378:	00010202 00000000 204ea204 00000000     ..........N ....
    204ea388:	204e51cc 00000000 204e51d4 00000000     .QN .....QN ....

00000000204ea398 <__svc_desc_arm_arch_svc>:
    204ea398:	00010000 00000000 204ea311 00000000     ..........N ....
	...
    204ea3b0:	204e832c 00000000                       ,.N ....

00000000204ea3b8 <__svc_desc_std_svc>:
    204ea3b8:	00010404 00000000 204ea31e 00000000     ..........N ....
    204ea3c8:	204e8634 00000000 204e857c 00000000     4.N ....|.N ....

00000000204ea3d8 <__CPU_OPS_START__>:
    204ea3d8:	410fd050 	.word	0x410fd050
    204ea3dc:	00000000 	.word	0x00000000
    204ea3e0:	204e8b94 	.word	0x204e8b94
	...
    204ea3f0:	204e8c5c 	.word	0x204e8c5c
    204ea3f4:	00000000 	.word	0x00000000
    204ea3f8:	204e8c5c 	.word	0x204e8c5c
    204ea3fc:	00000000 	.word	0x00000000
    204ea400:	204e9b68 	.word	0x204e9b68
    204ea404:	00000000 	.word	0x00000000
    204ea408:	204e9bf8 	.word	0x204e9bf8
    204ea40c:	00000000 	.word	0x00000000

00000000204ea410 <__CPU_OPS_END__>:
	...

00000000204ea800 <sync_exception_sp_el0>:
    204ea800:	17fff796 	b	204e8658 <report_unhandled_exception>
	...

00000000204ea880 <irq_sp_el0>:
    204ea880:	17fff776 	b	204e8658 <report_unhandled_exception>
	...

00000000204ea900 <fiq_sp_el0>:
    204ea900:	17fff756 	b	204e8658 <report_unhandled_exception>
	...

00000000204ea980 <serror_sp_el0>:
    204ea980:	97fff9aa 	bl	204e9028 <plat_handle_el3_ea>
	...

00000000204eaa00 <sync_exception_sp_elx>:
    204eaa00:	17fff716 	b	204e8658 <report_unhandled_exception>
	...

00000000204eaa80 <irq_sp_elx>:
    204eaa80:	17fff6f6 	b	204e8658 <report_unhandled_exception>
	...

00000000204eab00 <fiq_sp_elx>:
    204eab00:	17fff6d6 	b	204e8658 <report_unhandled_exception>
	...

00000000204eab80 <serror_sp_elx>:
    204eab80:	97fff92a 	bl	204e9028 <plat_handle_el3_ea>
	...

00000000204eac00 <sync_exception_aarch64>:
    204eac00:	f9007bfe 	str	x30, [sp, #240]
    204eac04:	d5033f9f 	dsb	sy
    204eac08:	d5033fdf 	isb
    204eac0c:	d538c11e 	mrs	x30, isr_el1
    204eac10:	3640005e 	tbz	w30, #8, 204eac18 <sync_exception_aarch64+0x18>
    204eac14:	97fff6f5 	bl	204e87e8 <reflect_pending_async_ea_to_lower_el>
    204eac18:	d53e521e 	mrs	x30, esr_el3
    204eac1c:	d35a7fde 	ubfx	x30, x30, #26, #6
    204eac20:	f1004fdf 	cmp	x30, #0x13
    204eac24:	54fed1c0 	b.eq	204e865c <sync_exception_handler>  // b.none
    204eac28:	f1005fdf 	cmp	x30, #0x17
    204eac2c:	54fed1a0 	b.eq	204e8660 <sync_handler64>  // b.none
    204eac30:	f10063df 	cmp	x30, #0x18
    204eac34:	54fed160 	b.eq	204e8660 <sync_handler64>  // b.none
    204eac38:	f1007fdf 	cmp	x30, #0x1f
    204eac3c:	54fedba0 	b.eq	204e87b0 <imp_def_el3_handler>  // b.none
    204eac40:	17fff686 	b	204e8658 <report_unhandled_exception>
	...

00000000204eac80 <irq_aarch64>:
    204eac80:	f9007bfe 	str	x30, [sp, #240]
    204eac84:	d5033f9f 	dsb	sy
    204eac88:	d5033fdf 	isb
    204eac8c:	d538c11e 	mrs	x30, isr_el1
    204eac90:	3640005e 	tbz	w30, #8, 204eac98 <irq_aarch64+0x18>
    204eac94:	97fff6d5 	bl	204e87e8 <reflect_pending_async_ea_to_lower_el>
    204eac98:	17fff6b1 	b	204e875c <handle_interrupt_exception>
	...

00000000204ead00 <fiq_aarch64>:
    204ead00:	f9007bfe 	str	x30, [sp, #240]
    204ead04:	d5033f9f 	dsb	sy
    204ead08:	d5033fdf 	isb
    204ead0c:	d538c11e 	mrs	x30, isr_el1
    204ead10:	3640005e 	tbz	w30, #8, 204ead18 <fiq_aarch64+0x18>
    204ead14:	97fff6b5 	bl	204e87e8 <reflect_pending_async_ea_to_lower_el>
    204ead18:	17fff691 	b	204e875c <handle_interrupt_exception>
	...

00000000204ead80 <serror_aarch64>:
    204ead80:	17fff636 	b	204e8658 <report_unhandled_exception>
	...

00000000204eae00 <sync_exception_aarch32>:
    204eae00:	f9007bfe 	str	x30, [sp, #240]
    204eae04:	d5033f9f 	dsb	sy
    204eae08:	d5033fdf 	isb
    204eae0c:	d538c11e 	mrs	x30, isr_el1
    204eae10:	3640005e 	tbz	w30, #8, 204eae18 <sync_exception_aarch32+0x18>
    204eae14:	97fff675 	bl	204e87e8 <reflect_pending_async_ea_to_lower_el>
    204eae18:	d53e521e 	mrs	x30, esr_el3
    204eae1c:	d35a7fde 	ubfx	x30, x30, #26, #6
    204eae20:	f1004fdf 	cmp	x30, #0x13
    204eae24:	54fec1c0 	b.eq	204e865c <sync_exception_handler>  // b.none
    204eae28:	f1005fdf 	cmp	x30, #0x17
    204eae2c:	54fec1a0 	b.eq	204e8660 <sync_handler64>  // b.none
    204eae30:	f10063df 	cmp	x30, #0x18
    204eae34:	54fec160 	b.eq	204e8660 <sync_handler64>  // b.none
    204eae38:	f1007fdf 	cmp	x30, #0x1f
    204eae3c:	54fecba0 	b.eq	204e87b0 <imp_def_el3_handler>  // b.none
    204eae40:	17fff606 	b	204e8658 <report_unhandled_exception>
	...

00000000204eae80 <irq_aarch32>:
    204eae80:	f9007bfe 	str	x30, [sp, #240]
    204eae84:	d5033f9f 	dsb	sy
    204eae88:	d5033fdf 	isb
    204eae8c:	d538c11e 	mrs	x30, isr_el1
    204eae90:	3640005e 	tbz	w30, #8, 204eae98 <irq_aarch32+0x18>
    204eae94:	97fff655 	bl	204e87e8 <reflect_pending_async_ea_to_lower_el>
    204eae98:	17fff631 	b	204e875c <handle_interrupt_exception>
	...

00000000204eaf00 <fiq_aarch32>:
    204eaf00:	f9007bfe 	str	x30, [sp, #240]
    204eaf04:	d5033f9f 	dsb	sy
    204eaf08:	d5033fdf 	isb
    204eaf0c:	d538c11e 	mrs	x30, isr_el1
    204eaf10:	3640005e 	tbz	w30, #8, 204eaf18 <fiq_aarch32+0x18>
    204eaf14:	97fff635 	bl	204e87e8 <reflect_pending_async_ea_to_lower_el>
    204eaf18:	17fff611 	b	204e875c <handle_interrupt_exception>
	...

00000000204eaf80 <serror_aarch32>:
    204eaf80:	17fff5b6 	b	204e8658 <report_unhandled_exception>
	...
